	.file	"InskyInspectionServer.cpp"
	.text
	.section	.text._ZNSt11char_traitsIcE2ltERKcS2_,"axG",@progbits,_ZNSt11char_traitsIcE2ltERKcS2_,comdat
	.weak	_ZNSt11char_traitsIcE2ltERKcS2_
	.type	_ZNSt11char_traitsIcE2ltERKcS2_, @function
_ZNSt11char_traitsIcE2ltERKcS2_:
.LFB344:
	.cfi_startproc
	endbr64
	pushq	%rbp
	.cfi_def_cfa_offset 16
	.cfi_offset 6, -16
	movq	%rsp, %rbp
	.cfi_def_cfa_register 6
	movq	%rdi, -8(%rbp)
	movq	%rsi, -16(%rbp)
	movq	-8(%rbp), %rax
	movzbl	(%rax), %eax
	movl	%eax, %edx
	movq	-16(%rbp), %rax
	movzbl	(%rax), %eax
	cmpb	%al, %dl
	setb	%al
	popq	%rbp
	.cfi_def_cfa 7, 8
	ret
	.cfi_endproc
.LFE344:
	.size	_ZNSt11char_traitsIcE2ltERKcS2_, .-_ZNSt11char_traitsIcE2ltERKcS2_
	.section	.text._ZNSt11char_traitsIcE7compareEPKcS2_m,"axG",@progbits,_ZNSt11char_traitsIcE7compareEPKcS2_m,comdat
	.weak	_ZNSt11char_traitsIcE7compareEPKcS2_m
	.type	_ZNSt11char_traitsIcE7compareEPKcS2_m, @function
_ZNSt11char_traitsIcE7compareEPKcS2_m:
.LFB345:
	.cfi_startproc
	endbr64
	pushq	%rbp
	.cfi_def_cfa_offset 16
	.cfi_offset 6, -16
	movq	%rsp, %rbp
	.cfi_def_cfa_register 6
	subq	$48, %rsp
	movq	%rdi, -24(%rbp)
	movq	%rsi, -32(%rbp)
	movq	%rdx, -40(%rbp)
	cmpq	$0, -40(%rbp)
	jne	.L4
	movl	$0, %eax
	jmp	.L5
.L4:
	movl	$0, %eax
	testb	%al, %al
	je	.L6
	movq	$0, -8(%rbp)
.L10:
	movq	-8(%rbp), %rax
	cmpq	-40(%rbp), %rax
	jnb	.L7
	movq	-32(%rbp), %rdx
	movq	-8(%rbp), %rax
	addq	%rax, %rdx
	movq	-24(%rbp), %rcx
	movq	-8(%rbp), %rax
	addq	%rcx, %rax
	movq	%rdx, %rsi
	movq	%rax, %rdi
	call	_ZNSt11char_traitsIcE2ltERKcS2_@PLT
	testb	%al, %al
	je	.L8
	movl	$-1, %eax
	jmp	.L5
.L8:
	movq	-24(%rbp), %rdx
	movq	-8(%rbp), %rax
	addq	%rax, %rdx
	movq	-32(%rbp), %rcx
	movq	-8(%rbp), %rax
	addq	%rcx, %rax
	movq	%rdx, %rsi
	movq	%rax, %rdi
	call	_ZNSt11char_traitsIcE2ltERKcS2_@PLT
	testb	%al, %al
	je	.L9
	movl	$1, %eax
	jmp	.L5
.L9:
	addq	$1, -8(%rbp)
	jmp	.L10
.L7:
	movl	$0, %eax
	jmp	.L5
.L6:
	movq	-40(%rbp), %rdx
	movq	-32(%rbp), %rcx
	movq	-24(%rbp), %rax
	movq	%rcx, %rsi
	movq	%rax, %rdi
	call	memcmp@PLT
	nop
.L5:
	leave
	.cfi_def_cfa 7, 8
	ret
	.cfi_endproc
.LFE345:
	.size	_ZNSt11char_traitsIcE7compareEPKcS2_m, .-_ZNSt11char_traitsIcE7compareEPKcS2_m
	.section	.text._ZNSt11char_traitsIcE6lengthEPKc,"axG",@progbits,_ZNSt11char_traitsIcE6lengthEPKc,comdat
	.weak	_ZNSt11char_traitsIcE6lengthEPKc
	.type	_ZNSt11char_traitsIcE6lengthEPKc, @function
_ZNSt11char_traitsIcE6lengthEPKc:
.LFB347:
	.cfi_startproc
	endbr64
	pushq	%rbp
	.cfi_def_cfa_offset 16
	.cfi_offset 6, -16
	movq	%rsp, %rbp
	.cfi_def_cfa_register 6
	subq	$32, %rsp
	movq	%rdi, -24(%rbp)
	movq	-24(%rbp), %rax
	movq	%rax, -8(%rbp)
	movl	$0, %eax
	testb	%al, %al
	je	.L13
	movq	-24(%rbp), %rax
	movq	%rax, %rdi
	call	_ZN9__gnu_cxx11char_traitsIcE6lengthEPKc@PLT
	jmp	.L14
.L13:
	movq	-24(%rbp), %rax
	movq	$-1, %rcx
	movq	%rax, %rdx
	movl	$0, %eax
	movq	%rdx, %rdi
	repnz scasb
	movq	%rcx, %rax
	notq	%rax
	subq	$1, %rax
	nop
.L14:
	leave
	.cfi_def_cfa 7, 8
	ret
	.cfi_endproc
.LFE347:
	.size	_ZNSt11char_traitsIcE6lengthEPKc, .-_ZNSt11char_traitsIcE6lengthEPKc
	.section	.text._ZnwmPv,"axG",@progbits,_ZnwmPv,comdat
	.weak	_ZnwmPv
	.type	_ZnwmPv, @function
_ZnwmPv:
.LFB452:
	.cfi_startproc
	endbr64
	pushq	%rbp
	.cfi_def_cfa_offset 16
	.cfi_offset 6, -16
	movq	%rsp, %rbp
	.cfi_def_cfa_register 6
	movq	%rdi, -8(%rbp)
	movq	%rsi, -16(%rbp)
	movq	-16(%rbp), %rax
	popq	%rbp
	.cfi_def_cfa 7, 8
	ret
	.cfi_endproc
.LFE452:
	.size	_ZnwmPv, .-_ZnwmPv
	.section	.data.rel.ro,"aw"
	.align 8
	.type	_ZZL18__gthread_active_pvE20__gthread_active_ptr, @object
	.size	_ZZL18__gthread_active_pvE20__gthread_active_ptr, 8
_ZZL18__gthread_active_pvE20__gthread_active_ptr:
	.quad	_ZL28__gthrw___pthread_key_createPjPFvPvE
	.text
	.type	_ZL18__gthread_active_pv, @function
_ZL18__gthread_active_pv:
.LFB644:
	.cfi_startproc
	pushq	%rbp
	.cfi_def_cfa_offset 16
	.cfi_offset 6, -16
	movq	%rsp, %rbp
	.cfi_def_cfa_register 6
	movl	$1, %edx
	movq	_ZL28__gthrw___pthread_key_createPjPFvPvE@GOTPCREL(%rip), %rax
	testq	%rax, %rax
	jne	.L18
	movl	$0, %edx
.L18:
	movzbl	%dl, %eax
	popq	%rbp
	.cfi_def_cfa 7, 8
	ret
	.cfi_endproc
.LFE644:
	.size	_ZL18__gthread_active_pv, .-_ZL18__gthread_active_pv
	.section	.text._ZN9__gnu_cxxL18__exchange_and_addEPVii,"axG",@progbits,_ZNSt16_Sp_counted_baseILN9__gnu_cxx12_Lock_policyE2EE10_M_releaseEv,comdat
	.type	_ZN9__gnu_cxxL18__exchange_and_addEPVii, @function
_ZN9__gnu_cxxL18__exchange_and_addEPVii:
.LFB673:
	.cfi_startproc
	pushq	%rbp
	.cfi_def_cfa_offset 16
	.cfi_offset 6, -16
	movq	%rsp, %rbp
	.cfi_def_cfa_register 6
	movq	%rdi, -8(%rbp)
	movl	%esi, -12(%rbp)
	movl	-12(%rbp), %edx
	movq	-8(%rbp), %rax
	lock xaddl	%edx, (%rax)
	movl	%edx, %eax
	popq	%rbp
	.cfi_def_cfa 7, 8
	ret
	.cfi_endproc
.LFE673:
	.size	_ZN9__gnu_cxxL18__exchange_and_addEPVii, .-_ZN9__gnu_cxxL18__exchange_and_addEPVii
	.section	.text._ZN9__gnu_cxxL12__atomic_addEPVii,"axG",@progbits,_ZNSt16_Sp_counted_baseILN9__gnu_cxx12_Lock_policyE2EE15_M_add_ref_copyEv,comdat
	.type	_ZN9__gnu_cxxL12__atomic_addEPVii, @function
_ZN9__gnu_cxxL12__atomic_addEPVii:
.LFB674:
	.cfi_startproc
	pushq	%rbp
	.cfi_def_cfa_offset 16
	.cfi_offset 6, -16
	movq	%rsp, %rbp
	.cfi_def_cfa_register 6
	movq	%rdi, -8(%rbp)
	movl	%esi, -12(%rbp)
	movl	-12(%rbp), %edx
	movq	-8(%rbp), %rax
	lock addl	%edx, (%rax)
	nop
	popq	%rbp
	.cfi_def_cfa 7, 8
	ret
	.cfi_endproc
.LFE674:
	.size	_ZN9__gnu_cxxL12__atomic_addEPVii, .-_ZN9__gnu_cxxL12__atomic_addEPVii
	.section	.text._ZN9__gnu_cxxL25__exchange_and_add_singleEPii,"axG",@progbits,_ZNSt16_Sp_counted_baseILN9__gnu_cxx12_Lock_policyE2EE10_M_releaseEv,comdat
	.type	_ZN9__gnu_cxxL25__exchange_and_add_singleEPii, @function
_ZN9__gnu_cxxL25__exchange_and_add_singleEPii:
.LFB675:
	.cfi_startproc
	pushq	%rbp
	.cfi_def_cfa_offset 16
	.cfi_offset 6, -16
	movq	%rsp, %rbp
	.cfi_def_cfa_register 6
	movq	%rdi, -24(%rbp)
	movl	%esi, -28(%rbp)
	movq	-24(%rbp), %rax
	movl	(%rax), %eax
	movl	%eax, -4(%rbp)
	movq	-24(%rbp), %rax
	movl	(%rax), %edx
	movl	-28(%rbp), %eax
	addl	%eax, %edx
	movq	-24(%rbp), %rax
	movl	%edx, (%rax)
	movl	-4(%rbp), %eax
	popq	%rbp
	.cfi_def_cfa 7, 8
	ret
	.cfi_endproc
.LFE675:
	.size	_ZN9__gnu_cxxL25__exchange_and_add_singleEPii, .-_ZN9__gnu_cxxL25__exchange_and_add_singleEPii
	.section	.text._ZN9__gnu_cxxL19__atomic_add_singleEPii,"axG",@progbits,_ZNSt16_Sp_counted_baseILN9__gnu_cxx12_Lock_policyE2EE15_M_add_ref_copyEv,comdat
	.type	_ZN9__gnu_cxxL19__atomic_add_singleEPii, @function
_ZN9__gnu_cxxL19__atomic_add_singleEPii:
.LFB676:
	.cfi_startproc
	pushq	%rbp
	.cfi_def_cfa_offset 16
	.cfi_offset 6, -16
	movq	%rsp, %rbp
	.cfi_def_cfa_register 6
	movq	%rdi, -8(%rbp)
	movl	%esi, -12(%rbp)
	movq	-8(%rbp), %rax
	movl	(%rax), %edx
	movl	-12(%rbp), %eax
	addl	%eax, %edx
	movq	-8(%rbp), %rax
	movl	%edx, (%rax)
	nop
	popq	%rbp
	.cfi_def_cfa 7, 8
	ret
	.cfi_endproc
.LFE676:
	.size	_ZN9__gnu_cxxL19__atomic_add_singleEPii, .-_ZN9__gnu_cxxL19__atomic_add_singleEPii
	.section	.text._ZN9__gnu_cxxL27__exchange_and_add_dispatchEPii,"axG",@progbits,_ZNSt16_Sp_counted_baseILN9__gnu_cxx12_Lock_policyE2EE10_M_releaseEv,comdat
	.type	_ZN9__gnu_cxxL27__exchange_and_add_dispatchEPii, @function
_ZN9__gnu_cxxL27__exchange_and_add_dispatchEPii:
.LFB677:
	.cfi_startproc
	pushq	%rbp
	.cfi_def_cfa_offset 16
	.cfi_offset 6, -16
	movq	%rsp, %rbp
	.cfi_def_cfa_register 6
	subq	$16, %rsp
	movq	%rdi, -8(%rbp)
	movl	%esi, -12(%rbp)
	call	_ZL18__gthread_active_pv
	testl	%eax, %eax
	setne	%al
	testb	%al, %al
	je	.L27
	movl	-12(%rbp), %edx
	movq	-8(%rbp), %rax
	movl	%edx, %esi
	movq	%rax, %rdi
	call	_ZN9__gnu_cxxL18__exchange_and_addEPVii
	jmp	.L28
.L27:
	movl	-12(%rbp), %edx
	movq	-8(%rbp), %rax
	movl	%edx, %esi
	movq	%rax, %rdi
	call	_ZN9__gnu_cxxL25__exchange_and_add_singleEPii
	nop
.L28:
	leave
	.cfi_def_cfa 7, 8
	ret
	.cfi_endproc
.LFE677:
	.size	_ZN9__gnu_cxxL27__exchange_and_add_dispatchEPii, .-_ZN9__gnu_cxxL27__exchange_and_add_dispatchEPii
	.section	.text._ZN9__gnu_cxxL21__atomic_add_dispatchEPii,"axG",@progbits,_ZNSt16_Sp_counted_baseILN9__gnu_cxx12_Lock_policyE2EE15_M_add_ref_copyEv,comdat
	.type	_ZN9__gnu_cxxL21__atomic_add_dispatchEPii, @function
_ZN9__gnu_cxxL21__atomic_add_dispatchEPii:
.LFB678:
	.cfi_startproc
	pushq	%rbp
	.cfi_def_cfa_offset 16
	.cfi_offset 6, -16
	movq	%rsp, %rbp
	.cfi_def_cfa_register 6
	subq	$16, %rsp
	movq	%rdi, -8(%rbp)
	movl	%esi, -12(%rbp)
	call	_ZL18__gthread_active_pv
	testl	%eax, %eax
	setne	%al
	testb	%al, %al
	je	.L30
	movl	-12(%rbp), %edx
	movq	-8(%rbp), %rax
	movl	%edx, %esi
	movq	%rax, %rdi
	call	_ZN9__gnu_cxxL12__atomic_addEPVii
	jmp	.L32
.L30:
	movl	-12(%rbp), %edx
	movq	-8(%rbp), %rax
	movl	%edx, %esi
	movq	%rax, %rdi
	call	_ZN9__gnu_cxxL19__atomic_add_singleEPii
.L32:
	nop
	leave
	.cfi_def_cfa 7, 8
	ret
	.cfi_endproc
.LFE678:
	.size	_ZN9__gnu_cxxL21__atomic_add_dispatchEPii, .-_ZN9__gnu_cxxL21__atomic_add_dispatchEPii
	.section	.text._ZNSt14numeric_limitsIcE3maxEv,"axG",@progbits,_ZNSt14numeric_limitsIcE3maxEv,comdat
	.weak	_ZNSt14numeric_limitsIcE3maxEv
	.type	_ZNSt14numeric_limitsIcE3maxEv, @function
_ZNSt14numeric_limitsIcE3maxEv:
.LFB741:
	.cfi_startproc
	endbr64
	pushq	%rbp
	.cfi_def_cfa_offset 16
	.cfi_offset 6, -16
	movq	%rsp, %rbp
	.cfi_def_cfa_register 6
	movl	$127, %eax
	popq	%rbp
	.cfi_def_cfa 7, 8
	ret
	.cfi_endproc
.LFE741:
	.size	_ZNSt14numeric_limitsIcE3maxEv, .-_ZNSt14numeric_limitsIcE3maxEv
	.section	.text._ZNSt14numeric_limitsIiE3maxEv,"axG",@progbits,_ZNSt14numeric_limitsIiE3maxEv,comdat
	.weak	_ZNSt14numeric_limitsIiE3maxEv
	.type	_ZNSt14numeric_limitsIiE3maxEv, @function
_ZNSt14numeric_limitsIiE3maxEv:
.LFB813:
	.cfi_startproc
	endbr64
	pushq	%rbp
	.cfi_def_cfa_offset 16
	.cfi_offset 6, -16
	movq	%rsp, %rbp
	.cfi_def_cfa_register 6
	movl	$2147483647, %eax
	popq	%rbp
	.cfi_def_cfa 7, 8
	ret
	.cfi_endproc
.LFE813:
	.size	_ZNSt14numeric_limitsIiE3maxEv, .-_ZNSt14numeric_limitsIiE3maxEv
	.section	.rodata
	.align 4
	.type	_ZN9__gnu_cxxL21__default_lock_policyE, @object
	.size	_ZN9__gnu_cxxL21__default_lock_policyE, 4
_ZN9__gnu_cxxL21__default_lock_policyE:
	.long	2
	.section	.text._ZStanSt12memory_orderSt23__memory_order_modifier,"axG",@progbits,_ZStanSt12memory_orderSt23__memory_order_modifier,comdat
	.weak	_ZStanSt12memory_orderSt23__memory_order_modifier
	.type	_ZStanSt12memory_orderSt23__memory_order_modifier, @function
_ZStanSt12memory_orderSt23__memory_order_modifier:
.LFB2076:
	.cfi_startproc
	endbr64
	pushq	%rbp
	.cfi_def_cfa_offset 16
	.cfi_offset 6, -16
	movq	%rsp, %rbp
	.cfi_def_cfa_register 6
	movl	%edi, -4(%rbp)
	movl	%esi, -8(%rbp)
	movl	-4(%rbp), %edx
	movl	-8(%rbp), %eax
	andl	%edx, %eax
	popq	%rbp
	.cfi_def_cfa 7, 8
	ret
	.cfi_endproc
.LFE2076:
	.size	_ZStanSt12memory_orderSt23__memory_order_modifier, .-_ZStanSt12memory_orderSt23__memory_order_modifier
	.section	.rodata
	.type	_ZN6__pstl9execution2v1L3seqE, @object
	.size	_ZN6__pstl9execution2v1L3seqE, 1
_ZN6__pstl9execution2v1L3seqE:
	.zero	1
	.type	_ZN6__pstl9execution2v1L3parE, @object
	.size	_ZN6__pstl9execution2v1L3parE, 1
_ZN6__pstl9execution2v1L3parE:
	.zero	1
	.type	_ZN6__pstl9execution2v1L9par_unseqE, @object
	.size	_ZN6__pstl9execution2v1L9par_unseqE, 1
_ZN6__pstl9execution2v1L9par_unseqE:
	.zero	1
	.type	_ZN6__pstl9execution2v1L5unseqE, @object
	.size	_ZN6__pstl9execution2v1L5unseqE, 1
_ZN6__pstl9execution2v1L5unseqE:
	.zero	1
	.section	.text._ZNSt14_Function_baseD2Ev,"axG",@progbits,_ZNSt14_Function_baseD5Ev,comdat
	.align 2
	.weak	_ZNSt14_Function_baseD2Ev
	.type	_ZNSt14_Function_baseD2Ev, @function
_ZNSt14_Function_baseD2Ev:
.LFB2266:
	.cfi_startproc
	.cfi_personality 0x9b,DW.ref.__gxx_personality_v0
	.cfi_lsda 0x1b,.LLSDA2266
	endbr64
	pushq	%rbp
	.cfi_def_cfa_offset 16
	.cfi_offset 6, -16
	movq	%rsp, %rbp
	.cfi_def_cfa_register 6
	subq	$16, %rsp
	movq	%rdi, -8(%rbp)
	movq	-8(%rbp), %rax
	movq	16(%rax), %rax
	testq	%rax, %rax
	je	.L41
	movq	-8(%rbp), %rax
	movq	16(%rax), %r8
	movq	-8(%rbp), %rcx
	movq	-8(%rbp), %rax
	movl	$3, %edx
	movq	%rcx, %rsi
	movq	%rax, %rdi
	call	*%r8
.L41:
	nop
	leave
	.cfi_def_cfa 7, 8
	ret
	.cfi_endproc
.LFE2266:
	.globl	__gxx_personality_v0
	.section	.gcc_except_table._ZNSt14_Function_baseD2Ev,"aG",@progbits,_ZNSt14_Function_baseD5Ev,comdat
.LLSDA2266:
	.byte	0xff
	.byte	0xff
	.byte	0x1
	.uleb128 .LLSDACSE2266-.LLSDACSB2266
.LLSDACSB2266:
.LLSDACSE2266:
	.section	.text._ZNSt14_Function_baseD2Ev,"axG",@progbits,_ZNSt14_Function_baseD5Ev,comdat
	.size	_ZNSt14_Function_baseD2Ev, .-_ZNSt14_Function_baseD2Ev
	.weak	_ZNSt14_Function_baseD1Ev
	.set	_ZNSt14_Function_baseD1Ev,_ZNSt14_Function_baseD2Ev
	.section	.text._ZNKSt14_Function_base8_M_emptyEv,"axG",@progbits,_ZNKSt14_Function_base8_M_emptyEv,comdat
	.align 2
	.weak	_ZNKSt14_Function_base8_M_emptyEv
	.type	_ZNKSt14_Function_base8_M_emptyEv, @function
_ZNKSt14_Function_base8_M_emptyEv:
.LFB2268:
	.cfi_startproc
	endbr64
	pushq	%rbp
	.cfi_def_cfa_offset 16
	.cfi_offset 6, -16
	movq	%rsp, %rbp
	.cfi_def_cfa_register 6
	movq	%rdi, -8(%rbp)
	movq	-8(%rbp), %rax
	movq	16(%rax), %rax
	testq	%rax, %rax
	sete	%al
	popq	%rbp
	.cfi_def_cfa 7, 8
	ret
	.cfi_endproc
.LFE2268:
	.size	_ZNKSt14_Function_base8_M_emptyEv, .-_ZNKSt14_Function_base8_M_emptyEv
	.section	.text._ZSt3minImERKT_S2_S2_,"axG",@progbits,_ZSt3minImERKT_S2_S2_,comdat
	.weak	_ZSt3minImERKT_S2_S2_
	.type	_ZSt3minImERKT_S2_S2_, @function
_ZSt3minImERKT_S2_S2_:
.LFB2350:
	.cfi_startproc
	endbr64
	pushq	%rbp
	.cfi_def_cfa_offset 16
	.cfi_offset 6, -16
	movq	%rsp, %rbp
	.cfi_def_cfa_register 6
	movq	%rdi, -8(%rbp)
	movq	%rsi, -16(%rbp)
	movq	-16(%rbp), %rax
	movq	(%rax), %rdx
	movq	-8(%rbp), %rax
	movq	(%rax), %rax
	cmpq	%rax, %rdx
	jnb	.L45
	movq	-16(%rbp), %rax
	jmp	.L46
.L45:
	movq	-8(%rbp), %rax
.L46:
	popq	%rbp
	.cfi_def_cfa 7, 8
	ret
	.cfi_endproc
.LFE2350:
	.size	_ZSt3minImERKT_S2_S2_, .-_ZSt3minImERKT_S2_S2_
	.section	.text._ZNKSt10error_code5valueEv,"axG",@progbits,_ZNKSt10error_code5valueEv,comdat
	.align 2
	.weak	_ZNKSt10error_code5valueEv
	.type	_ZNKSt10error_code5valueEv, @function
_ZNKSt10error_code5valueEv:
.LFB3489:
	.cfi_startproc
	endbr64
	pushq	%rbp
	.cfi_def_cfa_offset 16
	.cfi_offset 6, -16
	movq	%rsp, %rbp
	.cfi_def_cfa_register 6
	movq	%rdi, -8(%rbp)
	movq	-8(%rbp), %rax
	movl	(%rax), %eax
	popq	%rbp
	.cfi_def_cfa 7, 8
	ret
	.cfi_endproc
.LFE3489:
	.size	_ZNKSt10error_code5valueEv, .-_ZNKSt10error_code5valueEv
	.section	.text._ZNKSt10error_code8categoryEv,"axG",@progbits,_ZNKSt10error_code8categoryEv,comdat
	.align 2
	.weak	_ZNKSt10error_code8categoryEv
	.type	_ZNKSt10error_code8categoryEv, @function
_ZNKSt10error_code8categoryEv:
.LFB3490:
	.cfi_startproc
	endbr64
	pushq	%rbp
	.cfi_def_cfa_offset 16
	.cfi_offset 6, -16
	movq	%rsp, %rbp
	.cfi_def_cfa_register 6
	movq	%rdi, -8(%rbp)
	movq	-8(%rbp), %rax
	movq	8(%rax), %rax
	popq	%rbp
	.cfi_def_cfa 7, 8
	ret
	.cfi_endproc
.LFE3490:
	.size	_ZNKSt10error_code8categoryEv, .-_ZNKSt10error_code8categoryEv
	.section	.text._ZNK5boost6system14error_category6failedEi,"axG",@progbits,_ZNK5boost6system14error_category6failedEi,comdat
	.align 2
	.weak	_ZNK5boost6system14error_category6failedEi
	.type	_ZNK5boost6system14error_category6failedEi, @function
_ZNK5boost6system14error_category6failedEi:
.LFB3725:
	.cfi_startproc
	endbr64
	pushq	%rbp
	.cfi_def_cfa_offset 16
	.cfi_offset 6, -16
	movq	%rsp, %rbp
	.cfi_def_cfa_register 6
	movq	%rdi, -8(%rbp)
	movl	%esi, -12(%rbp)
	cmpl	$0, -12(%rbp)
	setne	%al
	popq	%rbp
	.cfi_def_cfa 7, 8
	ret
	.cfi_endproc
.LFE3725:
	.size	_ZNK5boost6system14error_category6failedEi, .-_ZNK5boost6system14error_category6failedEi
	.section	.text._ZN5boost6systemeqERKNS0_14error_categoryES3_,"axG",@progbits,_ZN5boost6systemeqERKNS0_14error_categoryES3_,comdat
	.weak	_ZN5boost6systemeqERKNS0_14error_categoryES3_
	.type	_ZN5boost6systemeqERKNS0_14error_categoryES3_, @function
_ZN5boost6systemeqERKNS0_14error_categoryES3_:
.LFB3726:
	.cfi_startproc
	endbr64
	pushq	%rbp
	.cfi_def_cfa_offset 16
	.cfi_offset 6, -16
	movq	%rsp, %rbp
	.cfi_def_cfa_register 6
	movq	%rdi, -8(%rbp)
	movq	%rsi, -16(%rbp)
	movq	-16(%rbp), %rax
	movq	8(%rax), %rax
	testq	%rax, %rax
	jne	.L54
	movq	-8(%rbp), %rax
	cmpq	-16(%rbp), %rax
	sete	%al
	jmp	.L56
.L54:
	movq	-8(%rbp), %rax
	movq	8(%rax), %rdx
	movq	-16(%rbp), %rax
	movq	8(%rax), %rax
	cmpq	%rax, %rdx
	sete	%al
.L56:
	popq	%rbp
	.cfi_def_cfa 7, 8
	ret
	.cfi_endproc
.LFE3726:
	.size	_ZN5boost6systemeqERKNS0_14error_categoryES3_, .-_ZN5boost6systemeqERKNS0_14error_categoryES3_
	.section	.rodata
	.align 8
	.type	_ZN5boost6system6detailL19generic_category_idE, @object
	.size	_ZN5boost6system6detailL19generic_category_idE, 8
_ZN5boost6system6detailL19generic_category_idE:
	.quad	-5572340897628102704
	.align 8
	.type	_ZN5boost6system6detailL18system_category_idE, @object
	.size	_ZN5boost6system6detailL18system_category_idE, 8
_ZN5boost6system6detailL18system_category_idE:
	.quad	-5572340897628102703
	.align 8
	.type	_ZN5boost6system6detailL19interop_category_idE, @object
	.size	_ZN5boost6system6detailL19interop_category_idE, 8
_ZN5boost6system6detailL19interop_category_idE:
	.quad	-5572340897628102702
	.section	.text._ZN5boost6system6detail17strerror_r_helperEPKcS3_,"axG",@progbits,_ZN5boost6system6detail17strerror_r_helperEPKcS3_,comdat
	.weak	_ZN5boost6system6detail17strerror_r_helperEPKcS3_
	.type	_ZN5boost6system6detail17strerror_r_helperEPKcS3_, @function
_ZN5boost6system6detail17strerror_r_helperEPKcS3_:
.LFB3730:
	.cfi_startproc
	endbr64
	pushq	%rbp
	.cfi_def_cfa_offset 16
	.cfi_offset 6, -16
	movq	%rsp, %rbp
	.cfi_def_cfa_register 6
	movq	%rdi, -8(%rbp)
	movq	%rsi, -16(%rbp)
	movq	-8(%rbp), %rax
	popq	%rbp
	.cfi_def_cfa 7, 8
	ret
	.cfi_endproc
.LFE3730:
	.size	_ZN5boost6system6detail17strerror_r_helperEPKcS3_, .-_ZN5boost6system6detail17strerror_r_helperEPKcS3_
	.section	.text._ZN5boost6system6detail30generic_error_category_messageEiPcm,"axG",@progbits,_ZN5boost6system6detail30generic_error_category_messageEiPcm,comdat
	.weak	_ZN5boost6system6detail30generic_error_category_messageEiPcm
	.type	_ZN5boost6system6detail30generic_error_category_messageEiPcm, @function
_ZN5boost6system6detail30generic_error_category_messageEiPcm:
.LFB3732:
	.cfi_startproc
	endbr64
	pushq	%rbp
	.cfi_def_cfa_offset 16
	.cfi_offset 6, -16
	movq	%rsp, %rbp
	.cfi_def_cfa_register 6
	subq	$32, %rsp
	movl	%edi, -4(%rbp)
	movq	%rsi, -16(%rbp)
	movq	%rdx, -24(%rbp)
	movq	-24(%rbp), %rdx
	movq	-16(%rbp), %rcx
	movl	-4(%rbp), %eax
	movq	%rcx, %rsi
	movl	%eax, %edi
	call	strerror_r@PLT
	movq	%rax, %rdx
	movq	-16(%rbp), %rax
	movq	%rax, %rsi
	movq	%rdx, %rdi
	call	_ZN5boost6system6detail17strerror_r_helperEPKcS3_@PLT
	leave
	.cfi_def_cfa 7, 8
	ret
	.cfi_endproc
.LFE3732:
	.size	_ZN5boost6system6detail30generic_error_category_messageEiPcm, .-_ZN5boost6system6detail30generic_error_category_messageEiPcm
	.section	.text._ZN5boost6system6detail30generic_error_category_messageB5cxx11Ei,"axG",@progbits,_ZN5boost6system6detail30generic_error_category_messageB5cxx11Ei,comdat
	.weak	_ZN5boost6system6detail30generic_error_category_messageB5cxx11Ei
	.type	_ZN5boost6system6detail30generic_error_category_messageB5cxx11Ei, @function
_ZN5boost6system6detail30generic_error_category_messageB5cxx11Ei:
.LFB3733:
	.cfi_startproc
	.cfi_personality 0x9b,DW.ref.__gxx_personality_v0
	.cfi_lsda 0x1b,.LLSDA3733
	endbr64
	pushq	%rbp
	.cfi_def_cfa_offset 16
	.cfi_offset 6, -16
	movq	%rsp, %rbp
	.cfi_def_cfa_register 6
	pushq	%rbx
	subq	$184, %rsp
	.cfi_offset 3, -24
	movq	%rdi, -184(%rbp)
	movl	%esi, -188(%rbp)
	movq	%fs:40, %rax
	movq	%rax, -24(%rbp)
	xorl	%eax, %eax
	leaq	-161(%rbp), %rax
	movq	%rax, %rdi
	call	_ZNSaIcEC1Ev@PLT
	leaq	-160(%rbp), %rcx
	movl	-188(%rbp), %eax
	movl	$128, %edx
	movq	%rcx, %rsi
	movl	%eax, %edi
	call	_ZN5boost6system6detail30generic_error_category_messageEiPcm@PLT
	movq	%rax, %rcx
	leaq	-161(%rbp), %rdx
	movq	-184(%rbp), %rax
	movq	%rcx, %rsi
	movq	%rax, %rdi
.LEHB0:
	call	_ZNSt7__cxx1112basic_stringIcSt11char_traitsIcESaIcEEC1IS3_EEPKcRKS3_@PLT
.LEHE0:
	leaq	-161(%rbp), %rax
	movq	%rax, %rdi
	call	_ZNSaIcED1Ev@PLT
	movq	-24(%rbp), %rax
	xorq	%fs:40, %rax
	je	.L64
	jmp	.L66
.L65:
	endbr64
	movq	%rax, %rbx
	leaq	-161(%rbp), %rax
	movq	%rax, %rdi
	call	_ZNSaIcED1Ev@PLT
	movq	%rbx, %rax
	movq	%rax, %rdi
.LEHB1:
	call	_Unwind_Resume@PLT
.LEHE1:
.L66:
	call	__stack_chk_fail@PLT
.L64:
	movq	-184(%rbp), %rax
	addq	$184, %rsp
	popq	%rbx
	popq	%rbp
	.cfi_def_cfa 7, 8
	ret
	.cfi_endproc
.LFE3733:
	.section	.gcc_except_table._ZN5boost6system6detail30generic_error_category_messageB5cxx11Ei,"aG",@progbits,_ZN5boost6system6detail30generic_error_category_messageB5cxx11Ei,comdat
.LLSDA3733:
	.byte	0xff
	.byte	0xff
	.byte	0x1
	.uleb128 .LLSDACSE3733-.LLSDACSB3733
.LLSDACSB3733:
	.uleb128 .LEHB0-.LFB3733
	.uleb128 .LEHE0-.LEHB0
	.uleb128 .L65-.LFB3733
	.uleb128 0
	.uleb128 .LEHB1-.LFB3733
	.uleb128 .LEHE1-.LEHB1
	.uleb128 0
	.uleb128 0
.LLSDACSE3733:
	.section	.text._ZN5boost6system6detail30generic_error_category_messageB5cxx11Ei,"axG",@progbits,_ZN5boost6system6detail30generic_error_category_messageB5cxx11Ei,comdat
	.size	_ZN5boost6system6detail30generic_error_category_messageB5cxx11Ei, .-_ZN5boost6system6detail30generic_error_category_messageB5cxx11Ei
	.section	.rodata
.LC0:
	.string	"generic"
	.section	.text._ZNK5boost6system6detail22generic_error_category4nameEv,"axG",@progbits,_ZNK5boost6system6detail22generic_error_category4nameEv,comdat
	.align 2
	.weak	_ZNK5boost6system6detail22generic_error_category4nameEv
	.type	_ZNK5boost6system6detail22generic_error_category4nameEv, @function
_ZNK5boost6system6detail22generic_error_category4nameEv:
.LFB3737:
	.cfi_startproc
	endbr64
	pushq	%rbp
	.cfi_def_cfa_offset 16
	.cfi_offset 6, -16
	movq	%rsp, %rbp
	.cfi_def_cfa_register 6
	movq	%rdi, -8(%rbp)
	leaq	.LC0(%rip), %rax
	popq	%rbp
	.cfi_def_cfa 7, 8
	ret
	.cfi_endproc
.LFE3737:
	.size	_ZNK5boost6system6detail22generic_error_category4nameEv, .-_ZNK5boost6system6detail22generic_error_category4nameEv
	.section	.text._ZNK5boost6system6detail22generic_error_category7messageEiPcm,"axG",@progbits,_ZNK5boost6system6detail22generic_error_category7messageEiPcm,comdat
	.align 2
	.weak	_ZNK5boost6system6detail22generic_error_category7messageEiPcm
	.type	_ZNK5boost6system6detail22generic_error_category7messageEiPcm, @function
_ZNK5boost6system6detail22generic_error_category7messageEiPcm:
.LFB3738:
	.cfi_startproc
	endbr64
	pushq	%rbp
	.cfi_def_cfa_offset 16
	.cfi_offset 6, -16
	movq	%rsp, %rbp
	.cfi_def_cfa_register 6
	subq	$32, %rsp
	movq	%rdi, -8(%rbp)
	movl	%esi, -12(%rbp)
	movq	%rdx, -24(%rbp)
	movq	%rcx, -32(%rbp)
	movq	-32(%rbp), %rdx
	movq	-24(%rbp), %rcx
	movl	-12(%rbp), %eax
	movq	%rcx, %rsi
	movl	%eax, %edi
	call	_ZN5boost6system6detail30generic_error_category_messageEiPcm@PLT
	leave
	.cfi_def_cfa 7, 8
	ret
	.cfi_endproc
.LFE3738:
	.size	_ZNK5boost6system6detail22generic_error_category7messageEiPcm, .-_ZNK5boost6system6detail22generic_error_category7messageEiPcm
	.section	.text._ZNK5boost6system6detail22generic_error_category7messageB5cxx11Ei,"axG",@progbits,_ZNK5boost6system6detail22generic_error_category7messageB5cxx11Ei,comdat
	.align 2
	.weak	_ZNK5boost6system6detail22generic_error_category7messageB5cxx11Ei
	.type	_ZNK5boost6system6detail22generic_error_category7messageB5cxx11Ei, @function
_ZNK5boost6system6detail22generic_error_category7messageB5cxx11Ei:
.LFB3739:
	.cfi_startproc
	endbr64
	pushq	%rbp
	.cfi_def_cfa_offset 16
	.cfi_offset 6, -16
	movq	%rsp, %rbp
	.cfi_def_cfa_register 6
	subq	$48, %rsp
	movq	%rdi, -24(%rbp)
	movq	%rsi, -32(%rbp)
	movl	%edx, -36(%rbp)
	movq	%fs:40, %rax
	movq	%rax, -8(%rbp)
	xorl	%eax, %eax
	movq	-24(%rbp), %rax
	movl	-36(%rbp), %edx
	movl	%edx, %esi
	movq	%rax, %rdi
	call	_ZN5boost6system6detail30generic_error_category_messageB5cxx11Ei@PLT
	movq	-8(%rbp), %rax
	xorq	%fs:40, %rax
	je	.L73
	call	__stack_chk_fail@PLT
.L73:
	movq	-24(%rbp), %rax
	leave
	.cfi_def_cfa 7, 8
	ret
	.cfi_endproc
.LFE3739:
	.size	_ZNK5boost6system6detail22generic_error_category7messageB5cxx11Ei, .-_ZNK5boost6system6detail22generic_error_category7messageB5cxx11Ei
	.section	.text._ZN5boost6system6detail8snprintfEPcmPKcz,"axG",@progbits,_ZN5boost6system6detail8snprintfEPcmPKcz,comdat
	.weak	_ZN5boost6system6detail8snprintfEPcmPKcz
	.type	_ZN5boost6system6detail8snprintfEPcmPKcz, @function
_ZN5boost6system6detail8snprintfEPcmPKcz:
.LFB3741:
	.cfi_startproc
	endbr64
	pushq	%rbp
	.cfi_def_cfa_offset 16
	.cfi_offset 6, -16
	movq	%rsp, %rbp
	.cfi_def_cfa_register 6
	subq	$240, %rsp
	movq	%rdi, -216(%rbp)
	movq	%rsi, -224(%rbp)
	movq	%rdx, -232(%rbp)
	movq	%rcx, -152(%rbp)
	movq	%r8, -144(%rbp)
	movq	%r9, -136(%rbp)
	testb	%al, %al
	je	.L75
	movaps	%xmm0, -128(%rbp)
	movaps	%xmm1, -112(%rbp)
	movaps	%xmm2, -96(%rbp)
	movaps	%xmm3, -80(%rbp)
	movaps	%xmm4, -64(%rbp)
	movaps	%xmm5, -48(%rbp)
	movaps	%xmm6, -32(%rbp)
	movaps	%xmm7, -16(%rbp)
.L75:
	movq	%fs:40, %rax
	movq	%rax, -184(%rbp)
	xorl	%eax, %eax
	movl	$24, -208(%rbp)
	movl	$48, -204(%rbp)
	leaq	16(%rbp), %rax
	movq	%rax, -200(%rbp)
	leaq	-176(%rbp), %rax
	movq	%rax, -192(%rbp)
	leaq	-208(%rbp), %rcx
	movq	-232(%rbp), %rdx
	movq	-224(%rbp), %rsi
	movq	-216(%rbp), %rax
	movq	%rax, %rdi
	call	vsnprintf@PLT
	nop
	movq	-184(%rbp), %rax
	xorq	%fs:40, %rax
	je	.L76
	call	__stack_chk_fail@PLT
.L76:
	leave
	.cfi_def_cfa 7, 8
	ret
	.cfi_endproc
.LFE3741:
	.size	_ZN5boost6system6detail8snprintfEPcmPKcz, .-_ZN5boost6system6detail8snprintfEPcmPKcz
	.section	.text._ZN5boost6system6detail17generic_value_tagC2Ei,"axG",@progbits,_ZN5boost6system6detail17generic_value_tagC5Ei,comdat
	.align 2
	.weak	_ZN5boost6system6detail17generic_value_tagC2Ei
	.type	_ZN5boost6system6detail17generic_value_tagC2Ei, @function
_ZN5boost6system6detail17generic_value_tagC2Ei:
.LFB3744:
	.cfi_startproc
	endbr64
	pushq	%rbp
	.cfi_def_cfa_offset 16
	.cfi_offset 6, -16
	movq	%rsp, %rbp
	.cfi_def_cfa_register 6
	movq	%rdi, -8(%rbp)
	movl	%esi, -12(%rbp)
	movq	-8(%rbp), %rax
	movl	-12(%rbp), %edx
	movl	%edx, (%rax)
	nop
	popq	%rbp
	.cfi_def_cfa 7, 8
	ret
	.cfi_endproc
.LFE3744:
	.size	_ZN5boost6system6detail17generic_value_tagC2Ei, .-_ZN5boost6system6detail17generic_value_tagC2Ei
	.weak	_ZN5boost6system6detail17generic_value_tagC1Ei
	.set	_ZN5boost6system6detail17generic_value_tagC1Ei,_ZN5boost6system6detail17generic_value_tagC2Ei
	.section	.text._ZNK5boost6system15error_condition6cat_idEv,"axG",@progbits,_ZNK5boost6system15error_condition6cat_idEv,comdat
	.align 2
	.weak	_ZNK5boost6system15error_condition6cat_idEv
	.type	_ZNK5boost6system15error_condition6cat_idEv, @function
_ZNK5boost6system15error_condition6cat_idEv:
.LFB3746:
	.cfi_startproc
	endbr64
	pushq	%rbp
	.cfi_def_cfa_offset 16
	.cfi_offset 6, -16
	movq	%rsp, %rbp
	.cfi_def_cfa_register 6
	movq	%rdi, -8(%rbp)
	movq	-8(%rbp), %rax
	movq	8(%rax), %rax
	testq	%rax, %rax
	je	.L79
	movq	-8(%rbp), %rax
	movq	8(%rax), %rax
	movq	8(%rax), %rax
	jmp	.L81
.L79:
	movabsq	$-5572340897628102704, %rax
.L81:
	popq	%rbp
	.cfi_def_cfa 7, 8
	ret
	.cfi_endproc
.LFE3746:
	.size	_ZNK5boost6system15error_condition6cat_idEv, .-_ZNK5boost6system15error_condition6cat_idEv
	.section	.text._ZN5boost6system15error_conditionC2EiRKNS0_14error_categoryE,"axG",@progbits,_ZN5boost6system15error_conditionC5EiRKNS0_14error_categoryE,comdat
	.align 2
	.weak	_ZN5boost6system15error_conditionC2EiRKNS0_14error_categoryE
	.type	_ZN5boost6system15error_conditionC2EiRKNS0_14error_categoryE, @function
_ZN5boost6system15error_conditionC2EiRKNS0_14error_categoryE:
.LFB3751:
	.cfi_startproc
	endbr64
	pushq	%rbp
	.cfi_def_cfa_offset 16
	.cfi_offset 6, -16
	movq	%rsp, %rbp
	.cfi_def_cfa_register 6
	movq	%rdi, -8(%rbp)
	movl	%esi, -12(%rbp)
	movq	%rdx, -24(%rbp)
	movq	-8(%rbp), %rax
	movl	-12(%rbp), %edx
	movl	%edx, (%rax)
	movq	-8(%rbp), %rax
	movq	-24(%rbp), %rdx
	movq	%rdx, 8(%rax)
	nop
	popq	%rbp
	.cfi_def_cfa 7, 8
	ret
	.cfi_endproc
.LFE3751:
	.size	_ZN5boost6system15error_conditionC2EiRKNS0_14error_categoryE, .-_ZN5boost6system15error_conditionC2EiRKNS0_14error_categoryE
	.weak	_ZN5boost6system15error_conditionC1EiRKNS0_14error_categoryE
	.set	_ZN5boost6system15error_conditionC1EiRKNS0_14error_categoryE,_ZN5boost6system15error_conditionC2EiRKNS0_14error_categoryE
	.section	.text._ZN5boost6system15error_conditionC2ENS0_6detail17generic_value_tagE,"axG",@progbits,_ZN5boost6system15error_conditionC5ENS0_6detail17generic_value_tagE,comdat
	.align 2
	.weak	_ZN5boost6system15error_conditionC2ENS0_6detail17generic_value_tagE
	.type	_ZN5boost6system15error_conditionC2ENS0_6detail17generic_value_tagE, @function
_ZN5boost6system15error_conditionC2ENS0_6detail17generic_value_tagE:
.LFB3754:
	.cfi_startproc
	endbr64
	pushq	%rbp
	.cfi_def_cfa_offset 16
	.cfi_offset 6, -16
	movq	%rsp, %rbp
	.cfi_def_cfa_register 6
	movq	%rdi, -8(%rbp)
	movl	%esi, -12(%rbp)
	movl	-12(%rbp), %edx
	movq	-8(%rbp), %rax
	movl	%edx, (%rax)
	movq	-8(%rbp), %rax
	movq	$0, 8(%rax)
	nop
	popq	%rbp
	.cfi_def_cfa 7, 8
	ret
	.cfi_endproc
.LFE3754:
	.size	_ZN5boost6system15error_conditionC2ENS0_6detail17generic_value_tagE, .-_ZN5boost6system15error_conditionC2ENS0_6detail17generic_value_tagE
	.weak	_ZN5boost6system15error_conditionC1ENS0_6detail17generic_value_tagE
	.set	_ZN5boost6system15error_conditionC1ENS0_6detail17generic_value_tagE,_ZN5boost6system15error_conditionC2ENS0_6detail17generic_value_tagE
	.section	.text._ZN5boost6systemeqERKNS0_15error_conditionES3_,"axG",@progbits,_ZN5boost6systemeqERKNS0_15error_conditionES3_,comdat
	.weak	_ZN5boost6systemeqERKNS0_15error_conditionES3_
	.type	_ZN5boost6systemeqERKNS0_15error_conditionES3_, @function
_ZN5boost6systemeqERKNS0_15error_conditionES3_:
.LFB3767:
	.cfi_startproc
	endbr64
	pushq	%rbp
	.cfi_def_cfa_offset 16
	.cfi_offset 6, -16
	movq	%rsp, %rbp
	.cfi_def_cfa_register 6
	subq	$16, %rsp
	movq	%rdi, -8(%rbp)
	movq	%rsi, -16(%rbp)
	movq	-8(%rbp), %rax
	movl	(%rax), %edx
	movq	-16(%rbp), %rax
	movl	(%rax), %eax
	cmpl	%eax, %edx
	je	.L85
	movl	$0, %eax
	jmp	.L86
.L85:
	movq	-8(%rbp), %rax
	movq	8(%rax), %rax
	testq	%rax, %rax
	jne	.L87
	movq	-16(%rbp), %rax
	movq	%rax, %rdi
	call	_ZNK5boost6system15error_condition6cat_idEv@PLT
	movabsq	$-5572340897628102704, %rdx
	cmpq	%rdx, %rax
	sete	%al
	jmp	.L86
.L87:
	movq	-16(%rbp), %rax
	movq	8(%rax), %rax
	testq	%rax, %rax
	jne	.L88
	movq	-8(%rbp), %rax
	movq	%rax, %rdi
	call	_ZNK5boost6system15error_condition6cat_idEv@PLT
	movabsq	$-5572340897628102704, %rdx
	cmpq	%rdx, %rax
	sete	%al
	jmp	.L86
.L88:
	movq	-16(%rbp), %rax
	movq	8(%rax), %rdx
	movq	-8(%rbp), %rax
	movq	8(%rax), %rax
	movq	%rdx, %rsi
	movq	%rax, %rdi
	call	_ZN5boost6systemeqERKNS0_14error_categoryES3_@PLT
	nop
.L86:
	leave
	.cfi_def_cfa 7, 8
	ret
	.cfi_endproc
.LFE3767:
	.size	_ZN5boost6systemeqERKNS0_15error_conditionES3_, .-_ZN5boost6systemeqERKNS0_15error_conditionES3_
	.section	.rodata
.LC1:
	.string	"system"
	.section	.text._ZNK5boost6system6detail21system_error_category4nameEv,"axG",@progbits,_ZNK5boost6system6detail21system_error_category4nameEv,comdat
	.align 2
	.weak	_ZNK5boost6system6detail21system_error_category4nameEv
	.type	_ZNK5boost6system6detail21system_error_category4nameEv, @function
_ZNK5boost6system6detail21system_error_category4nameEv:
.LFB3780:
	.cfi_startproc
	endbr64
	pushq	%rbp
	.cfi_def_cfa_offset 16
	.cfi_offset 6, -16
	movq	%rsp, %rbp
	.cfi_def_cfa_register 6
	movq	%rdi, -8(%rbp)
	leaq	.LC1(%rip), %rax
	popq	%rbp
	.cfi_def_cfa 7, 8
	ret
	.cfi_endproc
.LFE3780:
	.size	_ZNK5boost6system6detail21system_error_category4nameEv, .-_ZNK5boost6system6detail21system_error_category4nameEv
	.section	.text._ZN5boost6system6detail29system_error_category_messageB5cxx11Ei,"axG",@progbits,_ZN5boost6system6detail29system_error_category_messageB5cxx11Ei,comdat
	.weak	_ZN5boost6system6detail29system_error_category_messageB5cxx11Ei
	.type	_ZN5boost6system6detail29system_error_category_messageB5cxx11Ei, @function
_ZN5boost6system6detail29system_error_category_messageB5cxx11Ei:
.LFB3782:
	.cfi_startproc
	endbr64
	pushq	%rbp
	.cfi_def_cfa_offset 16
	.cfi_offset 6, -16
	movq	%rsp, %rbp
	.cfi_def_cfa_register 6
	subq	$32, %rsp
	movq	%rdi, -24(%rbp)
	movl	%esi, -28(%rbp)
	movq	%fs:40, %rax
	movq	%rax, -8(%rbp)
	xorl	%eax, %eax
	movq	-24(%rbp), %rax
	movl	-28(%rbp), %edx
	movl	%edx, %esi
	movq	%rax, %rdi
	call	_ZN5boost6system6detail30generic_error_category_messageB5cxx11Ei@PLT
	movq	-8(%rbp), %rax
	xorq	%fs:40, %rax
	je	.L93
	call	__stack_chk_fail@PLT
.L93:
	movq	-24(%rbp), %rax
	leave
	.cfi_def_cfa 7, 8
	ret
	.cfi_endproc
.LFE3782:
	.size	_ZN5boost6system6detail29system_error_category_messageB5cxx11Ei, .-_ZN5boost6system6detail29system_error_category_messageB5cxx11Ei
	.section	.text._ZN5boost6system6detail29system_error_category_messageEiPcm,"axG",@progbits,_ZN5boost6system6detail29system_error_category_messageEiPcm,comdat
	.weak	_ZN5boost6system6detail29system_error_category_messageEiPcm
	.type	_ZN5boost6system6detail29system_error_category_messageEiPcm, @function
_ZN5boost6system6detail29system_error_category_messageEiPcm:
.LFB3783:
	.cfi_startproc
	endbr64
	pushq	%rbp
	.cfi_def_cfa_offset 16
	.cfi_offset 6, -16
	movq	%rsp, %rbp
	.cfi_def_cfa_register 6
	subq	$32, %rsp
	movl	%edi, -4(%rbp)
	movq	%rsi, -16(%rbp)
	movq	%rdx, -24(%rbp)
	movq	-24(%rbp), %rdx
	movq	-16(%rbp), %rcx
	movl	-4(%rbp), %eax
	movq	%rcx, %rsi
	movl	%eax, %edi
	call	_ZN5boost6system6detail30generic_error_category_messageEiPcm@PLT
	leave
	.cfi_def_cfa 7, 8
	ret
	.cfi_endproc
.LFE3783:
	.size	_ZN5boost6system6detail29system_error_category_messageEiPcm, .-_ZN5boost6system6detail29system_error_category_messageEiPcm
	.section	.text._ZNK5boost6system6detail21system_error_category23default_error_conditionEi,"axG",@progbits,_ZNK5boost6system6detail21system_error_category23default_error_conditionEi,comdat
	.align 2
	.weak	_ZNK5boost6system6detail21system_error_category23default_error_conditionEi
	.type	_ZNK5boost6system6detail21system_error_category23default_error_conditionEi, @function
_ZNK5boost6system6detail21system_error_category23default_error_conditionEi:
.LFB3784:
	.cfi_startproc
	endbr64
	pushq	%rbp
	.cfi_def_cfa_offset 16
	.cfi_offset 6, -16
	movq	%rsp, %rbp
	.cfi_def_cfa_register 6
	pushq	%rbx
	subq	$72, %rsp
	.cfi_offset 3, -24
	movq	%rdi, -72(%rbp)
	movl	%esi, -76(%rbp)
	movq	%fs:40, %rax
	movq	%rax, -24(%rbp)
	xorl	%eax, %eax
	movl	-76(%rbp), %edx
	leaq	-52(%rbp), %rax
	movl	%edx, %esi
	movq	%rax, %rdi
	call	_ZN5boost6system6detail17generic_value_tagC1Ei@PLT
	movl	-52(%rbp), %edx
	leaq	-48(%rbp), %rax
	movl	%edx, %esi
	movq	%rax, %rdi
	call	_ZN5boost6system15error_conditionC1ENS0_6detail17generic_value_tagE@PLT
	movq	-48(%rbp), %rax
	movq	-40(%rbp), %rdx
	movq	%rax, %rcx
	movq	%rdx, %rbx
	movq	-24(%rbp), %rax
	xorq	%fs:40, %rax
	je	.L98
	call	__stack_chk_fail@PLT
.L98:
	movl	%ecx, %eax
	addq	$72, %rsp
	popq	%rbx
	popq	%rbp
	.cfi_def_cfa 7, 8
	ret
	.cfi_endproc
.LFE3784:
	.size	_ZNK5boost6system6detail21system_error_category23default_error_conditionEi, .-_ZNK5boost6system6detail21system_error_category23default_error_conditionEi
	.section	.text._ZNK5boost6system6detail21system_error_category7messageB5cxx11Ei,"axG",@progbits,_ZNK5boost6system6detail21system_error_category7messageB5cxx11Ei,comdat
	.align 2
	.weak	_ZNK5boost6system6detail21system_error_category7messageB5cxx11Ei
	.type	_ZNK5boost6system6detail21system_error_category7messageB5cxx11Ei, @function
_ZNK5boost6system6detail21system_error_category7messageB5cxx11Ei:
.LFB3785:
	.cfi_startproc
	endbr64
	pushq	%rbp
	.cfi_def_cfa_offset 16
	.cfi_offset 6, -16
	movq	%rsp, %rbp
	.cfi_def_cfa_register 6
	subq	$48, %rsp
	movq	%rdi, -24(%rbp)
	movq	%rsi, -32(%rbp)
	movl	%edx, -36(%rbp)
	movq	%fs:40, %rax
	movq	%rax, -8(%rbp)
	xorl	%eax, %eax
	movq	-24(%rbp), %rax
	movl	-36(%rbp), %edx
	movl	%edx, %esi
	movq	%rax, %rdi
	call	_ZN5boost6system6detail29system_error_category_messageB5cxx11Ei@PLT
	movq	-8(%rbp), %rax
	xorq	%fs:40, %rax
	je	.L101
	call	__stack_chk_fail@PLT
.L101:
	movq	-24(%rbp), %rax
	leave
	.cfi_def_cfa 7, 8
	ret
	.cfi_endproc
.LFE3785:
	.size	_ZNK5boost6system6detail21system_error_category7messageB5cxx11Ei, .-_ZNK5boost6system6detail21system_error_category7messageB5cxx11Ei
	.section	.text._ZNK5boost6system6detail21system_error_category7messageEiPcm,"axG",@progbits,_ZNK5boost6system6detail21system_error_category7messageEiPcm,comdat
	.align 2
	.weak	_ZNK5boost6system6detail21system_error_category7messageEiPcm
	.type	_ZNK5boost6system6detail21system_error_category7messageEiPcm, @function
_ZNK5boost6system6detail21system_error_category7messageEiPcm:
.LFB3786:
	.cfi_startproc
	endbr64
	pushq	%rbp
	.cfi_def_cfa_offset 16
	.cfi_offset 6, -16
	movq	%rsp, %rbp
	.cfi_def_cfa_register 6
	subq	$32, %rsp
	movq	%rdi, -8(%rbp)
	movl	%esi, -12(%rbp)
	movq	%rdx, -24(%rbp)
	movq	%rcx, -32(%rbp)
	movq	-32(%rbp), %rdx
	movq	-24(%rbp), %rcx
	movl	-12(%rbp), %eax
	movq	%rcx, %rsi
	movl	%eax, %edi
	call	_ZN5boost6system6detail29system_error_category_messageEiPcm@PLT
	leave
	.cfi_def_cfa 7, 8
	ret
	.cfi_endproc
.LFE3786:
	.size	_ZNK5boost6system6detail21system_error_category7messageEiPcm, .-_ZNK5boost6system6detail21system_error_category7messageEiPcm
	.section	.rodata
.LC2:
	.string	"std:unknown"
	.section	.text._ZNK5boost6system6detail22interop_error_category4nameEv,"axG",@progbits,_ZNK5boost6system6detail22interop_error_category4nameEv,comdat
	.align 2
	.weak	_ZNK5boost6system6detail22interop_error_category4nameEv
	.type	_ZNK5boost6system6detail22interop_error_category4nameEv, @function
_ZNK5boost6system6detail22interop_error_category4nameEv:
.LFB3790:
	.cfi_startproc
	endbr64
	pushq	%rbp
	.cfi_def_cfa_offset 16
	.cfi_offset 6, -16
	movq	%rsp, %rbp
	.cfi_def_cfa_register 6
	movq	%rdi, -8(%rbp)
	leaq	.LC2(%rip), %rax
	popq	%rbp
	.cfi_def_cfa 7, 8
	ret
	.cfi_endproc
.LFE3790:
	.size	_ZNK5boost6system6detail22interop_error_category4nameEv, .-_ZNK5boost6system6detail22interop_error_category4nameEv
	.section	.rodata
.LC3:
	.string	"Unknown interop error %d"
	.section	.text._ZNK5boost6system6detail22interop_error_category7messageEiPcm,"axG",@progbits,_ZNK5boost6system6detail22interop_error_category7messageEiPcm,comdat
	.align 2
	.weak	_ZNK5boost6system6detail22interop_error_category7messageEiPcm
	.type	_ZNK5boost6system6detail22interop_error_category7messageEiPcm, @function
_ZNK5boost6system6detail22interop_error_category7messageEiPcm:
.LFB3791:
	.cfi_startproc
	endbr64
	pushq	%rbp
	.cfi_def_cfa_offset 16
	.cfi_offset 6, -16
	movq	%rsp, %rbp
	.cfi_def_cfa_register 6
	subq	$32, %rsp
	movq	%rdi, -8(%rbp)
	movl	%esi, -12(%rbp)
	movq	%rdx, -24(%rbp)
	movq	%rcx, -32(%rbp)
	movl	-12(%rbp), %edx
	movq	-32(%rbp), %rsi
	movq	-24(%rbp), %rax
	movl	%edx, %ecx
	leaq	.LC3(%rip), %rdx
	movq	%rax, %rdi
	movl	$0, %eax
	call	_ZN5boost6system6detail8snprintfEPcmPKcz@PLT
	movq	-24(%rbp), %rax
	leave
	.cfi_def_cfa 7, 8
	ret
	.cfi_endproc
.LFE3791:
	.size	_ZNK5boost6system6detail22interop_error_category7messageEiPcm, .-_ZNK5boost6system6detail22interop_error_category7messageEiPcm
	.section	.text._ZNK5boost6system6detail22interop_error_category7messageB5cxx11Ei,"axG",@progbits,_ZNK5boost6system6detail22interop_error_category7messageB5cxx11Ei,comdat
	.align 2
	.weak	_ZNK5boost6system6detail22interop_error_category7messageB5cxx11Ei
	.type	_ZNK5boost6system6detail22interop_error_category7messageB5cxx11Ei, @function
_ZNK5boost6system6detail22interop_error_category7messageB5cxx11Ei:
.LFB3792:
	.cfi_startproc
	.cfi_personality 0x9b,DW.ref.__gxx_personality_v0
	.cfi_lsda 0x1b,.LLSDA3792
	endbr64
	pushq	%rbp
	.cfi_def_cfa_offset 16
	.cfi_offset 6, -16
	movq	%rsp, %rbp
	.cfi_def_cfa_register 6
	pushq	%rbx
	subq	$120, %rsp
	.cfi_offset 3, -24
	movq	%rdi, -104(%rbp)
	movq	%rsi, -112(%rbp)
	movl	%edx, -116(%rbp)
	movq	%fs:40, %rax
	movq	%rax, -24(%rbp)
	xorl	%eax, %eax
	leaq	-81(%rbp), %rax
	movq	%rax, %rdi
	call	_ZNSaIcEC1Ev@PLT
	movq	-112(%rbp), %rax
	movq	(%rax), %rax
	addq	$40, %rax
	movq	(%rax), %r8
	leaq	-80(%rbp), %rdx
	movl	-116(%rbp), %esi
	movq	-112(%rbp), %rax
	movl	$48, %ecx
	movq	%rax, %rdi
	call	*%r8
	movq	%rax, %rcx
	leaq	-81(%rbp), %rdx
	movq	-104(%rbp), %rax
	movq	%rcx, %rsi
	movq	%rax, %rdi
.LEHB2:
	call	_ZNSt7__cxx1112basic_stringIcSt11char_traitsIcESaIcEEC1IS3_EEPKcRKS3_@PLT
.LEHE2:
	leaq	-81(%rbp), %rax
	movq	%rax, %rdi
	call	_ZNSaIcED1Ev@PLT
	movq	-24(%rbp), %rax
	xorq	%fs:40, %rax
	je	.L111
	jmp	.L113
.L112:
	endbr64
	movq	%rax, %rbx
	leaq	-81(%rbp), %rax
	movq	%rax, %rdi
	call	_ZNSaIcED1Ev@PLT
	movq	%rbx, %rax
	movq	%rax, %rdi
.LEHB3:
	call	_Unwind_Resume@PLT
.LEHE3:
.L113:
	call	__stack_chk_fail@PLT
.L111:
	movq	-104(%rbp), %rax
	addq	$120, %rsp
	popq	%rbx
	popq	%rbp
	.cfi_def_cfa 7, 8
	ret
	.cfi_endproc
.LFE3792:
	.section	.gcc_except_table._ZNK5boost6system6detail22interop_error_category7messageB5cxx11Ei,"aG",@progbits,_ZNK5boost6system6detail22interop_error_category7messageB5cxx11Ei,comdat
.LLSDA3792:
	.byte	0xff
	.byte	0xff
	.byte	0x1
	.uleb128 .LLSDACSE3792-.LLSDACSB3792
.LLSDACSB3792:
	.uleb128 .LEHB2-.LFB3792
	.uleb128 .LEHE2-.LEHB2
	.uleb128 .L112-.LFB3792
	.uleb128 0
	.uleb128 .LEHB3-.LFB3792
	.uleb128 .LEHE3-.LEHB3
	.uleb128 0
	.uleb128 0
.LLSDACSE3792:
	.section	.text._ZNK5boost6system6detail22interop_error_category7messageB5cxx11Ei,"axG",@progbits,_ZNK5boost6system6detail22interop_error_category7messageB5cxx11Ei,comdat
	.size	_ZNK5boost6system6detail22interop_error_category7messageB5cxx11Ei, .-_ZNK5boost6system6detail22interop_error_category7messageB5cxx11Ei
	.section	.text._ZStorSt13_Ios_OpenmodeS_,"axG",@progbits,_ZStorSt13_Ios_OpenmodeS_,comdat
	.weak	_ZStorSt13_Ios_OpenmodeS_
	.type	_ZStorSt13_Ios_OpenmodeS_, @function
_ZStorSt13_Ios_OpenmodeS_:
.LFB3866:
	.cfi_startproc
	endbr64
	pushq	%rbp
	.cfi_def_cfa_offset 16
	.cfi_offset 6, -16
	movq	%rsp, %rbp
	.cfi_def_cfa_register 6
	movl	%edi, -4(%rbp)
	movl	%esi, -8(%rbp)
	movl	-4(%rbp), %eax
	orl	-8(%rbp), %eax
	popq	%rbp
	.cfi_def_cfa 7, 8
	ret
	.cfi_endproc
.LFE3866:
	.size	_ZStorSt13_Ios_OpenmodeS_, .-_ZStorSt13_Ios_OpenmodeS_
	.section	.text._ZNK5boost6system10error_code5valueEv,"axG",@progbits,_ZNK5boost6system10error_code5valueEv,comdat
	.align 2
	.weak	_ZNK5boost6system10error_code5valueEv
	.type	_ZNK5boost6system10error_code5valueEv, @function
_ZNK5boost6system10error_code5valueEv:
.LFB4227:
	.cfi_startproc
	endbr64
	pushq	%rbp
	.cfi_def_cfa_offset 16
	.cfi_offset 6, -16
	movq	%rsp, %rbp
	.cfi_def_cfa_register 6
	subq	$32, %rsp
	movq	%rdi, -24(%rbp)
	movq	-24(%rbp), %rax
	movq	16(%rax), %rax
	cmpq	$1, %rax
	je	.L117
	movq	-24(%rbp), %rax
	movl	(%rax), %eax
	jmp	.L118
.L117:
	movq	-24(%rbp), %rax
	movq	%rax, -8(%rbp)
	movq	-8(%rbp), %rax
	movq	%rax, %rdi
	call	_ZNKSt10error_code5valueEv@PLT
	movl	%eax, -16(%rbp)
	movq	-8(%rbp), %rax
	movq	%rax, %rdi
	call	_ZNKSt10error_code8categoryEv@PLT
	movq	%rax, %rcx
	movabsq	$79165176939955, %rdx
	movq	%rcx, %rax
	mulq	%rdx
	movq	%rcx, %rax
	subq	%rdx, %rax
	shrq	%rax
	addq	%rdx, %rax
	shrq	$20, %rax
	imulq	$2097143, %rax, %rax
	subq	%rax, %rcx
	movq	%rcx, %rax
	movl	%eax, -12(%rbp)
	movl	-12(%rbp), %eax
	imull	$1000, %eax, %edx
	movl	-16(%rbp), %eax
	addl	%edx, %eax
.L118:
	leave
	.cfi_def_cfa 7, 8
	ret
	.cfi_endproc
.LFE4227:
	.size	_ZNK5boost6system10error_code5valueEv, .-_ZNK5boost6system10error_code5valueEv
	.section	.text._ZNK5boost6system10error_code6equalsEiRKNS0_14error_categoryE,"axG",@progbits,_ZNK5boost6system10error_code6equalsEiRKNS0_14error_categoryE,comdat
	.align 2
	.weak	_ZNK5boost6system10error_code6equalsEiRKNS0_14error_categoryE
	.type	_ZNK5boost6system10error_code6equalsEiRKNS0_14error_categoryE, @function
_ZNK5boost6system10error_code6equalsEiRKNS0_14error_categoryE:
.LFB4236:
	.cfi_startproc
	endbr64
	pushq	%rbp
	.cfi_def_cfa_offset 16
	.cfi_offset 6, -16
	movq	%rsp, %rbp
	.cfi_def_cfa_register 6
	subq	$32, %rsp
	movq	%rdi, -8(%rbp)
	movl	%esi, -12(%rbp)
	movq	%rdx, -24(%rbp)
	movq	-8(%rbp), %rax
	movq	16(%rax), %rax
	testq	%rax, %rax
	jne	.L120
	cmpl	$0, -12(%rbp)
	jne	.L121
	movq	-24(%rbp), %rax
	movq	8(%rax), %rax
	movabsq	$-5572340897628102703, %rdx
	cmpq	%rdx, %rax
	jne	.L121
	movl	$1, %eax
	jmp	.L123
.L121:
	movl	$0, %eax
	jmp	.L123
.L120:
	movq	-8(%rbp), %rax
	movq	16(%rax), %rax
	cmpq	$1, %rax
	jne	.L124
	movq	-24(%rbp), %rax
	movq	8(%rax), %rax
	movabsq	$-5572340897628102702, %rdx
	cmpq	%rdx, %rax
	jne	.L125
	movq	-8(%rbp), %rax
	movq	%rax, %rdi
	call	_ZNK5boost6system10error_code5valueEv@PLT
	cmpl	%eax, -12(%rbp)
	jne	.L125
	movl	$1, %eax
	jmp	.L123
.L125:
	movl	$0, %eax
	jmp	.L123
.L124:
	movq	-8(%rbp), %rax
	movl	(%rax), %eax
	cmpl	%eax, -12(%rbp)
	jne	.L127
	movq	-8(%rbp), %rax
	movq	8(%rax), %rdx
	movq	-24(%rbp), %rax
	movq	%rdx, %rsi
	movq	%rax, %rdi
	call	_ZN5boost6systemeqERKNS0_14error_categoryES3_@PLT
	testb	%al, %al
	je	.L127
	movl	$1, %eax
	jmp	.L129
.L127:
	movl	$0, %eax
.L129:
	nop
.L123:
	leave
	.cfi_def_cfa 7, 8
	ret
	.cfi_endproc
.LFE4236:
	.size	_ZNK5boost6system10error_code6equalsEiRKNS0_14error_categoryE, .-_ZNK5boost6system10error_code6equalsEiRKNS0_14error_categoryE
	.section	.text._ZNK5boost6system14error_category23default_error_conditionEi,"axG",@progbits,_ZNK5boost6system14error_category23default_error_conditionEi,comdat
	.align 2
	.weak	_ZNK5boost6system14error_category23default_error_conditionEi
	.type	_ZNK5boost6system14error_category23default_error_conditionEi, @function
_ZNK5boost6system14error_category23default_error_conditionEi:
.LFB4263:
	.cfi_startproc
	endbr64
	pushq	%rbp
	.cfi_def_cfa_offset 16
	.cfi_offset 6, -16
	movq	%rsp, %rbp
	.cfi_def_cfa_register 6
	pushq	%rbx
	subq	$56, %rsp
	.cfi_offset 3, -24
	movq	%rdi, -56(%rbp)
	movl	%esi, -60(%rbp)
	movq	%fs:40, %rax
	movq	%rax, -24(%rbp)
	xorl	%eax, %eax
	movq	-56(%rbp), %rdx
	movl	-60(%rbp), %ecx
	leaq	-48(%rbp), %rax
	movl	%ecx, %esi
	movq	%rax, %rdi
	call	_ZN5boost6system15error_conditionC1EiRKNS0_14error_categoryE@PLT
	movq	-48(%rbp), %rax
	movq	-40(%rbp), %rdx
	movq	%rax, %rcx
	movq	%rdx, %rbx
	movq	-24(%rbp), %rax
	xorq	%fs:40, %rax
	je	.L132
	call	__stack_chk_fail@PLT
.L132:
	movl	%ecx, %eax
	addq	$56, %rsp
	popq	%rbx
	popq	%rbp
	.cfi_def_cfa 7, 8
	ret
	.cfi_endproc
.LFE4263:
	.size	_ZNK5boost6system14error_category23default_error_conditionEi, .-_ZNK5boost6system14error_category23default_error_conditionEi
	.section	.text._ZNK5boost6system14error_category10equivalentEiRKNS0_15error_conditionE,"axG",@progbits,_ZNK5boost6system14error_category10equivalentEiRKNS0_15error_conditionE,comdat
	.align 2
	.weak	_ZNK5boost6system14error_category10equivalentEiRKNS0_15error_conditionE
	.type	_ZNK5boost6system14error_category10equivalentEiRKNS0_15error_conditionE, @function
_ZNK5boost6system14error_category10equivalentEiRKNS0_15error_conditionE:
.LFB4264:
	.cfi_startproc
	endbr64
	pushq	%rbp
	.cfi_def_cfa_offset 16
	.cfi_offset 6, -16
	movq	%rsp, %rbp
	.cfi_def_cfa_register 6
	subq	$64, %rsp
	movq	%rdi, -40(%rbp)
	movl	%esi, -44(%rbp)
	movq	%rdx, -56(%rbp)
	movq	%fs:40, %rax
	movq	%rax, -8(%rbp)
	xorl	%eax, %eax
	movq	-40(%rbp), %rax
	movq	(%rax), %rax
	addq	$8, %rax
	movq	(%rax), %rcx
	movl	-44(%rbp), %edx
	movq	-40(%rbp), %rax
	movl	%edx, %esi
	movq	%rax, %rdi
	call	*%rcx
	movl	%eax, %ecx
	movq	%rdx, %rax
	movl	%ecx, -32(%rbp)
	movq	%rax, -24(%rbp)
	movq	-56(%rbp), %rdx
	leaq	-32(%rbp), %rax
	movq	%rdx, %rsi
	movq	%rax, %rdi
	call	_ZN5boost6systemeqERKNS0_15error_conditionES3_@PLT
	movq	-8(%rbp), %rsi
	xorq	%fs:40, %rsi
	je	.L135
	call	__stack_chk_fail@PLT
.L135:
	leave
	.cfi_def_cfa 7, 8
	ret
	.cfi_endproc
.LFE4264:
	.size	_ZNK5boost6system14error_category10equivalentEiRKNS0_15error_conditionE, .-_ZNK5boost6system14error_category10equivalentEiRKNS0_15error_conditionE
	.section	.text._ZNK5boost6system14error_category10equivalentERKNS0_10error_codeEi,"axG",@progbits,_ZNK5boost6system14error_category10equivalentERKNS0_10error_codeEi,comdat
	.align 2
	.weak	_ZNK5boost6system14error_category10equivalentERKNS0_10error_codeEi
	.type	_ZNK5boost6system14error_category10equivalentERKNS0_10error_codeEi, @function
_ZNK5boost6system14error_category10equivalentERKNS0_10error_codeEi:
.LFB4265:
	.cfi_startproc
	endbr64
	pushq	%rbp
	.cfi_def_cfa_offset 16
	.cfi_offset 6, -16
	movq	%rsp, %rbp
	.cfi_def_cfa_register 6
	subq	$32, %rsp
	movq	%rdi, -8(%rbp)
	movq	%rsi, -16(%rbp)
	movl	%edx, -20(%rbp)
	movq	-8(%rbp), %rdx
	movl	-20(%rbp), %ecx
	movq	-16(%rbp), %rax
	movl	%ecx, %esi
	movq	%rax, %rdi
	call	_ZNK5boost6system10error_code6equalsEiRKNS0_14error_categoryE@PLT
	leave
	.cfi_def_cfa 7, 8
	ret
	.cfi_endproc
.LFE4265:
	.size	_ZNK5boost6system14error_category10equivalentERKNS0_10error_codeEi, .-_ZNK5boost6system14error_category10equivalentERKNS0_10error_codeEi
	.section	.rodata
	.align 8
.LC4:
	.string	"No message text available for error %d"
	.section	.text._ZNK5boost6system14error_category7messageEiPcm,"axG",@progbits,_ZNK5boost6system14error_category7messageEiPcm,comdat
	.align 2
	.weak	_ZNK5boost6system14error_category7messageEiPcm
	.type	_ZNK5boost6system14error_category7messageEiPcm, @function
_ZNK5boost6system14error_category7messageEiPcm:
.LFB4266:
	.cfi_startproc
	.cfi_personality 0x9b,DW.ref.__gxx_personality_v0
	.cfi_lsda 0x1b,.LLSDA4266
	endbr64
	pushq	%rbp
	.cfi_def_cfa_offset 16
	.cfi_offset 6, -16
	movq	%rsp, %rbp
	.cfi_def_cfa_register 6
	pushq	%rbx
	subq	$88, %rsp
	.cfi_offset 3, -24
	movq	%rdi, -72(%rbp)
	movl	%esi, -76(%rbp)
	movq	%rdx, -88(%rbp)
	movq	%rcx, -96(%rbp)
	movq	%fs:40, %rax
	movq	%rax, -24(%rbp)
	xorl	%eax, %eax
	cmpq	$0, -96(%rbp)
	jne	.L139
	movq	-88(%rbp), %rbx
	jmp	.L140
.L139:
	cmpq	$1, -96(%rbp)
	jne	.L141
	movq	-88(%rbp), %rax
	movb	$0, (%rax)
	movq	-88(%rbp), %rbx
	jmp	.L140
.L141:
	movq	-72(%rbp), %rax
	movq	(%rax), %rax
	addq	$32, %rax
	movq	(%rax), %r8
	leaq	-64(%rbp), %rax
	movl	-76(%rbp), %edx
	movq	-72(%rbp), %rcx
	movq	%rcx, %rsi
	movq	%rax, %rdi
.LEHB4:
	call	*%r8
.LEHE4:
	movq	-96(%rbp), %rax
	leaq	-1(%rax), %rbx
	leaq	-64(%rbp), %rax
	movq	%rax, %rdi
	call	_ZNKSt7__cxx1112basic_stringIcSt11char_traitsIcESaIcEE5c_strEv@PLT
	movq	%rax, %rcx
	movq	-88(%rbp), %rax
	movq	%rbx, %rdx
	movq	%rcx, %rsi
	movq	%rax, %rdi
	call	strncpy@PLT
	movq	-96(%rbp), %rax
	leaq	-1(%rax), %rdx
	movq	-88(%rbp), %rax
	addq	%rdx, %rax
	movb	$0, (%rax)
	movq	-88(%rbp), %rbx
	leaq	-64(%rbp), %rax
	movq	%rax, %rdi
	call	_ZNSt7__cxx1112basic_stringIcSt11char_traitsIcESaIcEED1Ev@PLT
.L140:
	movq	%rbx, %rax
	movq	-24(%rbp), %rcx
	xorq	%fs:40, %rcx
	je	.L143
	jmp	.L145
.L144:
	endbr64
	movq	%rax, %rdi
	call	__cxa_begin_catch@PLT
	movl	-76(%rbp), %edx
	movq	-96(%rbp), %rsi
	movq	-88(%rbp), %rax
	movl	%edx, %ecx
	leaq	.LC4(%rip), %rdx
	movq	%rax, %rdi
	movl	$0, %eax
	call	_ZN5boost6system6detail8snprintfEPcmPKcz@PLT
	movq	-88(%rbp), %rbx
	call	__cxa_end_catch@PLT
	jmp	.L140
.L145:
	call	__stack_chk_fail@PLT
.L143:
	addq	$88, %rsp
	popq	%rbx
	popq	%rbp
	.cfi_def_cfa 7, 8
	ret
	.cfi_endproc
.LFE4266:
	.section	.gcc_except_table._ZNK5boost6system14error_category7messageEiPcm,"aG",@progbits,_ZNK5boost6system14error_category7messageEiPcm,comdat
	.align 4
.LLSDA4266:
	.byte	0xff
	.byte	0x9b
	.uleb128 .LLSDATT4266-.LLSDATTD4266
.LLSDATTD4266:
	.byte	0x1
	.uleb128 .LLSDACSE4266-.LLSDACSB4266
.LLSDACSB4266:
	.uleb128 .LEHB4-.LFB4266
	.uleb128 .LEHE4-.LEHB4
	.uleb128 .L144-.LFB4266
	.uleb128 0x1
.LLSDACSE4266:
	.byte	0x1
	.byte	0
	.align 4
	.long	0

.LLSDATT4266:
	.section	.text._ZNK5boost6system14error_category7messageEiPcm,"axG",@progbits,_ZNK5boost6system14error_category7messageEiPcm,comdat
	.size	_ZNK5boost6system14error_category7messageEiPcm, .-_ZNK5boost6system14error_category7messageEiPcm
	.section	.rodata
.LC5:
	.string	"invalid argument type"
	.align 8
.LC6:
	.string	"/usr/include/spdlog/fmt/bundled/core.h"
	.section	.text._ZN3fmt2v68internal16is_integral_typeENS1_4typeE,"axG",@progbits,_ZN3fmt2v68internal16is_integral_typeENS1_4typeE,comdat
	.weak	_ZN3fmt2v68internal16is_integral_typeENS1_4typeE
	.type	_ZN3fmt2v68internal16is_integral_typeENS1_4typeE, @function
_ZN3fmt2v68internal16is_integral_typeENS1_4typeE:
.LFB5746:
	.cfi_startproc
	endbr64
	pushq	%rbp
	.cfi_def_cfa_offset 16
	.cfi_offset 6, -16
	movq	%rsp, %rbp
	.cfi_def_cfa_register 6
	subq	$16, %rsp
	movl	%edi, -4(%rbp)
	cmpl	$1, -4(%rbp)
	jne	.L147
	leaq	.LC5(%rip), %rdx
	movl	$736, %esi
	leaq	.LC6(%rip), %rdi
	call	_ZN3fmt2v68internal11assert_failEPKciS3_@PLT
.L147:
	movl	-4(%rbp), %eax
	testl	%eax, %eax
	jle	.L148
	movl	-4(%rbp), %eax
	cmpl	$9, %eax
	jg	.L148
	movl	$1, %eax
	jmp	.L149
.L148:
	movl	$0, %eax
.L149:
	leave
	.cfi_def_cfa 7, 8
	ret
	.cfi_endproc
.LFE5746:
	.size	_ZN3fmt2v68internal16is_integral_typeENS1_4typeE, .-_ZN3fmt2v68internal16is_integral_typeENS1_4typeE
	.section	.text._ZN3fmt2v68internal18is_arithmetic_typeENS1_4typeE,"axG",@progbits,_ZN3fmt2v68internal18is_arithmetic_typeENS1_4typeE,comdat
	.weak	_ZN3fmt2v68internal18is_arithmetic_typeENS1_4typeE
	.type	_ZN3fmt2v68internal18is_arithmetic_typeENS1_4typeE, @function
_ZN3fmt2v68internal18is_arithmetic_typeENS1_4typeE:
.LFB5747:
	.cfi_startproc
	endbr64
	pushq	%rbp
	.cfi_def_cfa_offset 16
	.cfi_offset 6, -16
	movq	%rsp, %rbp
	.cfi_def_cfa_register 6
	subq	$16, %rsp
	movl	%edi, -4(%rbp)
	cmpl	$1, -4(%rbp)
	jne	.L152
	leaq	.LC5(%rip), %rdx
	movl	$741, %esi
	leaq	.LC6(%rip), %rdi
	call	_ZN3fmt2v68internal11assert_failEPKciS3_@PLT
.L152:
	movl	-4(%rbp), %eax
	testl	%eax, %eax
	jle	.L153
	movl	-4(%rbp), %eax
	cmpl	$12, %eax
	jg	.L153
	movl	$1, %eax
	jmp	.L154
.L153:
	movl	$0, %eax
.L154:
	leave
	.cfi_def_cfa 7, 8
	ret
	.cfi_endproc
.LFE5747:
	.size	_ZN3fmt2v68internal18is_arithmetic_typeENS1_4typeE, .-_ZN3fmt2v68internal18is_arithmetic_typeENS1_4typeE
	.section	.text._ZN3fmt2v68internal10locale_refC2Ev,"axG",@progbits,_ZN3fmt2v68internal10locale_refC5Ev,comdat
	.align 2
	.weak	_ZN3fmt2v68internal10locale_refC2Ev
	.type	_ZN3fmt2v68internal10locale_refC2Ev, @function
_ZN3fmt2v68internal10locale_refC2Ev:
.LFB5809:
	.cfi_startproc
	endbr64
	pushq	%rbp
	.cfi_def_cfa_offset 16
	.cfi_offset 6, -16
	movq	%rsp, %rbp
	.cfi_def_cfa_register 6
	movq	%rdi, -8(%rbp)
	movq	-8(%rbp), %rax
	movq	$0, (%rax)
	nop
	popq	%rbp
	.cfi_def_cfa 7, 8
	ret
	.cfi_endproc
.LFE5809:
	.size	_ZN3fmt2v68internal10locale_refC2Ev, .-_ZN3fmt2v68internal10locale_refC2Ev
	.weak	_ZN3fmt2v68internal10locale_refC1Ev
	.set	_ZN3fmt2v68internal10locale_refC1Ev,_ZN3fmt2v68internal10locale_refC2Ev
	.section	.text._ZSt8isfinitef,"axG",@progbits,_ZSt8isfinitef,comdat
	.weak	_ZSt8isfinitef
	.type	_ZSt8isfinitef, @function
_ZSt8isfinitef:
.LFB5933:
	.cfi_startproc
	endbr64
	pushq	%rbp
	.cfi_def_cfa_offset 16
	.cfi_offset 6, -16
	movq	%rsp, %rbp
	.cfi_def_cfa_register 6
	movss	%xmm0, -4(%rbp)
	movss	-4(%rbp), %xmm0
	movss	.LC7(%rip), %xmm1
	andps	%xmm0, %xmm1
	movss	.LC8(%rip), %xmm0
	ucomiss	%xmm1, %xmm0
	setb	%al
	xorl	$1, %eax
	movzbl	%al, %eax
	testl	%eax, %eax
	setne	%al
	popq	%rbp
	.cfi_def_cfa 7, 8
	ret
	.cfi_endproc
.LFE5933:
	.size	_ZSt8isfinitef, .-_ZSt8isfinitef
	.section	.text._ZSt8isfinited,"axG",@progbits,_ZSt8isfinited,comdat
	.weak	_ZSt8isfinited
	.type	_ZSt8isfinited, @function
_ZSt8isfinited:
.LFB5934:
	.cfi_startproc
	endbr64
	pushq	%rbp
	.cfi_def_cfa_offset 16
	.cfi_offset 6, -16
	movq	%rsp, %rbp
	.cfi_def_cfa_register 6
	movsd	%xmm0, -8(%rbp)
	movsd	-8(%rbp), %xmm0
	movq	.LC9(%rip), %xmm1
	andpd	%xmm0, %xmm1
	movsd	.LC10(%rip), %xmm0
	ucomisd	%xmm1, %xmm0
	setb	%al
	xorl	$1, %eax
	movzbl	%al, %eax
	testl	%eax, %eax
	setne	%al
	popq	%rbp
	.cfi_def_cfa 7, 8
	ret
	.cfi_endproc
.LFE5934:
	.size	_ZSt8isfinited, .-_ZSt8isfinited
	.section	.text._ZSt8isfinitee,"axG",@progbits,_ZSt8isfinitee,comdat
	.weak	_ZSt8isfinitee
	.type	_ZSt8isfinitee, @function
_ZSt8isfinitee:
.LFB5935:
	.cfi_startproc
	endbr64
	pushq	%rbp
	.cfi_def_cfa_offset 16
	.cfi_offset 6, -16
	movq	%rsp, %rbp
	.cfi_def_cfa_register 6
	fldt	16(%rbp)
	fabs
	fldt	.LC11(%rip)
	fucomip	%st(1), %st
	fstp	%st(0)
	setb	%al
	xorl	$1, %eax
	movzbl	%al, %eax
	testl	%eax, %eax
	setne	%al
	popq	%rbp
	.cfi_def_cfa 7, 8
	ret
	.cfi_endproc
.LFE5935:
	.size	_ZSt8isfinitee, .-_ZSt8isfinitee
	.section	.text._ZSt5isinff,"axG",@progbits,_ZSt5isinff,comdat
	.weak	_ZSt5isinff
	.type	_ZSt5isinff, @function
_ZSt5isinff:
.LFB5937:
	.cfi_startproc
	endbr64
	pushq	%rbp
	.cfi_def_cfa_offset 16
	.cfi_offset 6, -16
	movq	%rsp, %rbp
	.cfi_def_cfa_register 6
	movss	%xmm0, -4(%rbp)
	movss	-4(%rbp), %xmm0
	movss	.LC7(%rip), %xmm1
	andps	%xmm1, %xmm0
	ucomiss	.LC8(%rip), %xmm0
	setbe	%al
	xorl	$1, %eax
	movzbl	%al, %eax
	testl	%eax, %eax
	setne	%al
	popq	%rbp
	.cfi_def_cfa 7, 8
	ret
	.cfi_endproc
.LFE5937:
	.size	_ZSt5isinff, .-_ZSt5isinff
	.section	.text._ZSt5isinfd,"axG",@progbits,_ZSt5isinfd,comdat
	.weak	_ZSt5isinfd
	.type	_ZSt5isinfd, @function
_ZSt5isinfd:
.LFB5938:
	.cfi_startproc
	endbr64
	pushq	%rbp
	.cfi_def_cfa_offset 16
	.cfi_offset 6, -16
	movq	%rsp, %rbp
	.cfi_def_cfa_register 6
	movsd	%xmm0, -8(%rbp)
	movsd	-8(%rbp), %xmm0
	movq	.LC9(%rip), %xmm1
	andpd	%xmm1, %xmm0
	ucomisd	.LC10(%rip), %xmm0
	setbe	%al
	xorl	$1, %eax
	movzbl	%al, %eax
	testl	%eax, %eax
	setne	%al
	popq	%rbp
	.cfi_def_cfa 7, 8
	ret
	.cfi_endproc
.LFE5938:
	.size	_ZSt5isinfd, .-_ZSt5isinfd
	.section	.text._ZSt5isinfe,"axG",@progbits,_ZSt5isinfe,comdat
	.weak	_ZSt5isinfe
	.type	_ZSt5isinfe, @function
_ZSt5isinfe:
.LFB5939:
	.cfi_startproc
	endbr64
	pushq	%rbp
	.cfi_def_cfa_offset 16
	.cfi_offset 6, -16
	movq	%rsp, %rbp
	.cfi_def_cfa_register 6
	fldt	16(%rbp)
	fabs
	fldt	.LC11(%rip)
	fxch	%st(1)
	fucomip	%st(1), %st
	fstp	%st(0)
	setbe	%al
	xorl	$1, %eax
	movzbl	%al, %eax
	testl	%eax, %eax
	setne	%al
	popq	%rbp
	.cfi_def_cfa 7, 8
	ret
	.cfi_endproc
.LFE5939:
	.size	_ZSt5isinfe, .-_ZSt5isinfe
	.section	.text._ZSt7signbitf,"axG",@progbits,_ZSt7signbitf,comdat
	.weak	_ZSt7signbitf
	.type	_ZSt7signbitf, @function
_ZSt7signbitf:
.LFB5949:
	.cfi_startproc
	endbr64
	pushq	%rbp
	.cfi_def_cfa_offset 16
	.cfi_offset 6, -16
	movq	%rsp, %rbp
	.cfi_def_cfa_register 6
	movss	%xmm0, -4(%rbp)
	movl	-4(%rbp), %eax
	andl	$-2147483648, %eax
	testl	%eax, %eax
	setne	%al
	popq	%rbp
	.cfi_def_cfa 7, 8
	ret
	.cfi_endproc
.LFE5949:
	.size	_ZSt7signbitf, .-_ZSt7signbitf
	.section	.text._ZSt7signbitd,"axG",@progbits,_ZSt7signbitd,comdat
	.weak	_ZSt7signbitd
	.type	_ZSt7signbitd, @function
_ZSt7signbitd:
.LFB5950:
	.cfi_startproc
	endbr64
	pushq	%rbp
	.cfi_def_cfa_offset 16
	.cfi_offset 6, -16
	movq	%rsp, %rbp
	.cfi_def_cfa_register 6
	movsd	%xmm0, -8(%rbp)
	movsd	-8(%rbp), %xmm0
	movmskpd	%xmm0, %eax
	andl	$1, %eax
	testl	%eax, %eax
	setne	%al
	popq	%rbp
	.cfi_def_cfa 7, 8
	ret
	.cfi_endproc
.LFE5950:
	.size	_ZSt7signbitd, .-_ZSt7signbitd
	.section	.text._ZSt7signbite,"axG",@progbits,_ZSt7signbite,comdat
	.weak	_ZSt7signbite
	.type	_ZSt7signbite, @function
_ZSt7signbite:
.LFB5951:
	.cfi_startproc
	endbr64
	pushq	%rbp
	.cfi_def_cfa_offset 16
	.cfi_offset 6, -16
	movq	%rsp, %rbp
	.cfi_def_cfa_register 6
	fldt	16(%rbp)
	fxam
	fnstsw	%ax
	fstp	%st(0)
	andl	$512, %eax
	testl	%eax, %eax
	setne	%al
	popq	%rbp
	.cfi_def_cfa 7, 8
	ret
	.cfi_endproc
.LFE5951:
	.size	_ZSt7signbite, .-_ZSt7signbite
	.section	.text._ZN3fmt2v68internal10to_uintptrEPKv,"axG",@progbits,_ZN3fmt2v68internal10to_uintptrEPKv,comdat
	.weak	_ZN3fmt2v68internal10to_uintptrEPKv
	.type	_ZN3fmt2v68internal10to_uintptrEPKv, @function
_ZN3fmt2v68internal10to_uintptrEPKv:
.LFB6260:
	.cfi_startproc
	endbr64
	pushq	%rbp
	.cfi_def_cfa_offset 16
	.cfi_offset 6, -16
	movq	%rsp, %rbp
	.cfi_def_cfa_register 6
	subq	$16, %rsp
	movq	%rdi, -8(%rbp)
	leaq	-8(%rbp), %rax
	movq	%rax, %rdi
	call	_ZN3fmt2v68internal8bit_castImPKvEET_RKT0_@PLT
	leave
	.cfi_def_cfa 7, 8
	ret
	.cfi_endproc
.LFE6260:
	.size	_ZN3fmt2v68internal10to_uintptrEPKv, .-_ZN3fmt2v68internal10to_uintptrEPKv
	.section	.text._ZN3fmt2v68internal17counting_iteratorC2Ev,"axG",@progbits,_ZN3fmt2v68internal17counting_iteratorC5Ev,comdat
	.align 2
	.weak	_ZN3fmt2v68internal17counting_iteratorC2Ev
	.type	_ZN3fmt2v68internal17counting_iteratorC2Ev, @function
_ZN3fmt2v68internal17counting_iteratorC2Ev:
.LFB6271:
	.cfi_startproc
	endbr64
	pushq	%rbp
	.cfi_def_cfa_offset 16
	.cfi_offset 6, -16
	movq	%rsp, %rbp
	.cfi_def_cfa_register 6
	movq	%rdi, -8(%rbp)
	movq	-8(%rbp), %rax
	movq	$0, (%rax)
	nop
	popq	%rbp
	.cfi_def_cfa 7, 8
	ret
	.cfi_endproc
.LFE6271:
	.size	_ZN3fmt2v68internal17counting_iteratorC2Ev, .-_ZN3fmt2v68internal17counting_iteratorC2Ev
	.weak	_ZN3fmt2v68internal17counting_iteratorC1Ev
	.set	_ZN3fmt2v68internal17counting_iteratorC1Ev,_ZN3fmt2v68internal17counting_iteratorC2Ev
	.section	.text._ZNK3fmt2v68internal17counting_iterator5countEv,"axG",@progbits,_ZNK3fmt2v68internal17counting_iterator5countEv,comdat
	.align 2
	.weak	_ZNK3fmt2v68internal17counting_iterator5countEv
	.type	_ZNK3fmt2v68internal17counting_iterator5countEv, @function
_ZNK3fmt2v68internal17counting_iterator5countEv:
.LFB6273:
	.cfi_startproc
	endbr64
	pushq	%rbp
	.cfi_def_cfa_offset 16
	.cfi_offset 6, -16
	movq	%rsp, %rbp
	.cfi_def_cfa_register 6
	movq	%rdi, -8(%rbp)
	movq	-8(%rbp), %rax
	movq	(%rax), %rax
	popq	%rbp
	.cfi_def_cfa 7, 8
	ret
	.cfi_endproc
.LFE6273:
	.size	_ZNK3fmt2v68internal17counting_iterator5countEv, .-_ZNK3fmt2v68internal17counting_iterator5countEv
	.section	.text._ZN3fmt2v68internal17counting_iteratorppEv,"axG",@progbits,_ZN3fmt2v68internal17counting_iteratorppEv,comdat
	.align 2
	.weak	_ZN3fmt2v68internal17counting_iteratorppEv
	.type	_ZN3fmt2v68internal17counting_iteratorppEv, @function
_ZN3fmt2v68internal17counting_iteratorppEv:
.LFB6274:
	.cfi_startproc
	endbr64
	pushq	%rbp
	.cfi_def_cfa_offset 16
	.cfi_offset 6, -16
	movq	%rsp, %rbp
	.cfi_def_cfa_register 6
	movq	%rdi, -8(%rbp)
	movq	-8(%rbp), %rax
	movq	(%rax), %rax
	leaq	1(%rax), %rdx
	movq	-8(%rbp), %rax
	movq	%rdx, (%rax)
	movq	-8(%rbp), %rax
	popq	%rbp
	.cfi_def_cfa 7, 8
	ret
	.cfi_endproc
.LFE6274:
	.size	_ZN3fmt2v68internal17counting_iteratorppEv, .-_ZN3fmt2v68internal17counting_iteratorppEv
	.section	.text._ZN3fmt2v68internal17counting_iteratorppEi,"axG",@progbits,_ZN3fmt2v68internal17counting_iteratorppEi,comdat
	.align 2
	.weak	_ZN3fmt2v68internal17counting_iteratorppEi
	.type	_ZN3fmt2v68internal17counting_iteratorppEi, @function
_ZN3fmt2v68internal17counting_iteratorppEi:
.LFB6275:
	.cfi_startproc
	endbr64
	pushq	%rbp
	.cfi_def_cfa_offset 16
	.cfi_offset 6, -16
	movq	%rsp, %rbp
	.cfi_def_cfa_register 6
	subq	$32, %rsp
	movq	%rdi, -24(%rbp)
	movl	%esi, -28(%rbp)
	movq	%fs:40, %rax
	movq	%rax, -8(%rbp)
	xorl	%eax, %eax
	movq	-24(%rbp), %rax
	movq	(%rax), %rax
	movq	%rax, -16(%rbp)
	movq	-24(%rbp), %rax
	movq	%rax, %rdi
	call	_ZN3fmt2v68internal17counting_iteratorppEv@PLT
	movq	-16(%rbp), %rax
	movq	-8(%rbp), %rdx
	xorq	%fs:40, %rdx
	je	.L184
	call	__stack_chk_fail@PLT
.L184:
	leave
	.cfi_def_cfa 7, 8
	ret
	.cfi_endproc
.LFE6275:
	.size	_ZN3fmt2v68internal17counting_iteratorppEi, .-_ZN3fmt2v68internal17counting_iteratorppEi
	.section	.text._ZNK3fmt2v68internal17counting_iteratordeEv,"axG",@progbits,_ZNK3fmt2v68internal17counting_iteratordeEv,comdat
	.align 2
	.weak	_ZNK3fmt2v68internal17counting_iteratordeEv
	.type	_ZNK3fmt2v68internal17counting_iteratordeEv, @function
_ZNK3fmt2v68internal17counting_iteratordeEv:
.LFB6276:
	.cfi_startproc
	endbr64
	pushq	%rbp
	.cfi_def_cfa_offset 16
	.cfi_offset 6, -16
	movq	%rsp, %rbp
	.cfi_def_cfa_register 6
	movq	%rdi, -8(%rbp)
	popq	%rbp
	.cfi_def_cfa 7, 8
	ret
	.cfi_endproc
.LFE6276:
	.size	_ZNK3fmt2v68internal17counting_iteratordeEv, .-_ZNK3fmt2v68internal17counting_iteratordeEv
	.section	.text._ZN3fmt2v612format_errorC2EPKc,"axG",@progbits,_ZN3fmt2v612format_errorC5EPKc,comdat
	.align 2
	.weak	_ZN3fmt2v612format_errorC2EPKc
	.type	_ZN3fmt2v612format_errorC2EPKc, @function
_ZN3fmt2v612format_errorC2EPKc:
.LFB6320:
	.cfi_startproc
	endbr64
	pushq	%rbp
	.cfi_def_cfa_offset 16
	.cfi_offset 6, -16
	movq	%rsp, %rbp
	.cfi_def_cfa_register 6
	subq	$16, %rsp
	movq	%rdi, -8(%rbp)
	movq	%rsi, -16(%rbp)
	movq	-8(%rbp), %rax
	movq	-16(%rbp), %rdx
	movq	%rdx, %rsi
	movq	%rax, %rdi
	call	_ZNSt13runtime_errorC2EPKc@PLT
	movq	_ZTVN3fmt2v612format_errorE@GOTPCREL(%rip), %rax
	leaq	16(%rax), %rdx
	movq	-8(%rbp), %rax
	movq	%rdx, (%rax)
	nop
	leave
	.cfi_def_cfa 7, 8
	ret
	.cfi_endproc
.LFE6320:
	.size	_ZN3fmt2v612format_errorC2EPKc, .-_ZN3fmt2v612format_errorC2EPKc
	.weak	_ZN3fmt2v612format_errorC1EPKc
	.set	_ZN3fmt2v612format_errorC1EPKc,_ZN3fmt2v612format_errorC2EPKc
	.section	.text._ZN3fmt2v68internal12count_digitsEm,"axG",@progbits,_ZN3fmt2v68internal12count_digitsEm,comdat
	.weak	_ZN3fmt2v68internal12count_digitsEm
	.type	_ZN3fmt2v68internal12count_digitsEm, @function
_ZN3fmt2v68internal12count_digitsEm:
.LFB6327:
	.cfi_startproc
	endbr64
	pushq	%rbp
	.cfi_def_cfa_offset 16
	.cfi_offset 6, -16
	movq	%rsp, %rbp
	.cfi_def_cfa_register 6
	movq	%rdi, -24(%rbp)
	movq	-24(%rbp), %rax
	orq	$1, %rax
	bsrq	%rax, %rax
	xorq	$63, %rax
	movl	$64, %edx
	subl	%eax, %edx
	movl	%edx, %eax
	imull	$1233, %eax, %eax
	sarl	$12, %eax
	movl	%eax, -4(%rbp)
	movq	_ZN3fmt2v68internal10basic_dataIvE23zero_or_powers_of_10_64E@GOTPCREL(%rip), %rax
	movl	-4(%rbp), %edx
	movslq	%edx, %rdx
	movq	(%rax,%rdx,8), %rax
	cmpq	%rax, -24(%rbp)
	setb	%al
	movzbl	%al, %eax
	movl	-4(%rbp), %edx
	subl	%eax, %edx
	movl	%edx, %eax
	addl	$1, %eax
	popq	%rbp
	.cfi_def_cfa 7, 8
	ret
	.cfi_endproc
.LFE6327:
	.size	_ZN3fmt2v68internal12count_digitsEm, .-_ZN3fmt2v68internal12count_digitsEm
	.globl	__udivti3
	.section	.text._ZN3fmt2v68internal12count_digitsEo,"axG",@progbits,_ZN3fmt2v68internal12count_digitsEo,comdat
	.weak	_ZN3fmt2v68internal12count_digitsEo
	.type	_ZN3fmt2v68internal12count_digitsEo, @function
_ZN3fmt2v68internal12count_digitsEo:
.LFB6328:
	.cfi_startproc
	endbr64
	pushq	%rbp
	.cfi_def_cfa_offset 16
	.cfi_offset 6, -16
	movq	%rsp, %rbp
	.cfi_def_cfa_register 6
	subq	$32, %rsp
	movq	%rdi, %rax
	movq	%rsi, %rcx
	movq	%rcx, %rdx
	movq	%rax, -32(%rbp)
	movq	%rdx, -24(%rbp)
	movl	$1, -4(%rbp)
.L196:
	movl	$9, %edx
	movl	$0, %eax
	cmpq	-32(%rbp), %rdx
	sbbq	-24(%rbp), %rax
	jc	.L191
	movl	-4(%rbp), %eax
	jmp	.L192
.L191:
	movl	$99, %edx
	movl	$0, %eax
	cmpq	-32(%rbp), %rdx
	sbbq	-24(%rbp), %rax
	jc	.L193
	movl	-4(%rbp), %eax
	addl	$1, %eax
	jmp	.L192
.L193:
	movl	$999, %edx
	movl	$0, %eax
	cmpq	-32(%rbp), %rdx
	sbbq	-24(%rbp), %rax
	jc	.L194
	movl	-4(%rbp), %eax
	addl	$2, %eax
	jmp	.L192
.L194:
	movl	$9999, %edx
	movl	$0, %eax
	cmpq	-32(%rbp), %rdx
	sbbq	-24(%rbp), %rax
	jc	.L195
	movl	-4(%rbp), %eax
	addl	$3, %eax
	jmp	.L192
.L195:
	movq	-32(%rbp), %rax
	movq	-24(%rbp), %rdx
	movq	%rax, %rsi
	movq	%rdx, %rdi
	movq	%rax, %r8
	movq	%rdx, %r9
	movl	$10000, %edx
	movl	$0, %ecx
	movq	%rsi, %rdi
	movq	%r9, %rsi
	call	__udivti3@PLT
	movq	%rax, -32(%rbp)
	movq	%rdx, -24(%rbp)
	addl	$4, -4(%rbp)
	jmp	.L196
.L192:
	leave
	.cfi_def_cfa 7, 8
	ret
	.cfi_endproc
.LFE6328:
	.size	_ZN3fmt2v68internal12count_digitsEo, .-_ZN3fmt2v68internal12count_digitsEo
	.section	.text._ZN3fmt2v68internal12count_digitsEj,"axG",@progbits,_ZN3fmt2v68internal12count_digitsEj,comdat
	.weak	_ZN3fmt2v68internal12count_digitsEj
	.type	_ZN3fmt2v68internal12count_digitsEj, @function
_ZN3fmt2v68internal12count_digitsEj:
.LFB6330:
	.cfi_startproc
	endbr64
	pushq	%rbp
	.cfi_def_cfa_offset 16
	.cfi_offset 6, -16
	movq	%rsp, %rbp
	.cfi_def_cfa_register 6
	movl	%edi, -20(%rbp)
	movl	-20(%rbp), %eax
	orl	$1, %eax
	bsrl	%eax, %eax
	xorl	$31, %eax
	movl	$32, %edx
	subl	%eax, %edx
	movl	%edx, %eax
	imull	$1233, %eax, %eax
	sarl	$12, %eax
	movl	%eax, -4(%rbp)
	movq	_ZN3fmt2v68internal10basic_dataIvE23zero_or_powers_of_10_32E@GOTPCREL(%rip), %rax
	movl	-4(%rbp), %edx
	movslq	%edx, %rdx
	movl	(%rax,%rdx,4), %eax
	cmpl	%eax, -20(%rbp)
	setb	%al
	movzbl	%al, %eax
	movl	-4(%rbp), %edx
	subl	%eax, %edx
	movl	%edx, %eax
	addl	$1, %eax
	popq	%rbp
	.cfi_def_cfa 7, 8
	ret
	.cfi_endproc
.LFE6330:
	.size	_ZN3fmt2v68internal12count_digitsEj, .-_ZN3fmt2v68internal12count_digitsEj
	.section	.text._ZN3fmt2v68internal13promote_floatEf,"axG",@progbits,_ZN3fmt2v68internal13promote_floatEf,comdat
	.weak	_ZN3fmt2v68internal13promote_floatEf
	.type	_ZN3fmt2v68internal13promote_floatEf, @function
_ZN3fmt2v68internal13promote_floatEf:
.LFB6358:
	.cfi_startproc
	endbr64
	pushq	%rbp
	.cfi_def_cfa_offset 16
	.cfi_offset 6, -16
	movq	%rsp, %rbp
	.cfi_def_cfa_register 6
	movss	%xmm0, -4(%rbp)
	cvtss2sd	-4(%rbp), %xmm0
	popq	%rbp
	.cfi_def_cfa 7, 8
	ret
	.cfi_endproc
.LFE6358:
	.size	_ZN3fmt2v68internal13promote_floatEf, .-_ZN3fmt2v68internal13promote_floatEf
	.section	.text._ZN3fmt2v68internal9max_valueIiEET_v,"axG",@progbits,_ZN3fmt2v68internal9max_valueIiEET_v,comdat
	.weak	_ZN3fmt2v68internal9max_valueIiEET_v
	.type	_ZN3fmt2v68internal9max_valueIiEET_v, @function
_ZN3fmt2v68internal9max_valueIiEET_v:
.LFB6455:
	.cfi_startproc
	endbr64
	pushq	%rbp
	.cfi_def_cfa_offset 16
	.cfi_offset 6, -16
	movq	%rsp, %rbp
	.cfi_def_cfa_register 6
	call	_ZNSt14numeric_limitsIiE3maxEv@PLT
	popq	%rbp
	.cfi_def_cfa 7, 8
	ret
	.cfi_endproc
.LFE6455:
	.size	_ZN3fmt2v68internal9max_valueIiEET_v, .-_ZN3fmt2v68internal9max_valueIiEET_v
	.section	.text._ZN3fmt2v68internal4findILb0EcPKcEEbT1_S5_T0_RS5_,"axG",@progbits,_ZN3fmt2v68internal4findILb0EcPKcEEbT1_S5_T0_RS5_,comdat
	.weak	_ZN3fmt2v68internal4findILb0EcPKcEEbT1_S5_T0_RS5_
	.type	_ZN3fmt2v68internal4findILb0EcPKcEEbT1_S5_T0_RS5_, @function
_ZN3fmt2v68internal4findILb0EcPKcEEbT1_S5_T0_RS5_:
.LFB6530:
	.cfi_startproc
	endbr64
	pushq	%rbp
	.cfi_def_cfa_offset 16
	.cfi_offset 6, -16
	movq	%rsp, %rbp
	.cfi_def_cfa_register 6
	subq	$32, %rsp
	movq	%rdi, -8(%rbp)
	movq	%rsi, -16(%rbp)
	movl	%edx, %eax
	movq	%rcx, -32(%rbp)
	movb	%al, -20(%rbp)
	movq	-16(%rbp), %rax
	subq	-8(%rbp), %rax
	movq	%rax, %rdi
	call	_ZN3fmt2v68internal11to_unsignedIlEENSt13make_unsignedIT_E4typeES4_@PLT
	movq	%rax, %rdx
	movsbl	-20(%rbp), %ecx
	movq	-8(%rbp), %rax
	movl	%ecx, %esi
	movq	%rax, %rdi
	call	memchr@PLT
	movq	-32(%rbp), %rdx
	movq	%rax, (%rdx)
	movq	-32(%rbp), %rax
	movq	(%rax), %rax
	testq	%rax, %rax
	setne	%al
	leave
	.cfi_def_cfa 7, 8
	ret
	.cfi_endproc
.LFE6530:
	.size	_ZN3fmt2v68internal4findILb0EcPKcEEbT1_S5_T0_RS5_, .-_ZN3fmt2v68internal4findILb0EcPKcEEbT1_S5_T0_RS5_
	.section	.text._ZN3fmt2v617basic_string_viewIcEC1EPKcm,"axG",@progbits,_ZN3fmt2v617basic_string_viewIcEC1EPKcm,comdat
	.align 2
	.weak	_ZN3fmt2v617basic_string_viewIcEC1EPKcm
	.type	_ZN3fmt2v617basic_string_viewIcEC1EPKcm, @function
_ZN3fmt2v617basic_string_viewIcEC1EPKcm:
.LFB6643:
	.cfi_startproc
	endbr64
	pushq	%rbp
	.cfi_def_cfa_offset 16
	.cfi_offset 6, -16
	movq	%rsp, %rbp
	.cfi_def_cfa_register 6
	movq	%rdi, -8(%rbp)
	movq	%rsi, -16(%rbp)
	movq	%rdx, -24(%rbp)
	movq	-8(%rbp), %rax
	movq	-16(%rbp), %rdx
	movq	%rdx, (%rax)
	movq	-8(%rbp), %rax
	movq	-24(%rbp), %rdx
	movq	%rdx, 8(%rax)
	nop
	popq	%rbp
	.cfi_def_cfa 7, 8
	ret
	.cfi_endproc
.LFE6643:
	.size	_ZN3fmt2v617basic_string_viewIcEC1EPKcm, .-_ZN3fmt2v617basic_string_viewIcEC1EPKcm
	.section	.text._ZN6spdlog10source_locC2Ev,"axG",@progbits,_ZN6spdlog10source_locC5Ev,comdat
	.align 2
	.weak	_ZN6spdlog10source_locC2Ev
	.type	_ZN6spdlog10source_locC2Ev, @function
_ZN6spdlog10source_locC2Ev:
.LFB6732:
	.cfi_startproc
	endbr64
	pushq	%rbp
	.cfi_def_cfa_offset 16
	.cfi_offset 6, -16
	movq	%rsp, %rbp
	.cfi_def_cfa_register 6
	movq	%rdi, -8(%rbp)
	movq	-8(%rbp), %rax
	movq	$0, (%rax)
	movq	-8(%rbp), %rax
	movl	$0, 8(%rax)
	movq	-8(%rbp), %rax
	movq	$0, 16(%rax)
	nop
	popq	%rbp
	.cfi_def_cfa 7, 8
	ret
	.cfi_endproc
.LFE6732:
	.size	_ZN6spdlog10source_locC2Ev, .-_ZN6spdlog10source_locC2Ev
	.weak	_ZN6spdlog10source_locC1Ev
	.set	_ZN6spdlog10source_locC1Ev,_ZN6spdlog10source_locC2Ev
	.section	.text._ZNK6spdlog6logger10should_logENS_5level10level_enumE,"axG",@progbits,_ZNK6spdlog6logger10should_logENS_5level10level_enumE,comdat
	.align 2
	.weak	_ZNK6spdlog6logger10should_logENS_5level10level_enumE
	.type	_ZNK6spdlog6logger10should_logENS_5level10level_enumE, @function
_ZNK6spdlog6logger10should_logENS_5level10level_enumE:
.LFB6741:
	.cfi_startproc
	endbr64
	pushq	%rbp
	.cfi_def_cfa_offset 16
	.cfi_offset 6, -16
	movq	%rsp, %rbp
	.cfi_def_cfa_register 6
	subq	$32, %rsp
	movq	%rdi, -24(%rbp)
	movl	%esi, -28(%rbp)
	movq	-24(%rbp), %rax
	addq	$64, %rax
	movq	%rax, -8(%rbp)
	movl	$0, -16(%rbp)
	movl	-16(%rbp), %eax
	movl	$65535, %esi
	movl	%eax, %edi
	call	_ZStanSt12memory_orderSt23__memory_order_modifier@PLT
	movl	%eax, -12(%rbp)
	movq	-8(%rbp), %rax
	movl	(%rax), %eax
	movl	%eax, %edx
	movl	-28(%rbp), %eax
	cmpl	%eax, %edx
	setle	%al
	leave
	.cfi_def_cfa 7, 8
	ret
	.cfi_endproc
.LFE6741:
	.size	_ZNK6spdlog6logger10should_logENS_5level10level_enumE, .-_ZNK6spdlog6logger10should_logENS_5level10level_enumE
	.section	.text._ZNSt12__shared_ptrI20RIOTFrameworkContextLN9__gnu_cxx12_Lock_policyE2EED2Ev,"axG",@progbits,_ZNSt12__shared_ptrI20RIOTFrameworkContextLN9__gnu_cxx12_Lock_policyE2EED5Ev,comdat
	.align 2
	.weak	_ZNSt12__shared_ptrI20RIOTFrameworkContextLN9__gnu_cxx12_Lock_policyE2EED2Ev
	.type	_ZNSt12__shared_ptrI20RIOTFrameworkContextLN9__gnu_cxx12_Lock_policyE2EED2Ev, @function
_ZNSt12__shared_ptrI20RIOTFrameworkContextLN9__gnu_cxx12_Lock_policyE2EED2Ev:
.LFB6769:
	.cfi_startproc
	endbr64
	pushq	%rbp
	.cfi_def_cfa_offset 16
	.cfi_offset 6, -16
	movq	%rsp, %rbp
	.cfi_def_cfa_register 6
	subq	$16, %rsp
	movq	%rdi, -8(%rbp)
	movq	-8(%rbp), %rax
	addq	$8, %rax
	movq	%rax, %rdi
	call	_ZNSt14__shared_countILN9__gnu_cxx12_Lock_policyE2EED1Ev@PLT
	nop
	leave
	.cfi_def_cfa 7, 8
	ret
	.cfi_endproc
.LFE6769:
	.size	_ZNSt12__shared_ptrI20RIOTFrameworkContextLN9__gnu_cxx12_Lock_policyE2EED2Ev, .-_ZNSt12__shared_ptrI20RIOTFrameworkContextLN9__gnu_cxx12_Lock_policyE2EED2Ev
	.weak	_ZNSt12__shared_ptrI20RIOTFrameworkContextLN9__gnu_cxx12_Lock_policyE2EED1Ev
	.set	_ZNSt12__shared_ptrI20RIOTFrameworkContextLN9__gnu_cxx12_Lock_policyE2EED1Ev,_ZNSt12__shared_ptrI20RIOTFrameworkContextLN9__gnu_cxx12_Lock_policyE2EED2Ev
	.section	.text._ZNSt10shared_ptrI20RIOTFrameworkContextED2Ev,"axG",@progbits,_ZNSt10shared_ptrI20RIOTFrameworkContextED5Ev,comdat
	.align 2
	.weak	_ZNSt10shared_ptrI20RIOTFrameworkContextED2Ev
	.type	_ZNSt10shared_ptrI20RIOTFrameworkContextED2Ev, @function
_ZNSt10shared_ptrI20RIOTFrameworkContextED2Ev:
.LFB6771:
	.cfi_startproc
	endbr64
	pushq	%rbp
	.cfi_def_cfa_offset 16
	.cfi_offset 6, -16
	movq	%rsp, %rbp
	.cfi_def_cfa_register 6
	subq	$16, %rsp
	movq	%rdi, -8(%rbp)
	movq	-8(%rbp), %rax
	movq	%rax, %rdi
	call	_ZNSt12__shared_ptrI20RIOTFrameworkContextLN9__gnu_cxx12_Lock_policyE2EED2Ev@PLT
	nop
	leave
	.cfi_def_cfa 7, 8
	ret
	.cfi_endproc
.LFE6771:
	.size	_ZNSt10shared_ptrI20RIOTFrameworkContextED2Ev, .-_ZNSt10shared_ptrI20RIOTFrameworkContextED2Ev
	.weak	_ZNSt10shared_ptrI20RIOTFrameworkContextED1Ev
	.set	_ZNSt10shared_ptrI20RIOTFrameworkContextED1Ev,_ZNSt10shared_ptrI20RIOTFrameworkContextED2Ev
	.section	.text._ZNSt12__shared_ptrI20RIOTFrameworkContextLN9__gnu_cxx12_Lock_policyE2EEC2ERKS3_,"axG",@progbits,_ZNSt12__shared_ptrI20RIOTFrameworkContextLN9__gnu_cxx12_Lock_policyE2EEC5ERKS3_,comdat
	.align 2
	.weak	_ZNSt12__shared_ptrI20RIOTFrameworkContextLN9__gnu_cxx12_Lock_policyE2EEC2ERKS3_
	.type	_ZNSt12__shared_ptrI20RIOTFrameworkContextLN9__gnu_cxx12_Lock_policyE2EEC2ERKS3_, @function
_ZNSt12__shared_ptrI20RIOTFrameworkContextLN9__gnu_cxx12_Lock_policyE2EEC2ERKS3_:
.LFB6778:
	.cfi_startproc
	endbr64
	pushq	%rbp
	.cfi_def_cfa_offset 16
	.cfi_offset 6, -16
	movq	%rsp, %rbp
	.cfi_def_cfa_register 6
	subq	$16, %rsp
	movq	%rdi, -8(%rbp)
	movq	%rsi, -16(%rbp)
	movq	-16(%rbp), %rax
	movq	(%rax), %rdx
	movq	-8(%rbp), %rax
	movq	%rdx, (%rax)
	movq	-8(%rbp), %rax
	addq	$8, %rax
	movq	-16(%rbp), %rdx
	addq	$8, %rdx
	movq	%rdx, %rsi
	movq	%rax, %rdi
	call	_ZNSt14__shared_countILN9__gnu_cxx12_Lock_policyE2EEC1ERKS2_@PLT
	nop
	leave
	.cfi_def_cfa 7, 8
	ret
	.cfi_endproc
.LFE6778:
	.size	_ZNSt12__shared_ptrI20RIOTFrameworkContextLN9__gnu_cxx12_Lock_policyE2EEC2ERKS3_, .-_ZNSt12__shared_ptrI20RIOTFrameworkContextLN9__gnu_cxx12_Lock_policyE2EEC2ERKS3_
	.weak	_ZNSt12__shared_ptrI20RIOTFrameworkContextLN9__gnu_cxx12_Lock_policyE2EEC1ERKS3_
	.set	_ZNSt12__shared_ptrI20RIOTFrameworkContextLN9__gnu_cxx12_Lock_policyE2EEC1ERKS3_,_ZNSt12__shared_ptrI20RIOTFrameworkContextLN9__gnu_cxx12_Lock_policyE2EEC2ERKS3_
	.section	.text._ZNSt10shared_ptrI20RIOTFrameworkContextEC2ERKS1_,"axG",@progbits,_ZNSt10shared_ptrI20RIOTFrameworkContextEC5ERKS1_,comdat
	.align 2
	.weak	_ZNSt10shared_ptrI20RIOTFrameworkContextEC2ERKS1_
	.type	_ZNSt10shared_ptrI20RIOTFrameworkContextEC2ERKS1_, @function
_ZNSt10shared_ptrI20RIOTFrameworkContextEC2ERKS1_:
.LFB6780:
	.cfi_startproc
	endbr64
	pushq	%rbp
	.cfi_def_cfa_offset 16
	.cfi_offset 6, -16
	movq	%rsp, %rbp
	.cfi_def_cfa_register 6
	subq	$16, %rsp
	movq	%rdi, -8(%rbp)
	movq	%rsi, -16(%rbp)
	movq	-8(%rbp), %rax
	movq	-16(%rbp), %rdx
	movq	%rdx, %rsi
	movq	%rax, %rdi
	call	_ZNSt12__shared_ptrI20RIOTFrameworkContextLN9__gnu_cxx12_Lock_policyE2EEC2ERKS3_@PLT
	nop
	leave
	.cfi_def_cfa 7, 8
	ret
	.cfi_endproc
.LFE6780:
	.size	_ZNSt10shared_ptrI20RIOTFrameworkContextEC2ERKS1_, .-_ZNSt10shared_ptrI20RIOTFrameworkContextEC2ERKS1_
	.weak	_ZNSt10shared_ptrI20RIOTFrameworkContextEC1ERKS1_
	.set	_ZNSt10shared_ptrI20RIOTFrameworkContextEC1ERKS1_,_ZNSt10shared_ptrI20RIOTFrameworkContextEC2ERKS1_
	.section	.rodata
	.align 32
	.type	_ZN6detailL9crc_tableE, @object
	.size	_ZN6detailL9crc_tableE, 2048
_ZN6detailL9crc_tableE:
	.quad	0
	.quad	1996959894
	.quad	3993919788
	.quad	2567524794
	.quad	124634137
	.quad	1886057615
	.quad	3915621685
	.quad	2657392035
	.quad	249268274
	.quad	2044508324
	.quad	3772115230
	.quad	2547177864
	.quad	162941995
	.quad	2125561021
	.quad	3887607047
	.quad	2428444049
	.quad	498536548
	.quad	1789927666
	.quad	4089016648
	.quad	2227061214
	.quad	450548861
	.quad	1843258603
	.quad	4107580753
	.quad	2211677639
	.quad	325883990
	.quad	1684777152
	.quad	4251122042
	.quad	2321926636
	.quad	335633487
	.quad	1661365465
	.quad	4195302755
	.quad	2366115317
	.quad	997073096
	.quad	1281953886
	.quad	3579855332
	.quad	2724688242
	.quad	1006888145
	.quad	1258607687
	.quad	3524101629
	.quad	2768942443
	.quad	901097722
	.quad	1119000684
	.quad	3686517206
	.quad	2898065728
	.quad	853044451
	.quad	1172266101
	.quad	3705015759
	.quad	2882616665
	.quad	651767980
	.quad	1373503546
	.quad	3369554304
	.quad	3218104598
	.quad	565507253
	.quad	1454621731
	.quad	3485111705
	.quad	3099436303
	.quad	671266974
	.quad	1594198024
	.quad	3322730930
	.quad	2970347812
	.quad	795835527
	.quad	1483230225
	.quad	3244367275
	.quad	3060149565
	.quad	1994146192
	.quad	31158534
	.quad	2563907772
	.quad	4023717930
	.quad	1907459465
	.quad	112637215
	.quad	2680153253
	.quad	3904427059
	.quad	2013776290
	.quad	251722036
	.quad	2517215374
	.quad	3775830040
	.quad	2137656763
	.quad	141376813
	.quad	2439277719
	.quad	3865271297
	.quad	1802195444
	.quad	476864866
	.quad	2238001368
	.quad	4066508878
	.quad	1812370925
	.quad	453092731
	.quad	2181625025
	.quad	4111451223
	.quad	1706088902
	.quad	314042704
	.quad	2344532202
	.quad	4240017532
	.quad	1658658271
	.quad	366619977
	.quad	2362670323
	.quad	4224994405
	.quad	1303535960
	.quad	984961486
	.quad	2747007092
	.quad	3569037538
	.quad	1256170817
	.quad	1037604311
	.quad	2765210733
	.quad	3554079995
	.quad	1131014506
	.quad	879679996
	.quad	2909243462
	.quad	3663771856
	.quad	1141124467
	.quad	855842277
	.quad	2852801631
	.quad	3708648649
	.quad	1342533948
	.quad	654459306
	.quad	3188396048
	.quad	3373015174
	.quad	1466479909
	.quad	544179635
	.quad	3110523913
	.quad	3462522015
	.quad	1591671054
	.quad	702138776
	.quad	2966460450
	.quad	3352799412
	.quad	1504918807
	.quad	783551873
	.quad	3082640443
	.quad	3233442989
	.quad	3988292384
	.quad	2596254646
	.quad	62317068
	.quad	1957810842
	.quad	3939845945
	.quad	2647816111
	.quad	81470997
	.quad	1943803523
	.quad	3814918930
	.quad	2489596804
	.quad	225274430
	.quad	2053790376
	.quad	3826175755
	.quad	2466906013
	.quad	167816743
	.quad	2097651377
	.quad	4027552580
	.quad	2265490386
	.quad	503444072
	.quad	1762050814
	.quad	4150417245
	.quad	2154129355
	.quad	426522225
	.quad	1852507879
	.quad	4275313526
	.quad	2312317920
	.quad	282753626
	.quad	1742555852
	.quad	4189708143
	.quad	2394877945
	.quad	397917763
	.quad	1622183637
	.quad	3604390888
	.quad	2714866558
	.quad	953729732
	.quad	1340076626
	.quad	3518719985
	.quad	2797360999
	.quad	1068828381
	.quad	1219638859
	.quad	3624741850
	.quad	2936675148
	.quad	906185462
	.quad	1090812512
	.quad	3747672003
	.quad	2825379669
	.quad	829329135
	.quad	1181335161
	.quad	3412177804
	.quad	3160834842
	.quad	628085408
	.quad	1382605366
	.quad	3423369109
	.quad	3138078467
	.quad	570562233
	.quad	1426400815
	.quad	3317316542
	.quad	2998733608
	.quad	733239954
	.quad	1555261956
	.quad	3268935591
	.quad	3050360625
	.quad	752459403
	.quad	1541320221
	.quad	2607071920
	.quad	3965973030
	.quad	1969922972
	.quad	40735498
	.quad	2617837225
	.quad	3943577151
	.quad	1913087877
	.quad	83908371
	.quad	2512341634
	.quad	3803740692
	.quad	2075208622
	.quad	213261112
	.quad	2463272603
	.quad	3855990285
	.quad	2094854071
	.quad	198958881
	.quad	2262029012
	.quad	4057260610
	.quad	1759359992
	.quad	534414190
	.quad	2176718541
	.quad	4139329115
	.quad	1873836001
	.quad	414664567
	.quad	2282248934
	.quad	4279200368
	.quad	1711684554
	.quad	285281116
	.quad	2405801727
	.quad	4167216745
	.quad	1634467795
	.quad	376229701
	.quad	2685067896
	.quad	3608007406
	.quad	1308918612
	.quad	956543938
	.quad	2808555105
	.quad	3495958263
	.quad	1231636301
	.quad	1047427035
	.quad	2932959818
	.quad	3654703836
	.quad	1088359270
	.quad	936918000
	.quad	2847714899
	.quad	3736837829
	.quad	1202900863
	.quad	817233897
	.quad	3183342108
	.quad	3401237130
	.quad	1404277552
	.quad	615818150
	.quad	3134207493
	.quad	3453421203
	.quad	1423857449
	.quad	601450431
	.quad	3009837614
	.quad	3294710456
	.quad	1567103746
	.quad	711928724
	.quad	3020668471
	.quad	3272380065
	.quad	1510334235
	.quad	755167117
	.section	.text._ZNSt10filesystem7__cxx114path5_ListD2Ev,"axG",@progbits,_ZNSt10filesystem7__cxx114path5_ListD5Ev,comdat
	.align 2
	.weak	_ZNSt10filesystem7__cxx114path5_ListD2Ev
	.type	_ZNSt10filesystem7__cxx114path5_ListD2Ev, @function
_ZNSt10filesystem7__cxx114path5_ListD2Ev:
.LFB6967:
	.cfi_startproc
	endbr64
	pushq	%rbp
	.cfi_def_cfa_offset 16
	.cfi_offset 6, -16
	movq	%rsp, %rbp
	.cfi_def_cfa_register 6
	subq	$16, %rsp
	movq	%rdi, -8(%rbp)
	movq	-8(%rbp), %rax
	movq	%rax, %rdi
	call	_ZNSt10unique_ptrINSt10filesystem7__cxx114path5_List5_ImplENS3_13_Impl_deleterEED1Ev@PLT
	nop
	leave
	.cfi_def_cfa 7, 8
	ret
	.cfi_endproc
.LFE6967:
	.size	_ZNSt10filesystem7__cxx114path5_ListD2Ev, .-_ZNSt10filesystem7__cxx114path5_ListD2Ev
	.weak	_ZNSt10filesystem7__cxx114path5_ListD1Ev
	.set	_ZNSt10filesystem7__cxx114path5_ListD1Ev,_ZNSt10filesystem7__cxx114path5_ListD2Ev
	.section	.text._ZNSt10filesystem7__cxx114pathD2Ev,"axG",@progbits,_ZNSt10filesystem7__cxx114pathD5Ev,comdat
	.align 2
	.weak	_ZNSt10filesystem7__cxx114pathD2Ev
	.type	_ZNSt10filesystem7__cxx114pathD2Ev, @function
_ZNSt10filesystem7__cxx114pathD2Ev:
.LFB6969:
	.cfi_startproc
	endbr64
	pushq	%rbp
	.cfi_def_cfa_offset 16
	.cfi_offset 6, -16
	movq	%rsp, %rbp
	.cfi_def_cfa_register 6
	subq	$16, %rsp
	movq	%rdi, -8(%rbp)
	movq	-8(%rbp), %rax
	addq	$32, %rax
	movq	%rax, %rdi
	call	_ZNSt10filesystem7__cxx114path5_ListD1Ev@PLT
	movq	-8(%rbp), %rax
	movq	%rax, %rdi
	call	_ZNSt7__cxx1112basic_stringIcSt11char_traitsIcESaIcEED1Ev@PLT
	nop
	leave
	.cfi_def_cfa 7, 8
	ret
	.cfi_endproc
.LFE6969:
	.size	_ZNSt10filesystem7__cxx114pathD2Ev, .-_ZNSt10filesystem7__cxx114pathD2Ev
	.weak	_ZNSt10filesystem7__cxx114pathD1Ev
	.set	_ZNSt10filesystem7__cxx114pathD1Ev,_ZNSt10filesystem7__cxx114pathD2Ev
	.section	.text._ZNSt10filesystem7__cxx114pathC2ERKS1_,"axG",@progbits,_ZNSt10filesystem7__cxx114pathC5ERKS1_,comdat
	.align 2
	.weak	_ZNSt10filesystem7__cxx114pathC2ERKS1_
	.type	_ZNSt10filesystem7__cxx114pathC2ERKS1_, @function
_ZNSt10filesystem7__cxx114pathC2ERKS1_:
.LFB7018:
	.cfi_startproc
	.cfi_personality 0x9b,DW.ref.__gxx_personality_v0
	.cfi_lsda 0x1b,.LLSDA7018
	endbr64
	pushq	%rbp
	.cfi_def_cfa_offset 16
	.cfi_offset 6, -16
	movq	%rsp, %rbp
	.cfi_def_cfa_register 6
	pushq	%rbx
	subq	$24, %rsp
	.cfi_offset 3, -24
	movq	%rdi, -24(%rbp)
	movq	%rsi, -32(%rbp)
	movq	-24(%rbp), %rax
	movq	-32(%rbp), %rdx
	movq	%rdx, %rsi
	movq	%rax, %rdi
.LEHB5:
	call	_ZNSt7__cxx1112basic_stringIcSt11char_traitsIcESaIcEEC1ERKS4_@PLT
.LEHE5:
	movq	-24(%rbp), %rax
	addq	$32, %rax
	movq	-32(%rbp), %rdx
	addq	$32, %rdx
	movq	%rdx, %rsi
	movq	%rax, %rdi
.LEHB6:
	call	_ZNSt10filesystem7__cxx114path5_ListC1ERKS2_@PLT
.LEHE6:
	jmp	.L219
.L218:
	endbr64
	movq	%rax, %rbx
	movq	-24(%rbp), %rax
	movq	%rax, %rdi
	call	_ZNSt7__cxx1112basic_stringIcSt11char_traitsIcESaIcEED1Ev@PLT
	movq	%rbx, %rax
	movq	%rax, %rdi
.LEHB7:
	call	_Unwind_Resume@PLT
.LEHE7:
.L219:
	addq	$24, %rsp
	popq	%rbx
	popq	%rbp
	.cfi_def_cfa 7, 8
	ret
	.cfi_endproc
.LFE7018:
	.section	.gcc_except_table._ZNSt10filesystem7__cxx114pathC2ERKS1_,"aG",@progbits,_ZNSt10filesystem7__cxx114pathC5ERKS1_,comdat
.LLSDA7018:
	.byte	0xff
	.byte	0xff
	.byte	0x1
	.uleb128 .LLSDACSE7018-.LLSDACSB7018
.LLSDACSB7018:
	.uleb128 .LEHB5-.LFB7018
	.uleb128 .LEHE5-.LEHB5
	.uleb128 0
	.uleb128 0
	.uleb128 .LEHB6-.LFB7018
	.uleb128 .LEHE6-.LEHB6
	.uleb128 .L218-.LFB7018
	.uleb128 0
	.uleb128 .LEHB7-.LFB7018
	.uleb128 .LEHE7-.LEHB7
	.uleb128 0
	.uleb128 0
.LLSDACSE7018:
	.section	.text._ZNSt10filesystem7__cxx114pathC2ERKS1_,"axG",@progbits,_ZNSt10filesystem7__cxx114pathC5ERKS1_,comdat
	.size	_ZNSt10filesystem7__cxx114pathC2ERKS1_, .-_ZNSt10filesystem7__cxx114pathC2ERKS1_
	.weak	_ZNSt10filesystem7__cxx114pathC1ERKS1_
	.set	_ZNSt10filesystem7__cxx114pathC1ERKS1_,_ZNSt10filesystem7__cxx114pathC2ERKS1_
	.section	.text._ZNSt10filesystem7__cxx11dvERKNS0_4pathES3_,"axG",@progbits,_ZNSt10filesystem7__cxx11dvERKNS0_4pathES3_,comdat
	.weak	_ZNSt10filesystem7__cxx11dvERKNS0_4pathES3_
	.type	_ZNSt10filesystem7__cxx11dvERKNS0_4pathES3_, @function
_ZNSt10filesystem7__cxx11dvERKNS0_4pathES3_:
.LFB7016:
	.cfi_startproc
	.cfi_personality 0x9b,DW.ref.__gxx_personality_v0
	.cfi_lsda 0x1b,.LLSDA7016
	endbr64
	pushq	%rbp
	.cfi_def_cfa_offset 16
	.cfi_offset 6, -16
	movq	%rsp, %rbp
	.cfi_def_cfa_register 6
	pushq	%rbx
	subq	$56, %rsp
	.cfi_offset 3, -24
	movq	%rdi, -40(%rbp)
	movq	%rsi, -48(%rbp)
	movq	%rdx, -56(%rbp)
	movq	%fs:40, %rax
	movq	%rax, -24(%rbp)
	xorl	%eax, %eax
	movq	-48(%rbp), %rdx
	movq	-40(%rbp), %rax
	movq	%rdx, %rsi
	movq	%rax, %rdi
.LEHB8:
	call	_ZNSt10filesystem7__cxx114pathC1ERKS1_@PLT
.LEHE8:
	movq	-56(%rbp), %rdx
	movq	-40(%rbp), %rax
	movq	%rdx, %rsi
	movq	%rax, %rdi
.LEHB9:
	call	_ZNSt10filesystem7__cxx114pathdVERKS1_@PLT
.LEHE9:
	jmp	.L225
.L224:
	endbr64
	movq	%rax, %rbx
	movq	-40(%rbp), %rax
	movq	%rax, %rdi
	call	_ZNSt10filesystem7__cxx114pathD1Ev@PLT
	movq	%rbx, %rax
	movq	%rax, %rdi
.LEHB10:
	call	_Unwind_Resume@PLT
.LEHE10:
.L225:
	movq	-24(%rbp), %rax
	xorq	%fs:40, %rax
	je	.L223
	call	__stack_chk_fail@PLT
.L223:
	movq	-40(%rbp), %rax
	addq	$56, %rsp
	popq	%rbx
	popq	%rbp
	.cfi_def_cfa 7, 8
	ret
	.cfi_endproc
.LFE7016:
	.section	.gcc_except_table._ZNSt10filesystem7__cxx11dvERKNS0_4pathES3_,"aG",@progbits,_ZNSt10filesystem7__cxx11dvERKNS0_4pathES3_,comdat
.LLSDA7016:
	.byte	0xff
	.byte	0xff
	.byte	0x1
	.uleb128 .LLSDACSE7016-.LLSDACSB7016
.LLSDACSB7016:
	.uleb128 .LEHB8-.LFB7016
	.uleb128 .LEHE8-.LEHB8
	.uleb128 0
	.uleb128 0
	.uleb128 .LEHB9-.LFB7016
	.uleb128 .LEHE9-.LEHB9
	.uleb128 .L224-.LFB7016
	.uleb128 0
	.uleb128 .LEHB10-.LFB7016
	.uleb128 .LEHE10-.LEHB10
	.uleb128 0
	.uleb128 0
.LLSDACSE7016:
	.section	.text._ZNSt10filesystem7__cxx11dvERKNS0_4pathES3_,"axG",@progbits,_ZNSt10filesystem7__cxx11dvERKNS0_4pathES3_,comdat
	.size	_ZNSt10filesystem7__cxx11dvERKNS0_4pathES3_, .-_ZNSt10filesystem7__cxx11dvERKNS0_4pathES3_
	.section	.text._ZNSt10filesystem7__cxx114path10_S_convertEPKcNS1_17__null_terminatedE,"axG",@progbits,_ZNSt10filesystem7__cxx114path10_S_convertEPKcNS1_17__null_terminatedE,comdat
	.weak	_ZNSt10filesystem7__cxx114path10_S_convertEPKcNS1_17__null_terminatedE
	.type	_ZNSt10filesystem7__cxx114path10_S_convertEPKcNS1_17__null_terminatedE, @function
_ZNSt10filesystem7__cxx114path10_S_convertEPKcNS1_17__null_terminatedE:
.LFB7025:
	.cfi_startproc
	endbr64
	pushq	%rbp
	.cfi_def_cfa_offset 16
	.cfi_offset 6, -16
	movq	%rsp, %rbp
	.cfi_def_cfa_register 6
	subq	$48, %rsp
	movq	%rdi, -40(%rbp)
	movq	%fs:40, %rax
	movq	%rax, -8(%rbp)
	xorl	%eax, %eax
	movq	-40(%rbp), %rdx
	leaq	-32(%rbp), %rax
	movq	%rdx, %rsi
	movq	%rax, %rdi
	call	_ZNSt17basic_string_viewIcSt11char_traitsIcEEC1EPKc@PLT
	movq	-32(%rbp), %rax
	movq	-24(%rbp), %rdx
	movq	-8(%rbp), %rcx
	xorq	%fs:40, %rcx
	je	.L228
	call	__stack_chk_fail@PLT
.L228:
	leave
	.cfi_def_cfa 7, 8
	ret
	.cfi_endproc
.LFE7025:
	.size	_ZNSt10filesystem7__cxx114path10_S_convertEPKcNS1_17__null_terminatedE, .-_ZNSt10filesystem7__cxx114path10_S_convertEPKcNS1_17__null_terminatedE
	.section	.text._ZNSt10filesystem7__cxx114path10_S_convertEPKcS3_,"axG",@progbits,_ZNSt10filesystem7__cxx114path10_S_convertEPKcS3_,comdat
	.weak	_ZNSt10filesystem7__cxx114path10_S_convertEPKcS3_
	.type	_ZNSt10filesystem7__cxx114path10_S_convertEPKcS3_, @function
_ZNSt10filesystem7__cxx114path10_S_convertEPKcS3_:
.LFB7027:
	.cfi_startproc
	endbr64
	pushq	%rbp
	.cfi_def_cfa_offset 16
	.cfi_offset 6, -16
	movq	%rsp, %rbp
	.cfi_def_cfa_register 6
	subq	$48, %rsp
	movq	%rdi, -40(%rbp)
	movq	%rsi, -48(%rbp)
	movq	%fs:40, %rax
	movq	%rax, -8(%rbp)
	xorl	%eax, %eax
	movq	-48(%rbp), %rax
	subq	-40(%rbp), %rax
	movq	%rax, %rdx
	movq	-40(%rbp), %rcx
	leaq	-32(%rbp), %rax
	movq	%rcx, %rsi
	movq	%rax, %rdi
	call	_ZNSt17basic_string_viewIcSt11char_traitsIcEEC1EPKcm@PLT
	movq	-32(%rbp), %rax
	movq	-24(%rbp), %rdx
	movq	-8(%rbp), %rcx
	xorq	%fs:40, %rcx
	je	.L231
	call	__stack_chk_fail@PLT
.L231:
	leave
	.cfi_def_cfa 7, 8
	ret
	.cfi_endproc
.LFE7027:
	.size	_ZNSt10filesystem7__cxx114path10_S_convertEPKcS3_, .-_ZNSt10filesystem7__cxx114path10_S_convertEPKcS3_
	.section	.text._ZNKSt10filesystem7__cxx114path6stringEv,"axG",@progbits,_ZNKSt10filesystem7__cxx114path6stringEv,comdat
	.align 2
	.weak	_ZNKSt10filesystem7__cxx114path6stringEv
	.type	_ZNKSt10filesystem7__cxx114path6stringEv, @function
_ZNKSt10filesystem7__cxx114path6stringEv:
.LFB7079:
	.cfi_startproc
	.cfi_personality 0x9b,DW.ref.__gxx_personality_v0
	.cfi_lsda 0x1b,.LLSDA7079
	endbr64
	pushq	%rbp
	.cfi_def_cfa_offset 16
	.cfi_offset 6, -16
	movq	%rsp, %rbp
	.cfi_def_cfa_register 6
	pushq	%rbx
	subq	$40, %rsp
	.cfi_offset 3, -24
	movq	%rdi, -40(%rbp)
	movq	%rsi, -48(%rbp)
	movq	%fs:40, %rax
	movq	%rax, -24(%rbp)
	xorl	%eax, %eax
	leaq	-25(%rbp), %rax
	movq	%rax, %rdi
	call	_ZNSaIcEC1Ev@PLT
	movq	-40(%rbp), %rax
	leaq	-25(%rbp), %rdx
	movq	-48(%rbp), %rcx
	movq	%rcx, %rsi
	movq	%rax, %rdi
.LEHB11:
	call	_ZNKSt10filesystem7__cxx114path6stringIcSt11char_traitsIcESaIcEEENSt7__cxx1112basic_stringIT_T0_T1_EERKSA_@PLT
.LEHE11:
	leaq	-25(%rbp), %rax
	movq	%rax, %rdi
	call	_ZNSaIcED1Ev@PLT
	movq	-24(%rbp), %rax
	xorq	%fs:40, %rax
	je	.L235
	jmp	.L237
.L236:
	endbr64
	movq	%rax, %rbx
	leaq	-25(%rbp), %rax
	movq	%rax, %rdi
	call	_ZNSaIcED1Ev@PLT
	movq	%rbx, %rax
	movq	%rax, %rdi
.LEHB12:
	call	_Unwind_Resume@PLT
.LEHE12:
.L237:
	call	__stack_chk_fail@PLT
.L235:
	movq	-40(%rbp), %rax
	addq	$40, %rsp
	popq	%rbx
	popq	%rbp
	.cfi_def_cfa 7, 8
	ret
	.cfi_endproc
.LFE7079:
	.section	.gcc_except_table._ZNKSt10filesystem7__cxx114path6stringEv,"aG",@progbits,_ZNKSt10filesystem7__cxx114path6stringEv,comdat
.LLSDA7079:
	.byte	0xff
	.byte	0xff
	.byte	0x1
	.uleb128 .LLSDACSE7079-.LLSDACSB7079
.LLSDACSB7079:
	.uleb128 .LEHB11-.LFB7079
	.uleb128 .LEHE11-.LEHB11
	.uleb128 .L236-.LFB7079
	.uleb128 0
	.uleb128 .LEHB12-.LFB7079
	.uleb128 .LEHE12-.LEHB12
	.uleb128 0
	.uleb128 0
.LLSDACSE7079:
	.section	.text._ZNKSt10filesystem7__cxx114path6stringEv,"axG",@progbits,_ZNKSt10filesystem7__cxx114path6stringEv,comdat
	.size	_ZNKSt10filesystem7__cxx114path6stringEv, .-_ZNKSt10filesystem7__cxx114path6stringEv
	.section	.text._ZNKSt10filesystem11file_status4typeEv,"axG",@progbits,_ZNKSt10filesystem11file_status4typeEv,comdat
	.align 2
	.weak	_ZNKSt10filesystem11file_status4typeEv
	.type	_ZNKSt10filesystem11file_status4typeEv, @function
_ZNKSt10filesystem11file_status4typeEv:
.LFB7112:
	.cfi_startproc
	endbr64
	pushq	%rbp
	.cfi_def_cfa_offset 16
	.cfi_offset 6, -16
	movq	%rsp, %rbp
	.cfi_def_cfa_register 6
	movq	%rdi, -8(%rbp)
	movq	-8(%rbp), %rax
	movzbl	(%rax), %eax
	popq	%rbp
	.cfi_def_cfa 7, 8
	ret
	.cfi_endproc
.LFE7112:
	.size	_ZNKSt10filesystem11file_status4typeEv, .-_ZNKSt10filesystem11file_status4typeEv
	.section	.text._ZNSt10filesystem6existsENS_11file_statusE,"axG",@progbits,_ZNSt10filesystem6existsENS_11file_statusE,comdat
	.weak	_ZNSt10filesystem6existsENS_11file_statusE
	.type	_ZNSt10filesystem6existsENS_11file_statusE, @function
_ZNSt10filesystem6existsENS_11file_statusE:
.LFB7257:
	.cfi_startproc
	endbr64
	pushq	%rbp
	.cfi_def_cfa_offset 16
	.cfi_offset 6, -16
	movq	%rsp, %rbp
	.cfi_def_cfa_register 6
	subq	$16, %rsp
	movq	%rdi, -8(%rbp)
	movq	-8(%rbp), %rax
	movq	%rax, %rdi
	call	_ZNSt10filesystem12status_knownENS_11file_statusE@PLT
	testb	%al, %al
	je	.L241
	leaq	-8(%rbp), %rax
	movq	%rax, %rdi
	call	_ZNKSt10filesystem11file_status4typeEv@PLT
	cmpb	$-1, %al
	je	.L241
	movl	$1, %eax
	jmp	.L242
.L241:
	movl	$0, %eax
.L242:
	leave
	.cfi_def_cfa 7, 8
	ret
	.cfi_endproc
.LFE7257:
	.size	_ZNSt10filesystem6existsENS_11file_statusE, .-_ZNSt10filesystem6existsENS_11file_statusE
	.section	.text._ZNSt10filesystem6existsERKNS_7__cxx114pathE,"axG",@progbits,_ZNSt10filesystem6existsERKNS_7__cxx114pathE,comdat
	.weak	_ZNSt10filesystem6existsERKNS_7__cxx114pathE
	.type	_ZNSt10filesystem6existsERKNS_7__cxx114pathE, @function
_ZNSt10filesystem6existsERKNS_7__cxx114pathE:
.LFB7258:
	.cfi_startproc
	endbr64
	pushq	%rbp
	.cfi_def_cfa_offset 16
	.cfi_offset 6, -16
	movq	%rsp, %rbp
	.cfi_def_cfa_register 6
	subq	$16, %rsp
	movq	%rdi, -8(%rbp)
	movq	-8(%rbp), %rax
	movq	%rax, %rdi
	call	_ZNSt10filesystem6statusERKNS_7__cxx114pathE@PLT
	movq	%rax, %rdi
	call	_ZNSt10filesystem6existsENS_11file_statusE@PLT
	leave
	.cfi_def_cfa 7, 8
	ret
	.cfi_endproc
.LFE7258:
	.size	_ZNSt10filesystem6existsERKNS_7__cxx114pathE, .-_ZNSt10filesystem6existsERKNS_7__cxx114pathE
	.section	.text._ZNSt10filesystem12status_knownENS_11file_statusE,"axG",@progbits,_ZNSt10filesystem12status_knownENS_11file_statusE,comdat
	.weak	_ZNSt10filesystem12status_knownENS_11file_statusE
	.type	_ZNSt10filesystem12status_knownENS_11file_statusE, @function
_ZNSt10filesystem12status_knownENS_11file_statusE:
.LFB7287:
	.cfi_startproc
	endbr64
	pushq	%rbp
	.cfi_def_cfa_offset 16
	.cfi_offset 6, -16
	movq	%rsp, %rbp
	.cfi_def_cfa_register 6
	subq	$16, %rsp
	movq	%rdi, -8(%rbp)
	leaq	-8(%rbp), %rax
	movq	%rax, %rdi
	call	_ZNKSt10filesystem11file_status4typeEv@PLT
	testb	%al, %al
	setne	%al
	leave
	.cfi_def_cfa 7, 8
	ret
	.cfi_endproc
.LFE7287:
	.size	_ZNSt10filesystem12status_knownENS_11file_statusE, .-_ZNSt10filesystem12status_knownENS_11file_statusE
	.section	.rodata
	.align 8
.LC13:
	.ascii	"\n<!DOCTYPE xml>\n<insky_inspection>\n    <collector>\n\n   "
	.ascii	"     <publisher> \n            <attitude           topic=\"/"
	.ascii	"attitude\"           priority=\"low\"    />\n            <av"
	.ascii	"oidance          topic=\"/avoid\"              priority=\"hi"
	.ascii	"ghest\"/>\n            <battery            topic=\"/battery\""
	.ascii	"            priority=\"middle\" />\n            <flying_robo"
	.ascii	"t_state topic=\"/state\"              priority=\"middle\" />"
	.ascii	"\n            <gnss_receiver      topic=\"/coordinate\"     "
	.ascii	"    priority=\"high\"   />\n            <gnss_uncertain     "
	.ascii	"topic=\"/gpsUncertainty\"     priority=\"middle\" />\n      "
	.ascii	"  </publisher>\n\n    </collector>\n\n    <mission>\n\n     "
	.ascii	"   <publisher>\n            <reached            topic=\"/rea"
	.ascii	"ched\"            priority=\"middle\" />\n            <finis"
	.ascii	"hed           topic=\"/finished\"           priority=\"highe"
	.ascii	"st\" />\n            <action_event       topic=\"/action_eve"
	.ascii	"nt\"       priority=\"high\" />\n            <random_event  "
	.ascii	"     topic=\"/random_event\"       priority=\"high\" />\n   "
	.ascii	"     </publisher>\n\n        <client>\n            <start   "
	.ascii	"           topic=\"/start/mission\"      response=\"/respons"
	.ascii	"e\"    priority=\"highest\"/>\n            <append          "
	.ascii	"   topic=\"/set/mission\"        response=\"/response\"    p"
	.ascii	"riority=\"highest\"/>\n            <pause              topic"
	.ascii	"=\"/pause/mission\"      response=\"/response\"    priority="
	.ascii	"\"highest\"/>\n            <resume             topic=\"/resu"
	.ascii	"me/mission\"     response=\"/response\"    priority=\"highes"
	.ascii	"t\"/>\n            <clear              topic=\"/clear/missio"
	.ascii	"n\"      response=\"/response\"    p"
	.string	"riority=\"highest\"/>\n            <return2home        topic=\"/return\"             response=\"/response\"    priority=\"highest\"/>\n        </client>\n\n        <item_limit number=\"1000\"/>\n\n    </mission>\n\n    <video_stream>\n    </video_stream>\n</insky_inspection>\n"
	.section	.data.rel.local,"aw"
	.align 8
	.type	_ZL14config_default, @object
	.size	_ZL14config_default, 8
_ZL14config_default:
	.quad	.LC13
	.section	.rodata
.LC14:
	.string	"insky_inspection_config.xml"
	.section	.data.rel.local
	.align 8
	.type	_ZL19config_default_name, @object
	.size	_ZL19config_default_name, 8
_ZL19config_default_name:
	.quad	.LC14
	.section	.rodata
	.align 4
	.type	_ZL20TIXML2_MAJOR_VERSION, @object
	.size	_ZL20TIXML2_MAJOR_VERSION, 4
_ZL20TIXML2_MAJOR_VERSION:
	.long	6
	.align 4
	.type	_ZL20TIXML2_MINOR_VERSION, @object
	.size	_ZL20TIXML2_MINOR_VERSION, 4
_ZL20TIXML2_MINOR_VERSION:
	.zero	4
	.align 4
	.type	_ZL20TIXML2_PATCH_VERSION, @object
	.size	_ZL20TIXML2_PATCH_VERSION, 4
_ZL20TIXML2_PATCH_VERSION:
	.zero	4
	.section	.text._ZN8tinyxml27XMLNode17FirstChildElementEPKc,"axG",@progbits,_ZN8tinyxml27XMLNode17FirstChildElementEPKc,comdat
	.align 2
	.weak	_ZN8tinyxml27XMLNode17FirstChildElementEPKc
	.type	_ZN8tinyxml27XMLNode17FirstChildElementEPKc, @function
_ZN8tinyxml27XMLNode17FirstChildElementEPKc:
.LFB7367:
	.cfi_startproc
	endbr64
	pushq	%rbp
	.cfi_def_cfa_offset 16
	.cfi_offset 6, -16
	movq	%rsp, %rbp
	.cfi_def_cfa_register 6
	subq	$16, %rsp
	movq	%rdi, -8(%rbp)
	movq	%rsi, -16(%rbp)
	movq	-16(%rbp), %rdx
	movq	-8(%rbp), %rax
	movq	%rdx, %rsi
	movq	%rax, %rdi
	call	_ZNK8tinyxml27XMLNode17FirstChildElementEPKc@PLT
	leave
	.cfi_def_cfa 7, 8
	ret
	.cfi_endproc
.LFE7367:
	.size	_ZN8tinyxml27XMLNode17FirstChildElementEPKc, .-_ZN8tinyxml27XMLNode17FirstChildElementEPKc
	.local	_ZStL8__ioinit
	.comm	_ZStL8__ioinit,1,1
	.section	.text._ZNSt12_Vector_baseISt10unique_ptrI19InspectionSubServerSt14default_deleteIS1_EESaIS4_EE12_Vector_implD2Ev,"axG",@progbits,_ZNSt12_Vector_baseISt10unique_ptrI19InspectionSubServerSt14default_deleteIS1_EESaIS4_EE12_Vector_implD5Ev,comdat
	.align 2
	.weak	_ZNSt12_Vector_baseISt10unique_ptrI19InspectionSubServerSt14default_deleteIS1_EESaIS4_EE12_Vector_implD2Ev
	.type	_ZNSt12_Vector_baseISt10unique_ptrI19InspectionSubServerSt14default_deleteIS1_EESaIS4_EE12_Vector_implD2Ev, @function
_ZNSt12_Vector_baseISt10unique_ptrI19InspectionSubServerSt14default_deleteIS1_EESaIS4_EE12_Vector_implD2Ev:
.LFB7603:
	.cfi_startproc
	endbr64
	pushq	%rbp
	.cfi_def_cfa_offset 16
	.cfi_offset 6, -16
	movq	%rsp, %rbp
	.cfi_def_cfa_register 6
	subq	$16, %rsp
	movq	%rdi, -8(%rbp)
	movq	-8(%rbp), %rax
	movq	%rax, %rdi
	call	_ZNSaISt10unique_ptrI19InspectionSubServerSt14default_deleteIS0_EEED2Ev@PLT
	nop
	leave
	.cfi_def_cfa 7, 8
	ret
	.cfi_endproc
.LFE7603:
	.size	_ZNSt12_Vector_baseISt10unique_ptrI19InspectionSubServerSt14default_deleteIS1_EESaIS4_EE12_Vector_implD2Ev, .-_ZNSt12_Vector_baseISt10unique_ptrI19InspectionSubServerSt14default_deleteIS1_EESaIS4_EE12_Vector_implD2Ev
	.weak	_ZNSt12_Vector_baseISt10unique_ptrI19InspectionSubServerSt14default_deleteIS1_EESaIS4_EE12_Vector_implD1Ev
	.set	_ZNSt12_Vector_baseISt10unique_ptrI19InspectionSubServerSt14default_deleteIS1_EESaIS4_EE12_Vector_implD1Ev,_ZNSt12_Vector_baseISt10unique_ptrI19InspectionSubServerSt14default_deleteIS1_EESaIS4_EE12_Vector_implD2Ev
	.section	.text._ZNSt12_Vector_baseISt10unique_ptrI19InspectionSubServerSt14default_deleteIS1_EESaIS4_EEC2Ev,"axG",@progbits,_ZNSt12_Vector_baseISt10unique_ptrI19InspectionSubServerSt14default_deleteIS1_EESaIS4_EEC5Ev,comdat
	.align 2
	.weak	_ZNSt12_Vector_baseISt10unique_ptrI19InspectionSubServerSt14default_deleteIS1_EESaIS4_EEC2Ev
	.type	_ZNSt12_Vector_baseISt10unique_ptrI19InspectionSubServerSt14default_deleteIS1_EESaIS4_EEC2Ev, @function
_ZNSt12_Vector_baseISt10unique_ptrI19InspectionSubServerSt14default_deleteIS1_EESaIS4_EEC2Ev:
.LFB7605:
	.cfi_startproc
	endbr64
	pushq	%rbp
	.cfi_def_cfa_offset 16
	.cfi_offset 6, -16
	movq	%rsp, %rbp
	.cfi_def_cfa_register 6
	subq	$16, %rsp
	movq	%rdi, -8(%rbp)
	movq	-8(%rbp), %rax
	movq	%rax, %rdi
	call	_ZNSt12_Vector_baseISt10unique_ptrI19InspectionSubServerSt14default_deleteIS1_EESaIS4_EE12_Vector_implC1Ev@PLT
	nop
	leave
	.cfi_def_cfa 7, 8
	ret
	.cfi_endproc
.LFE7605:
	.size	_ZNSt12_Vector_baseISt10unique_ptrI19InspectionSubServerSt14default_deleteIS1_EESaIS4_EEC2Ev, .-_ZNSt12_Vector_baseISt10unique_ptrI19InspectionSubServerSt14default_deleteIS1_EESaIS4_EEC2Ev
	.weak	_ZNSt12_Vector_baseISt10unique_ptrI19InspectionSubServerSt14default_deleteIS1_EESaIS4_EEC1Ev
	.set	_ZNSt12_Vector_baseISt10unique_ptrI19InspectionSubServerSt14default_deleteIS1_EESaIS4_EEC1Ev,_ZNSt12_Vector_baseISt10unique_ptrI19InspectionSubServerSt14default_deleteIS1_EESaIS4_EEC2Ev
	.section	.text._ZNSt6vectorISt10unique_ptrI19InspectionSubServerSt14default_deleteIS1_EESaIS4_EEC2Ev,"axG",@progbits,_ZNSt6vectorISt10unique_ptrI19InspectionSubServerSt14default_deleteIS1_EESaIS4_EEC5Ev,comdat
	.align 2
	.weak	_ZNSt6vectorISt10unique_ptrI19InspectionSubServerSt14default_deleteIS1_EESaIS4_EEC2Ev
	.type	_ZNSt6vectorISt10unique_ptrI19InspectionSubServerSt14default_deleteIS1_EESaIS4_EEC2Ev, @function
_ZNSt6vectorISt10unique_ptrI19InspectionSubServerSt14default_deleteIS1_EESaIS4_EEC2Ev:
.LFB7607:
	.cfi_startproc
	endbr64
	pushq	%rbp
	.cfi_def_cfa_offset 16
	.cfi_offset 6, -16
	movq	%rsp, %rbp
	.cfi_def_cfa_register 6
	subq	$16, %rsp
	movq	%rdi, -8(%rbp)
	movq	-8(%rbp), %rax
	movq	%rax, %rdi
	call	_ZNSt12_Vector_baseISt10unique_ptrI19InspectionSubServerSt14default_deleteIS1_EESaIS4_EEC2Ev@PLT
	nop
	leave
	.cfi_def_cfa 7, 8
	ret
	.cfi_endproc
.LFE7607:
	.size	_ZNSt6vectorISt10unique_ptrI19InspectionSubServerSt14default_deleteIS1_EESaIS4_EEC2Ev, .-_ZNSt6vectorISt10unique_ptrI19InspectionSubServerSt14default_deleteIS1_EESaIS4_EEC2Ev
	.weak	_ZNSt6vectorISt10unique_ptrI19InspectionSubServerSt14default_deleteIS1_EESaIS4_EEC1Ev
	.set	_ZNSt6vectorISt10unique_ptrI19InspectionSubServerSt14default_deleteIS1_EESaIS4_EEC1Ev,_ZNSt6vectorISt10unique_ptrI19InspectionSubServerSt14default_deleteIS1_EESaIS4_EEC2Ev
	.section	.text._ZNSt12__shared_ptrIN6spdlog6loggerELN9__gnu_cxx12_Lock_policyE2EED2Ev,"axG",@progbits,_ZNSt12__shared_ptrIN6spdlog6loggerELN9__gnu_cxx12_Lock_policyE2EED5Ev,comdat
	.align 2
	.weak	_ZNSt12__shared_ptrIN6spdlog6loggerELN9__gnu_cxx12_Lock_policyE2EED2Ev
	.type	_ZNSt12__shared_ptrIN6spdlog6loggerELN9__gnu_cxx12_Lock_policyE2EED2Ev, @function
_ZNSt12__shared_ptrIN6spdlog6loggerELN9__gnu_cxx12_Lock_policyE2EED2Ev:
.LFB7611:
	.cfi_startproc
	endbr64
	pushq	%rbp
	.cfi_def_cfa_offset 16
	.cfi_offset 6, -16
	movq	%rsp, %rbp
	.cfi_def_cfa_register 6
	subq	$16, %rsp
	movq	%rdi, -8(%rbp)
	movq	-8(%rbp), %rax
	addq	$8, %rax
	movq	%rax, %rdi
	call	_ZNSt14__shared_countILN9__gnu_cxx12_Lock_policyE2EED1Ev@PLT
	nop
	leave
	.cfi_def_cfa 7, 8
	ret
	.cfi_endproc
.LFE7611:
	.size	_ZNSt12__shared_ptrIN6spdlog6loggerELN9__gnu_cxx12_Lock_policyE2EED2Ev, .-_ZNSt12__shared_ptrIN6spdlog6loggerELN9__gnu_cxx12_Lock_policyE2EED2Ev
	.weak	_ZNSt12__shared_ptrIN6spdlog6loggerELN9__gnu_cxx12_Lock_policyE2EED1Ev
	.set	_ZNSt12__shared_ptrIN6spdlog6loggerELN9__gnu_cxx12_Lock_policyE2EED1Ev,_ZNSt12__shared_ptrIN6spdlog6loggerELN9__gnu_cxx12_Lock_policyE2EED2Ev
	.section	.text._ZNSt10shared_ptrIN6spdlog6loggerEED2Ev,"axG",@progbits,_ZNSt10shared_ptrIN6spdlog6loggerEED5Ev,comdat
	.align 2
	.weak	_ZNSt10shared_ptrIN6spdlog6loggerEED2Ev
	.type	_ZNSt10shared_ptrIN6spdlog6loggerEED2Ev, @function
_ZNSt10shared_ptrIN6spdlog6loggerEED2Ev:
.LFB7613:
	.cfi_startproc
	endbr64
	pushq	%rbp
	.cfi_def_cfa_offset 16
	.cfi_offset 6, -16
	movq	%rsp, %rbp
	.cfi_def_cfa_register 6
	subq	$16, %rsp
	movq	%rdi, -8(%rbp)
	movq	-8(%rbp), %rax
	movq	%rax, %rdi
	call	_ZNSt12__shared_ptrIN6spdlog6loggerELN9__gnu_cxx12_Lock_policyE2EED2Ev@PLT
	nop
	leave
	.cfi_def_cfa 7, 8
	ret
	.cfi_endproc
.LFE7613:
	.size	_ZNSt10shared_ptrIN6spdlog6loggerEED2Ev, .-_ZNSt10shared_ptrIN6spdlog6loggerEED2Ev
	.weak	_ZNSt10shared_ptrIN6spdlog6loggerEED1Ev
	.set	_ZNSt10shared_ptrIN6spdlog6loggerEED1Ev,_ZNSt10shared_ptrIN6spdlog6loggerEED2Ev
	.section	.text._ZNSt12__shared_ptrI11MsgUploaderLN9__gnu_cxx12_Lock_policyE2EED2Ev,"axG",@progbits,_ZNSt12__shared_ptrI11MsgUploaderLN9__gnu_cxx12_Lock_policyE2EED5Ev,comdat
	.align 2
	.weak	_ZNSt12__shared_ptrI11MsgUploaderLN9__gnu_cxx12_Lock_policyE2EED2Ev
	.type	_ZNSt12__shared_ptrI11MsgUploaderLN9__gnu_cxx12_Lock_policyE2EED2Ev, @function
_ZNSt12__shared_ptrI11MsgUploaderLN9__gnu_cxx12_Lock_policyE2EED2Ev:
.LFB7617:
	.cfi_startproc
	endbr64
	pushq	%rbp
	.cfi_def_cfa_offset 16
	.cfi_offset 6, -16
	movq	%rsp, %rbp
	.cfi_def_cfa_register 6
	subq	$16, %rsp
	movq	%rdi, -8(%rbp)
	movq	-8(%rbp), %rax
	addq	$8, %rax
	movq	%rax, %rdi
	call	_ZNSt14__shared_countILN9__gnu_cxx12_Lock_policyE2EED1Ev@PLT
	nop
	leave
	.cfi_def_cfa 7, 8
	ret
	.cfi_endproc
.LFE7617:
	.size	_ZNSt12__shared_ptrI11MsgUploaderLN9__gnu_cxx12_Lock_policyE2EED2Ev, .-_ZNSt12__shared_ptrI11MsgUploaderLN9__gnu_cxx12_Lock_policyE2EED2Ev
	.weak	_ZNSt12__shared_ptrI11MsgUploaderLN9__gnu_cxx12_Lock_policyE2EED1Ev
	.set	_ZNSt12__shared_ptrI11MsgUploaderLN9__gnu_cxx12_Lock_policyE2EED1Ev,_ZNSt12__shared_ptrI11MsgUploaderLN9__gnu_cxx12_Lock_policyE2EED2Ev
	.section	.text._ZNSt10shared_ptrI11MsgUploaderED2Ev,"axG",@progbits,_ZNSt10shared_ptrI11MsgUploaderED5Ev,comdat
	.align 2
	.weak	_ZNSt10shared_ptrI11MsgUploaderED2Ev
	.type	_ZNSt10shared_ptrI11MsgUploaderED2Ev, @function
_ZNSt10shared_ptrI11MsgUploaderED2Ev:
.LFB7619:
	.cfi_startproc
	endbr64
	pushq	%rbp
	.cfi_def_cfa_offset 16
	.cfi_offset 6, -16
	movq	%rsp, %rbp
	.cfi_def_cfa_register 6
	subq	$16, %rsp
	movq	%rdi, -8(%rbp)
	movq	-8(%rbp), %rax
	movq	%rax, %rdi
	call	_ZNSt12__shared_ptrI11MsgUploaderLN9__gnu_cxx12_Lock_policyE2EED2Ev@PLT
	nop
	leave
	.cfi_def_cfa 7, 8
	ret
	.cfi_endproc
.LFE7619:
	.size	_ZNSt10shared_ptrI11MsgUploaderED2Ev, .-_ZNSt10shared_ptrI11MsgUploaderED2Ev
	.weak	_ZNSt10shared_ptrI11MsgUploaderED1Ev
	.set	_ZNSt10shared_ptrI11MsgUploaderED1Ev,_ZNSt10shared_ptrI11MsgUploaderED2Ev
	.section	.text._ZN21InskyInspectionServer4ImplC2EPS_,"axG",@progbits,_ZN21InskyInspectionServer4ImplC5EPS_,comdat
	.align 2
	.weak	_ZN21InskyInspectionServer4ImplC2EPS_
	.type	_ZN21InskyInspectionServer4ImplC2EPS_, @function
_ZN21InskyInspectionServer4ImplC2EPS_:
.LFB7621:
	.cfi_startproc
	endbr64
	pushq	%rbp
	.cfi_def_cfa_offset 16
	.cfi_offset 6, -16
	movq	%rsp, %rbp
	.cfi_def_cfa_register 6
	subq	$16, %rsp
	movq	%rdi, -8(%rbp)
	movq	%rsi, -16(%rbp)
	movq	-8(%rbp), %rax
	movq	-16(%rbp), %rdx
	movq	%rdx, (%rax)
	movq	-8(%rbp), %rax
	addq	$8, %rax
	movl	$0, %edx
	movl	$1, %esi
	movq	%rax, %rdi
	call	_ZN8tinyxml211XMLDocumentC1EbNS_10WhitespaceE@PLT
	movq	-8(%rbp), %rax
	addq	$792, %rax
	movq	%rax, %rdi
	call	_ZNSt6vectorISt10unique_ptrI19InspectionSubServerSt14default_deleteIS1_EESaIS4_EEC1Ev@PLT
	movq	-8(%rbp), %rax
	addq	$816, %rax
	movq	%rax, %rdi
	call	_ZNSt7__cxx1112basic_stringIcSt11char_traitsIcESaIcEEC1Ev@PLT
	movq	-8(%rbp), %rax
	addq	$856, %rax
	movq	%rax, %rdi
	call	_ZNSt10shared_ptrIN6spdlog6loggerEEC1Ev@PLT
	movq	-8(%rbp), %rax
	addq	$872, %rax
	movq	%rax, %rdi
	call	_ZNSt7__cxx1112basic_stringIcSt11char_traitsIcESaIcEEC1Ev@PLT
	movq	-8(%rbp), %rax
	addq	$904, %rax
	movq	%rax, %rdi
	call	_ZNSt10shared_ptrI20RIOTFrameworkContextEC1Ev@PLT
	movq	-8(%rbp), %rax
	addq	$920, %rax
	movq	%rax, %rdi
	call	_ZNSt10shared_ptrI11MsgUploaderEC1Ev@PLT
	nop
	leave
	.cfi_def_cfa 7, 8
	ret
	.cfi_endproc
.LFE7621:
	.size	_ZN21InskyInspectionServer4ImplC2EPS_, .-_ZN21InskyInspectionServer4ImplC2EPS_
	.weak	_ZN21InskyInspectionServer4ImplC1EPS_
	.set	_ZN21InskyInspectionServer4ImplC1EPS_,_ZN21InskyInspectionServer4ImplC2EPS_
	.section	.rodata
.LC15:
	.string	"Config file create failed!"
	.section	.text._ZN21InskyInspectionServer4Impl24installDefaultConfigFileEv,"axG",@progbits,_ZN21InskyInspectionServer4Impl24installDefaultConfigFileEv,comdat
	.align 2
	.weak	_ZN21InskyInspectionServer4Impl24installDefaultConfigFileEv
	.type	_ZN21InskyInspectionServer4Impl24installDefaultConfigFileEv, @function
_ZN21InskyInspectionServer4Impl24installDefaultConfigFileEv:
.LFB7623:
	.cfi_startproc
	.cfi_personality 0x9b,DW.ref.__gxx_personality_v0
	.cfi_lsda 0x1b,.LLSDA7623
	endbr64
	pushq	%rbp
	.cfi_def_cfa_offset 16
	.cfi_offset 6, -16
	movq	%rsp, %rbp
	.cfi_def_cfa_register 6
	pushq	%rbx
	subq	$552, %rsp
	.cfi_offset 3, -24
	movq	%rdi, -552(%rbp)
	movq	%fs:40, %rax
	movq	%rax, -24(%rbp)
	xorl	%eax, %eax
	movl	$16, %esi
	movl	$4, %edi
	call	_ZStorSt13_Ios_OpenmodeS_@PLT
	movl	%eax, %edx
	movq	-552(%rbp), %rax
	leaq	816(%rax), %rcx
	leaq	-544(%rbp), %rax
	movq	%rcx, %rsi
	movq	%rax, %rdi
.LEHB13:
	call	_ZNSt14basic_ofstreamIcSt11char_traitsIcEEC1ERKNSt7__cxx1112basic_stringIcS1_SaIcEEESt13_Ios_Openmode@PLT
.LEHE13:
	movq	_ZL14config_default(%rip), %rdx
	leaq	-544(%rbp), %rax
	movq	%rdx, %rsi
	movq	%rax, %rdi
.LEHB14:
	call	_ZStlsISt11char_traitsIcEERSt13basic_ostreamIcT_ES5_PKc@PLT
	leaq	-544(%rbp), %rax
	addq	$248, %rax
	movq	%rax, %rdi
	call	_ZNKSt9basic_iosIcSt11char_traitsIcEE3badEv@PLT
	testb	%al, %al
	je	.L259
	movq	-552(%rbp), %rax
	addq	$856, %rax
	movq	%rax, %rdi
	call	_ZNKSt19__shared_ptr_accessIN6spdlog6loggerELN9__gnu_cxx12_Lock_policyE2ELb0ELb0EEptEv@PLT
	leaq	.LC15(%rip), %rsi
	movq	%rax, %rdi
	call	_ZN6spdlog6logger5errorIA27_cEEvRKT_@PLT
	leaq	-544(%rbp), %rax
	movq	%rax, %rdi
	call	_ZNSt14basic_ofstreamIcSt11char_traitsIcEE5closeEv@PLT
	movl	$0, %ebx
	jmp	.L260
.L259:
	leaq	-544(%rbp), %rax
	movq	%rax, %rdi
	call	_ZNSt14basic_ofstreamIcSt11char_traitsIcEE5closeEv@PLT
.LEHE14:
	movl	$1, %ebx
.L260:
	leaq	-544(%rbp), %rax
	movq	%rax, %rdi
	call	_ZNSt14basic_ofstreamIcSt11char_traitsIcEED1Ev@PLT
	movl	%ebx, %eax
	movq	-24(%rbp), %rcx
	xorq	%fs:40, %rcx
	je	.L263
	jmp	.L265
.L264:
	endbr64
	movq	%rax, %rbx
	leaq	-544(%rbp), %rax
	movq	%rax, %rdi
	call	_ZNSt14basic_ofstreamIcSt11char_traitsIcEED1Ev@PLT
	movq	%rbx, %rax
	movq	%rax, %rdi
.LEHB15:
	call	_Unwind_Resume@PLT
.LEHE15:
.L265:
	call	__stack_chk_fail@PLT
.L263:
	addq	$552, %rsp
	popq	%rbx
	popq	%rbp
	.cfi_def_cfa 7, 8
	ret
	.cfi_endproc
.LFE7623:
	.section	.gcc_except_table._ZN21InskyInspectionServer4Impl24installDefaultConfigFileEv,"aG",@progbits,_ZN21InskyInspectionServer4Impl24installDefaultConfigFileEv,comdat
.LLSDA7623:
	.byte	0xff
	.byte	0xff
	.byte	0x1
	.uleb128 .LLSDACSE7623-.LLSDACSB7623
.LLSDACSB7623:
	.uleb128 .LEHB13-.LFB7623
	.uleb128 .LEHE13-.LEHB13
	.uleb128 0
	.uleb128 0
	.uleb128 .LEHB14-.LFB7623
	.uleb128 .LEHE14-.LEHB14
	.uleb128 .L264-.LFB7623
	.uleb128 0
	.uleb128 .LEHB15-.LFB7623
	.uleb128 .LEHE15-.LEHB15
	.uleb128 0
	.uleb128 0
.LLSDACSE7623:
	.section	.text._ZN21InskyInspectionServer4Impl24installDefaultConfigFileEv,"axG",@progbits,_ZN21InskyInspectionServer4Impl24installDefaultConfigFileEv,comdat
	.size	_ZN21InskyInspectionServer4Impl24installDefaultConfigFileEv, .-_ZN21InskyInspectionServer4Impl24installDefaultConfigFileEv
	.section	.rodata
	.align 8
.LC16:
	.string	"install sender config file error"
.LC17:
	.string	"loading config file..."
.LC18:
	.string	"Can not parse config file {}"
.LC19:
	.string	"insky_inspection"
	.align 8
.LC20:
	.string	"Can not find element: insky_inspection"
.LC21:
	.string	"start creating subserver: {}"
	.align 8
.LC22:
	.string	"subserver {} initialize failed!"
	.align 8
.LC23:
	.string	"subserver {} initialize success!"
	.section	.text._ZN21InskyInspectionServer4Impl4initESt10shared_ptrI20RIOTFrameworkContextE,"axG",@progbits,_ZN21InskyInspectionServer4Impl4initESt10shared_ptrI20RIOTFrameworkContextE,comdat
	.align 2
	.weak	_ZN21InskyInspectionServer4Impl4initESt10shared_ptrI20RIOTFrameworkContextE
	.type	_ZN21InskyInspectionServer4Impl4initESt10shared_ptrI20RIOTFrameworkContextE, @function
_ZN21InskyInspectionServer4Impl4initESt10shared_ptrI20RIOTFrameworkContextE:
.LFB7624:
	.cfi_startproc
	.cfi_personality 0x9b,DW.ref.__gxx_personality_v0
	.cfi_lsda 0x1b,.LLSDA7624
	endbr64
	pushq	%rbp
	.cfi_def_cfa_offset 16
	.cfi_offset 6, -16
	movq	%rsp, %rbp
	.cfi_def_cfa_register 6
	pushq	%r12
	pushq	%rbx
	subq	$304, %rsp
	.cfi_offset 12, -24
	.cfi_offset 3, -32
	movq	%rdi, -312(%rbp)
	movq	%rsi, -320(%rbp)
	movq	%fs:40, %rax
	movq	%rax, -24(%rbp)
	xorl	%eax, %eax
	movq	-320(%rbp), %rax
	movq	%rax, %rdi
	call	_ZSt4moveIRSt10shared_ptrI20RIOTFrameworkContextEEONSt16remove_referenceIT_E4typeEOS5_@PLT
	movq	%rax, %rdx
	movq	-312(%rbp), %rax
	addq	$904, %rax
	movq	%rdx, %rsi
	movq	%rax, %rdi
	call	_ZNSt10shared_ptrI20RIOTFrameworkContextEaSEOS1_@PLT
	movq	-312(%rbp), %rax
	addq	$904, %rax
	movq	%rax, %rdi
	call	_ZNKSt19__shared_ptr_accessI20RIOTFrameworkContextLN9__gnu_cxx12_Lock_policyE2ELb0ELb0EEptEv@PLT
	movq	%rax, %rdi
.LEHB16:
	call	_ZN20RIOTFrameworkContext16environment_infoEv@PLT
	movq	%rax, %rdi
	call	_ZNKSt10unique_ptrI16FrameWorkEnvInfoSt14default_deleteIS0_EEptEv@PLT
	movq	%rax, %rdx
	leaq	-224(%rbp), %rax
	movq	%rdx, %rsi
	movq	%rax, %rdi
	call	_ZN16FrameWorkEnvInfo13global_loggerEv@PLT
	movq	-312(%rbp), %rax
	leaq	856(%rax), %rdx
	leaq	-224(%rbp), %rax
	movq	%rax, %rsi
	movq	%rdx, %rdi
	call	_ZNSt10shared_ptrIN6spdlog6loggerEEaSEOS2_@PLT
	leaq	-224(%rbp), %rax
	movq	%rax, %rdi
	call	_ZNSt10shared_ptrIN6spdlog6loggerEED1Ev@PLT
	movq	-312(%rbp), %rax
	addq	$904, %rax
	movq	%rax, %rdi
	call	_ZNKSt19__shared_ptr_accessI20RIOTFrameworkContextLN9__gnu_cxx12_Lock_policyE2ELb0ELb0EEptEv@PLT
	movq	%rax, %rdi
	call	_ZN20RIOTFrameworkContext16environment_infoEv@PLT
	movq	%rax, %rdi
	call	_ZNKSt10unique_ptrI16FrameWorkEnvInfoSt14default_deleteIS0_EEptEv@PLT
	movq	%rax, %rdi
	call	_ZN16FrameWorkEnvInfo18global_config_pathB5cxx11Ev@PLT
	movq	%rax, %rcx
	leaq	-160(%rbp), %rax
	movl	$2, %edx
	movq	%rcx, %rsi
	movq	%rax, %rdi
	call	_ZNSt10filesystem7__cxx114pathC1INSt7__cxx1112basic_stringIcSt11char_traitsIcESaIcEEES1_EERKT_NS1_6formatE@PLT
.LEHE16:
	leaq	-112(%rbp), %rax
	movl	$2, %edx
	leaq	_ZL19config_default_name(%rip), %rsi
	movq	%rax, %rdi
.LEHB17:
	call	_ZNSt10filesystem7__cxx114pathC1IPKcS1_EERKT_NS1_6formatE@PLT
.LEHE17:
	leaq	-64(%rbp), %rax
	leaq	-112(%rbp), %rdx
	leaq	-160(%rbp), %rcx
	movq	%rcx, %rsi
	movq	%rax, %rdi
.LEHB18:
	call	_ZNSt10filesystem7__cxx11dvERKNS0_4pathES3_@PLT
.LEHE18:
	leaq	-192(%rbp), %rax
	leaq	-64(%rbp), %rdx
	movq	%rdx, %rsi
	movq	%rax, %rdi
.LEHB19:
	call	_ZNKSt10filesystem7__cxx114path6stringEv@PLT
.LEHE19:
	movq	-312(%rbp), %rax
	leaq	816(%rax), %rdx
	leaq	-192(%rbp), %rax
	movq	%rax, %rsi
	movq	%rdx, %rdi
	call	_ZNSt7__cxx1112basic_stringIcSt11char_traitsIcESaIcEEaSEOS4_@PLT
	leaq	-192(%rbp), %rax
	movq	%rax, %rdi
	call	_ZNSt7__cxx1112basic_stringIcSt11char_traitsIcESaIcEED1Ev@PLT
	leaq	-64(%rbp), %rax
	movq	%rax, %rdi
	call	_ZNSt10filesystem7__cxx114pathD1Ev@PLT
	leaq	-112(%rbp), %rax
	movq	%rax, %rdi
	call	_ZNSt10filesystem7__cxx114pathD1Ev@PLT
	movq	-312(%rbp), %rax
	leaq	816(%rax), %rcx
	leaq	-64(%rbp), %rax
	movl	$2, %edx
	movq	%rcx, %rsi
	movq	%rax, %rdi
.LEHB20:
	call	_ZNSt10filesystem7__cxx114pathC1INSt7__cxx1112basic_stringIcSt11char_traitsIcESaIcEEES1_EERKT_NS1_6formatE@PLT
.LEHE20:
	leaq	-64(%rbp), %rax
	movq	%rax, %rdi
.LEHB21:
	call	_ZNSt10filesystem6existsERKNS_7__cxx114pathE@PLT
.LEHE21:
	xorl	$1, %eax
	movl	%eax, %ebx
	leaq	-64(%rbp), %rax
	movq	%rax, %rdi
	call	_ZNSt10filesystem7__cxx114pathD1Ev@PLT
	testb	%bl, %bl
	je	.L267
	movq	-312(%rbp), %rax
	movq	%rax, %rdi
.LEHB22:
	call	_ZN21InskyInspectionServer4Impl24installDefaultConfigFileEv@PLT
	xorl	$1, %eax
	testb	%al, %al
	je	.L267
	movq	-312(%rbp), %rax
	addq	$856, %rax
	movq	%rax, %rdi
	call	_ZNKSt19__shared_ptr_accessIN6spdlog6loggerELN9__gnu_cxx12_Lock_policyE2ELb0ELb0EEptEv@PLT
	leaq	.LC16(%rip), %rsi
	movq	%rax, %rdi
	call	_ZN6spdlog6logger5errorIA33_cEEvRKT_@PLT
	movq	-312(%rbp), %rax
	movl	$2, 848(%rax)
	movl	$0, %r12d
	jmp	.L268
.L267:
	movq	-312(%rbp), %rax
	addq	$856, %rax
	movq	%rax, %rdi
	call	_ZNKSt19__shared_ptr_accessIN6spdlog6loggerELN9__gnu_cxx12_Lock_policyE2ELb0ELb0EEptEv@PLT
	leaq	.LC17(%rip), %rsi
	movq	%rax, %rdi
	call	_ZN6spdlog6logger4infoIA23_cEEvRKT_@PLT
	movq	-312(%rbp), %rax
	leaq	8(%rax), %rbx
	movq	-312(%rbp), %rax
	addq	$816, %rax
	movq	%rax, %rdi
	call	_ZNKSt7__cxx1112basic_stringIcSt11char_traitsIcESaIcEE5c_strEv@PLT
	movq	%rax, %rsi
	movq	%rbx, %rdi
	call	_ZN8tinyxml211XMLDocument8LoadFileEPKc@PLT
	movl	%eax, -292(%rbp)
	cmpl	$0, -292(%rbp)
	je	.L269
	movq	-312(%rbp), %rax
	addq	$856, %rax
	movq	%rax, %rdi
	call	_ZNKSt19__shared_ptr_accessIN6spdlog6loggerELN9__gnu_cxx12_Lock_policyE2ELb0ELb0EEptEv@PLT
	movq	%rax, %r12
	movq	-312(%rbp), %rax
	leaq	816(%rax), %rbx
	leaq	-224(%rbp), %rax
	leaq	.LC18(%rip), %rsi
	movq	%rax, %rdi
	call	_ZN3fmt2v617basic_string_viewIcEC1EPKc@PLT
	movq	-224(%rbp), %rdx
	movq	-216(%rbp), %rax
	movq	%rbx, %rcx
	movq	%rdx, %rsi
	movq	%rax, %rdx
	movq	%r12, %rdi
	call	_ZN6spdlog6logger5errorIJNSt7__cxx1112basic_stringIcSt11char_traitsIcESaIcEEEEEEvN3fmt2v617basic_string_viewIcEEDpRKT_@PLT
	movl	$0, %r12d
	jmp	.L268
.L269:
	movq	-312(%rbp), %rax
	addq	$8, %rax
	leaq	.LC19(%rip), %rsi
	movq	%rax, %rdi
	call	_ZN8tinyxml27XMLNode17FirstChildElementEPKc@PLT
	movq	-312(%rbp), %rdx
	movq	%rax, 784(%rdx)
	movq	-312(%rbp), %rax
	movq	784(%rax), %rax
	testq	%rax, %rax
	jne	.L270
	movq	-312(%rbp), %rax
	addq	$856, %rax
	movq	%rax, %rdi
	call	_ZNKSt19__shared_ptr_accessIN6spdlog6loggerELN9__gnu_cxx12_Lock_policyE2ELb0ELb0EEptEv@PLT
	leaq	.LC20(%rip), %rsi
	movq	%rax, %rdi
	call	_ZN6spdlog6logger5errorIA39_cEEvRKT_@PLT
	movl	$0, %r12d
	jmp	.L268
.L270:
	leaq	-224(%rbp), %rax
	movq	%rax, %rdi
	call	_ZN17SubServerRegister17registedSubServerB5cxx11Ev@PLT
.LEHE22:
	leaq	-224(%rbp), %rax
	movq	%rax, -264(%rbp)
	movq	-264(%rbp), %rax
	movq	%rax, %rdi
	call	_ZNSt6vectorISt4pairINSt7__cxx1112basic_stringIcSt11char_traitsIcESaIcEEESt8functionIFSt10unique_ptrI19InspectionSubServerSt14default_deleteIS9_EEvEEESaISF_EE5beginEv@PLT
	movq	%rax, -288(%rbp)
	movq	-264(%rbp), %rax
	movq	%rax, %rdi
	call	_ZNSt6vectorISt4pairINSt7__cxx1112basic_stringIcSt11char_traitsIcESaIcEEESt8functionIFSt10unique_ptrI19InspectionSubServerSt14default_deleteIS9_EEvEEESaISF_EE3endEv@PLT
	movq	%rax, -280(%rbp)
.L275:
	leaq	-280(%rbp), %rdx
	leaq	-288(%rbp), %rax
	movq	%rdx, %rsi
	movq	%rax, %rdi
	call	_ZN9__gnu_cxxneIPSt4pairINSt7__cxx1112basic_stringIcSt11char_traitsIcESaIcEEESt8functionIFSt10unique_ptrI19InspectionSubServerSt14default_deleteISA_EEvEEESt6vectorISG_SaISG_EEEEbRKNS_17__normal_iteratorIT_T0_EESQ_@PLT
	testb	%al, %al
	je	.L271
	leaq	-288(%rbp), %rax
	movq	%rax, %rdi
	call	_ZNK9__gnu_cxx17__normal_iteratorIPSt4pairINSt7__cxx1112basic_stringIcSt11char_traitsIcESaIcEEESt8functionIFSt10unique_ptrI19InspectionSubServerSt14default_deleteISA_EEvEEESt6vectorISG_SaISG_EEEdeEv@PLT
	movq	%rax, -256(%rbp)
	movq	-256(%rbp), %rax
	movq	%rax, -248(%rbp)
	movq	-312(%rbp), %rax
	addq	$856, %rax
	movq	%rax, %rdi
	call	_ZNKSt19__shared_ptr_accessIN6spdlog6loggerELN9__gnu_cxx12_Lock_policyE2ELb0ELb0EEptEv@PLT
	movq	%rax, %rbx
	leaq	-240(%rbp), %rax
	leaq	.LC21(%rip), %rsi
	movq	%rax, %rdi
.LEHB23:
	call	_ZN3fmt2v617basic_string_viewIcEC1EPKc@PLT
	movq	-248(%rbp), %rcx
	movq	-240(%rbp), %rdx
	movq	-232(%rbp), %rax
	movq	%rdx, %rsi
	movq	%rax, %rdx
	movq	%rbx, %rdi
	call	_ZN6spdlog6logger4infoIJNSt7__cxx1112basic_stringIcSt11char_traitsIcESaIcEEEEEEvN3fmt2v617basic_string_viewIcEEDpRKT_@PLT
	movq	-256(%rbp), %rax
	leaq	32(%rax), %rdx
	leaq	-272(%rbp), %rax
	movq	%rdx, %rsi
	movq	%rax, %rdi
	call	_ZNKSt8functionIFSt10unique_ptrI19InspectionSubServerSt14default_deleteIS1_EEvEEclEv@PLT
.LEHE23:
	leaq	-272(%rbp), %rax
	movq	%rax, %rdi
	call	_ZNKSt10unique_ptrI19InspectionSubServerSt14default_deleteIS0_EEptEv@PLT
	movq	(%rax), %rdx
	movq	(%rdx), %rcx
	movq	-312(%rbp), %rdx
	movq	(%rdx), %rdx
	movq	%rdx, %rsi
	movq	%rax, %rdi
.LEHB24:
	call	*%rcx
	xorl	$1, %eax
	testb	%al, %al
	je	.L272
	movq	-312(%rbp), %rax
	addq	$856, %rax
	movq	%rax, %rdi
	call	_ZNKSt19__shared_ptr_accessIN6spdlog6loggerELN9__gnu_cxx12_Lock_policyE2ELb0ELb0EEptEv@PLT
	movq	%rax, %rbx
	leaq	-240(%rbp), %rax
	leaq	.LC22(%rip), %rsi
	movq	%rax, %rdi
	call	_ZN3fmt2v617basic_string_viewIcEC1EPKc@PLT
	movq	-248(%rbp), %rcx
	movq	-240(%rbp), %rdx
	movq	-232(%rbp), %rax
	movq	%rdx, %rsi
	movq	%rax, %rdx
	movq	%rbx, %rdi
	call	_ZN6spdlog6logger5errorIJNSt7__cxx1112basic_stringIcSt11char_traitsIcESaIcEEEEEEvN3fmt2v617basic_string_viewIcEEDpRKT_@PLT
	movl	$0, %r12d
	movl	$0, %ebx
	jmp	.L273
.L272:
	movq	-312(%rbp), %rax
	addq	$856, %rax
	movq	%rax, %rdi
	call	_ZNKSt19__shared_ptr_accessIN6spdlog6loggerELN9__gnu_cxx12_Lock_policyE2ELb0ELb0EEptEv@PLT
	movq	%rax, %rbx
	leaq	-240(%rbp), %rax
	leaq	.LC23(%rip), %rsi
	movq	%rax, %rdi
	call	_ZN3fmt2v617basic_string_viewIcEC1EPKc@PLT
	movq	-248(%rbp), %rcx
	movq	-240(%rbp), %rdx
	movq	-232(%rbp), %rax
	movq	%rdx, %rsi
	movq	%rax, %rdx
	movq	%rbx, %rdi
	call	_ZN6spdlog6logger4infoIJNSt7__cxx1112basic_stringIcSt11char_traitsIcESaIcEEEEEEvN3fmt2v617basic_string_viewIcEEDpRKT_@PLT
	movq	-312(%rbp), %rax
	leaq	792(%rax), %rbx
	leaq	-272(%rbp), %rax
	movq	%rax, %rdi
	call	_ZSt4moveIRSt10unique_ptrI19InspectionSubServerSt14default_deleteIS1_EEEONSt16remove_referenceIT_E4typeEOS7_@PLT
	movq	%rax, %rsi
	movq	%rbx, %rdi
	call	_ZNSt6vectorISt10unique_ptrI19InspectionSubServerSt14default_deleteIS1_EESaIS4_EE9push_backEOS4_@PLT
.LEHE24:
	movl	$1, %ebx
.L273:
	leaq	-272(%rbp), %rax
	movq	%rax, %rdi
	call	_ZNSt10unique_ptrI19InspectionSubServerSt14default_deleteIS0_EED1Ev@PLT
	cmpl	$1, %ebx
	jne	.L276
	leaq	-288(%rbp), %rax
	movq	%rax, %rdi
	call	_ZN9__gnu_cxx17__normal_iteratorIPSt4pairINSt7__cxx1112basic_stringIcSt11char_traitsIcESaIcEEESt8functionIFSt10unique_ptrI19InspectionSubServerSt14default_deleteISA_EEvEEESt6vectorISG_SaISG_EEEppEv@PLT
	jmp	.L275
.L271:
	movl	$1, %r12d
.L276:
	leaq	-224(%rbp), %rax
	movq	%rax, %rdi
	call	_ZNSt6vectorISt4pairINSt7__cxx1112basic_stringIcSt11char_traitsIcESaIcEEESt8functionIFSt10unique_ptrI19InspectionSubServerSt14default_deleteIS9_EEvEEESaISF_EED1Ev@PLT
.L268:
	leaq	-160(%rbp), %rax
	movq	%rax, %rdi
	call	_ZNSt10filesystem7__cxx114pathD1Ev@PLT
	movl	%r12d, %eax
	movq	-24(%rbp), %rcx
	xorq	%fs:40, %rcx
	je	.L284
	jmp	.L291
.L287:
	endbr64
	movq	%rax, %rbx
	leaq	-64(%rbp), %rax
	movq	%rax, %rdi
	call	_ZNSt10filesystem7__cxx114pathD1Ev@PLT
	jmp	.L279
.L286:
	endbr64
	movq	%rax, %rbx
.L279:
	leaq	-112(%rbp), %rax
	movq	%rax, %rdi
	call	_ZNSt10filesystem7__cxx114pathD1Ev@PLT
	jmp	.L280
.L288:
	endbr64
	movq	%rax, %rbx
	leaq	-64(%rbp), %rax
	movq	%rax, %rdi
	call	_ZNSt10filesystem7__cxx114pathD1Ev@PLT
	jmp	.L280
.L290:
	endbr64
	movq	%rax, %rbx
	leaq	-272(%rbp), %rax
	movq	%rax, %rdi
	call	_ZNSt10unique_ptrI19InspectionSubServerSt14default_deleteIS0_EED1Ev@PLT
	movq	%rbx, %rax
	jmp	.L283
.L289:
	endbr64
.L283:
	movq	%rax, %rbx
	leaq	-224(%rbp), %rax
	movq	%rax, %rdi
	call	_ZNSt6vectorISt4pairINSt7__cxx1112basic_stringIcSt11char_traitsIcESaIcEEESt8functionIFSt10unique_ptrI19InspectionSubServerSt14default_deleteIS9_EEvEEESaISF_EED1Ev@PLT
	jmp	.L280
.L285:
	endbr64
	movq	%rax, %rbx
.L280:
	leaq	-160(%rbp), %rax
	movq	%rax, %rdi
	call	_ZNSt10filesystem7__cxx114pathD1Ev@PLT
	movq	%rbx, %rax
	movq	%rax, %rdi
.LEHB25:
	call	_Unwind_Resume@PLT
.LEHE25:
.L291:
	call	__stack_chk_fail@PLT
.L284:
	addq	$304, %rsp
	popq	%rbx
	popq	%r12
	popq	%rbp
	.cfi_def_cfa 7, 8
	ret
	.cfi_endproc
.LFE7624:
	.section	.gcc_except_table._ZN21InskyInspectionServer4Impl4initESt10shared_ptrI20RIOTFrameworkContextE,"aG",@progbits,_ZN21InskyInspectionServer4Impl4initESt10shared_ptrI20RIOTFrameworkContextE,comdat
.LLSDA7624:
	.byte	0xff
	.byte	0xff
	.byte	0x1
	.uleb128 .LLSDACSE7624-.LLSDACSB7624
.LLSDACSB7624:
	.uleb128 .LEHB16-.LFB7624
	.uleb128 .LEHE16-.LEHB16
	.uleb128 0
	.uleb128 0
	.uleb128 .LEHB17-.LFB7624
	.uleb128 .LEHE17-.LEHB17
	.uleb128 .L285-.LFB7624
	.uleb128 0
	.uleb128 .LEHB18-.LFB7624
	.uleb128 .LEHE18-.LEHB18
	.uleb128 .L286-.LFB7624
	.uleb128 0
	.uleb128 .LEHB19-.LFB7624
	.uleb128 .LEHE19-.LEHB19
	.uleb128 .L287-.LFB7624
	.uleb128 0
	.uleb128 .LEHB20-.LFB7624
	.uleb128 .LEHE20-.LEHB20
	.uleb128 .L285-.LFB7624
	.uleb128 0
	.uleb128 .LEHB21-.LFB7624
	.uleb128 .LEHE21-.LEHB21
	.uleb128 .L288-.LFB7624
	.uleb128 0
	.uleb128 .LEHB22-.LFB7624
	.uleb128 .LEHE22-.LEHB22
	.uleb128 .L285-.LFB7624
	.uleb128 0
	.uleb128 .LEHB23-.LFB7624
	.uleb128 .LEHE23-.LEHB23
	.uleb128 .L289-.LFB7624
	.uleb128 0
	.uleb128 .LEHB24-.LFB7624
	.uleb128 .LEHE24-.LEHB24
	.uleb128 .L290-.LFB7624
	.uleb128 0
	.uleb128 .LEHB25-.LFB7624
	.uleb128 .LEHE25-.LEHB25
	.uleb128 0
	.uleb128 0
.LLSDACSE7624:
	.section	.text._ZN21InskyInspectionServer4Impl4initESt10shared_ptrI20RIOTFrameworkContextE,"axG",@progbits,_ZN21InskyInspectionServer4Impl4initESt10shared_ptrI20RIOTFrameworkContextE,comdat
	.size	_ZN21InskyInspectionServer4Impl4initESt10shared_ptrI20RIOTFrameworkContextE, .-_ZN21InskyInspectionServer4Impl4initESt10shared_ptrI20RIOTFrameworkContextE
	.section	.text._ZN21InskyInspectionServer4Impl6enableEv,"axG",@progbits,_ZN21InskyInspectionServer4Impl6enableEv,comdat
	.align 2
	.weak	_ZN21InskyInspectionServer4Impl6enableEv
	.type	_ZN21InskyInspectionServer4Impl6enableEv, @function
_ZN21InskyInspectionServer4Impl6enableEv:
.LFB7627:
	.cfi_startproc
	endbr64
	pushq	%rbp
	.cfi_def_cfa_offset 16
	.cfi_offset 6, -16
	movq	%rsp, %rbp
	.cfi_def_cfa_register 6
	subq	$64, %rsp
	movq	%rdi, -56(%rbp)
	movq	%fs:40, %rax
	movq	%rax, -8(%rbp)
	xorl	%eax, %eax
	movq	-56(%rbp), %rax
	addq	$920, %rax
	movq	%rax, %rdi
	call	_ZNKSt19__shared_ptr_accessI11MsgUploaderLN9__gnu_cxx12_Lock_policyE2ELb0ELb0EEptEv@PLT
	movq	%rax, %rdi
	call	_ZN11MsgUploader6enableEv@PLT
	movq	-56(%rbp), %rax
	addq	$792, %rax
	movq	%rax, -24(%rbp)
	movq	-24(%rbp), %rax
	movq	%rax, %rdi
	call	_ZNSt6vectorISt10unique_ptrI19InspectionSubServerSt14default_deleteIS1_EESaIS4_EE5beginEv@PLT
	movq	%rax, -40(%rbp)
	movq	-24(%rbp), %rax
	movq	%rax, %rdi
	call	_ZNSt6vectorISt10unique_ptrI19InspectionSubServerSt14default_deleteIS1_EESaIS4_EE3endEv@PLT
	movq	%rax, -32(%rbp)
.L296:
	leaq	-32(%rbp), %rdx
	leaq	-40(%rbp), %rax
	movq	%rdx, %rsi
	movq	%rax, %rdi
	call	_ZN9__gnu_cxxneIPSt10unique_ptrI19InspectionSubServerSt14default_deleteIS2_EESt6vectorIS5_SaIS5_EEEEbRKNS_17__normal_iteratorIT_T0_EESF_@PLT
	testb	%al, %al
	je	.L293
	leaq	-40(%rbp), %rax
	movq	%rax, %rdi
	call	_ZNK9__gnu_cxx17__normal_iteratorIPSt10unique_ptrI19InspectionSubServerSt14default_deleteIS2_EESt6vectorIS5_SaIS5_EEEdeEv@PLT
	movq	%rax, -16(%rbp)
	movq	-16(%rbp), %rax
	movq	%rax, %rdi
	call	_ZNKSt10unique_ptrI19InspectionSubServerSt14default_deleteIS0_EEptEv@PLT
	movq	(%rax), %rdx
	addq	$16, %rdx
	movq	(%rdx), %rdx
	movq	%rax, %rdi
	call	*%rdx
	xorl	$1, %eax
	testb	%al, %al
	je	.L294
	movl	$0, %eax
	jmp	.L295
.L294:
	leaq	-40(%rbp), %rax
	movq	%rax, %rdi
	call	_ZN9__gnu_cxx17__normal_iteratorIPSt10unique_ptrI19InspectionSubServerSt14default_deleteIS2_EESt6vectorIS5_SaIS5_EEEppEv@PLT
	jmp	.L296
.L293:
	movl	$1, %eax
.L295:
	movq	-8(%rbp), %rcx
	xorq	%fs:40, %rcx
	je	.L297
	call	__stack_chk_fail@PLT
.L297:
	leave
	.cfi_def_cfa 7, 8
	ret
	.cfi_endproc
.LFE7627:
	.size	_ZN21InskyInspectionServer4Impl6enableEv, .-_ZN21InskyInspectionServer4Impl6enableEv
	.text
	.align 2
	.globl	_ZN21InskyInspectionServer9globalCtxEv
	.type	_ZN21InskyInspectionServer9globalCtxEv, @function
_ZN21InskyInspectionServer9globalCtxEv:
.LFB7628:
	.cfi_startproc
	endbr64
	pushq	%rbp
	.cfi_def_cfa_offset 16
	.cfi_offset 6, -16
	movq	%rsp, %rbp
	.cfi_def_cfa_register 6
	subq	$16, %rsp
	movq	%rdi, -8(%rbp)
	movq	%rsi, -16(%rbp)
	movq	-16(%rbp), %rax
	addq	$8, %rax
	movq	%rax, %rdi
	call	_ZNKSt10unique_ptrIN21InskyInspectionServer4ImplESt14default_deleteIS1_EEptEv@PLT
	leaq	904(%rax), %rdx
	movq	-8(%rbp), %rax
	movq	%rdx, %rsi
	movq	%rax, %rdi
	call	_ZNSt10shared_ptrI20RIOTFrameworkContextEC1ERKS1_@PLT
	movq	-8(%rbp), %rax
	leave
	.cfi_def_cfa 7, 8
	ret
	.cfi_endproc
.LFE7628:
	.size	_ZN21InskyInspectionServer9globalCtxEv, .-_ZN21InskyInspectionServer9globalCtxEv
	.align 2
	.globl	_ZN21InskyInspectionServer7robotIdB5cxx11Ev
	.type	_ZN21InskyInspectionServer7robotIdB5cxx11Ev, @function
_ZN21InskyInspectionServer7robotIdB5cxx11Ev:
.LFB7629:
	.cfi_startproc
	endbr64
	pushq	%rbp
	.cfi_def_cfa_offset 16
	.cfi_offset 6, -16
	movq	%rsp, %rbp
	.cfi_def_cfa_register 6
	subq	$16, %rsp
	movq	%rdi, -8(%rbp)
	movq	-8(%rbp), %rax
	addq	$8, %rax
	movq	%rax, %rdi
	call	_ZNKSt10unique_ptrIN21InskyInspectionServer4ImplESt14default_deleteIS1_EEptEv@PLT
	addq	$872, %rax
	leave
	.cfi_def_cfa 7, 8
	ret
	.cfi_endproc
.LFE7629:
	.size	_ZN21InskyInspectionServer7robotIdB5cxx11Ev, .-_ZN21InskyInspectionServer7robotIdB5cxx11Ev
	.section	.text._ZN10AttachableC2Ev,"axG",@progbits,_ZN10AttachableC5Ev,comdat
	.align 2
	.weak	_ZN10AttachableC2Ev
	.type	_ZN10AttachableC2Ev, @function
_ZN10AttachableC2Ev:
.LFB7633:
	.cfi_startproc
	endbr64
	pushq	%rbp
	.cfi_def_cfa_offset 16
	.cfi_offset 6, -16
	movq	%rsp, %rbp
	.cfi_def_cfa_register 6
	movq	%rdi, -8(%rbp)
	movq	_ZTV10Attachable@GOTPCREL(%rip), %rax
	leaq	16(%rax), %rdx
	movq	-8(%rbp), %rax
	movq	%rdx, (%rax)
	nop
	popq	%rbp
	.cfi_def_cfa 7, 8
	ret
	.cfi_endproc
.LFE7633:
	.size	_ZN10AttachableC2Ev, .-_ZN10AttachableC2Ev
	.weak	_ZN10AttachableC1Ev
	.set	_ZN10AttachableC1Ev,_ZN10AttachableC2Ev
	.section	.text._ZN17AttachableServiceC2Ev,"axG",@progbits,_ZN17AttachableServiceC5Ev,comdat
	.align 2
	.weak	_ZN17AttachableServiceC2Ev
	.type	_ZN17AttachableServiceC2Ev, @function
_ZN17AttachableServiceC2Ev:
.LFB7635:
	.cfi_startproc
	endbr64
	pushq	%rbp
	.cfi_def_cfa_offset 16
	.cfi_offset 6, -16
	movq	%rsp, %rbp
	.cfi_def_cfa_register 6
	subq	$16, %rsp
	movq	%rdi, -8(%rbp)
	movq	-8(%rbp), %rax
	movq	%rax, %rdi
	call	_ZN10AttachableC2Ev@PLT
	movq	_ZTV17AttachableService@GOTPCREL(%rip), %rax
	leaq	16(%rax), %rdx
	movq	-8(%rbp), %rax
	movq	%rdx, (%rax)
	nop
	leave
	.cfi_def_cfa 7, 8
	ret
	.cfi_endproc
.LFE7635:
	.size	_ZN17AttachableServiceC2Ev, .-_ZN17AttachableServiceC2Ev
	.weak	_ZN17AttachableServiceC1Ev
	.set	_ZN17AttachableServiceC1Ev,_ZN17AttachableServiceC2Ev
	.text
	.align 2
	.globl	_ZN21InskyInspectionServerC2Ev
	.type	_ZN21InskyInspectionServerC2Ev, @function
_ZN21InskyInspectionServerC2Ev:
.LFB7637:
	.cfi_startproc
	.cfi_personality 0x9b,DW.ref.__gxx_personality_v0
	.cfi_lsda 0x1b,.LLSDA7637
	endbr64
	pushq	%rbp
	.cfi_def_cfa_offset 16
	.cfi_offset 6, -16
	movq	%rsp, %rbp
	.cfi_def_cfa_register 6
	pushq	%rbx
	subq	$56, %rsp
	.cfi_offset 3, -24
	movq	%rdi, -56(%rbp)
	movq	%fs:40, %rax
	movq	%rax, -24(%rbp)
	xorl	%eax, %eax
	movq	-56(%rbp), %rax
	movq	%rax, %rdi
	call	_ZN17AttachableServiceC2Ev@PLT
	movq	_ZTV21InskyInspectionServer@GOTPCREL(%rip), %rax
	leaq	16(%rax), %rdx
	movq	-56(%rbp), %rax
	movq	%rdx, (%rax)
	movq	-56(%rbp), %rax
	addq	$8, %rax
	movq	%rax, %rdi
	call	_ZNSt10unique_ptrIN21InskyInspectionServer4ImplESt14default_deleteIS1_EEC1IS3_vEEv@PLT
	movq	-56(%rbp), %rax
	movq	%rax, -32(%rbp)
	leaq	-40(%rbp), %rax
	leaq	-32(%rbp), %rdx
	movq	%rdx, %rsi
	movq	%rax, %rdi
.LEHB26:
	call	_ZSt11make_uniqueIN21InskyInspectionServer4ImplEJPS0_EENSt9_MakeUniqIT_E15__single_objectEDpOT0_@PLT
.LEHE26:
	movq	-56(%rbp), %rax
	leaq	8(%rax), %rdx
	leaq	-40(%rbp), %rax
	movq	%rax, %rsi
	movq	%rdx, %rdi
	call	_ZNSt10unique_ptrIN21InskyInspectionServer4ImplESt14default_deleteIS1_EEaSEOS4_@PLT
	leaq	-40(%rbp), %rax
	movq	%rax, %rdi
	call	_ZNSt10unique_ptrIN21InskyInspectionServer4ImplESt14default_deleteIS1_EED1Ev@PLT
	nop
	movq	-24(%rbp), %rax
	xorq	%fs:40, %rax
	je	.L306
	jmp	.L308
.L307:
	endbr64
	movq	%rax, %rbx
	movq	-56(%rbp), %rax
	addq	$8, %rax
	movq	%rax, %rdi
	call	_ZNSt10unique_ptrIN21InskyInspectionServer4ImplESt14default_deleteIS1_EED1Ev@PLT
	movq	%rbx, %rax
	movq	%rax, %rdi
.LEHB27:
	call	_Unwind_Resume@PLT
.LEHE27:
.L308:
	call	__stack_chk_fail@PLT
.L306:
	addq	$56, %rsp
	popq	%rbx
	popq	%rbp
	.cfi_def_cfa 7, 8
	ret
	.cfi_endproc
.LFE7637:
	.section	.gcc_except_table,"a",@progbits
.LLSDA7637:
	.byte	0xff
	.byte	0xff
	.byte	0x1
	.uleb128 .LLSDACSE7637-.LLSDACSB7637
.LLSDACSB7637:
	.uleb128 .LEHB26-.LFB7637
	.uleb128 .LEHE26-.LEHB26
	.uleb128 .L307-.LFB7637
	.uleb128 0
	.uleb128 .LEHB27-.LFB7637
	.uleb128 .LEHE27-.LEHB27
	.uleb128 0
	.uleb128 0
.LLSDACSE7637:
	.text
	.size	_ZN21InskyInspectionServerC2Ev, .-_ZN21InskyInspectionServerC2Ev
	.globl	_ZN21InskyInspectionServerC1Ev
	.set	_ZN21InskyInspectionServerC1Ev,_ZN21InskyInspectionServerC2Ev
	.align 2
	.globl	_ZN21InskyInspectionServerD2Ev
	.type	_ZN21InskyInspectionServerD2Ev, @function
_ZN21InskyInspectionServerD2Ev:
.LFB7640:
	.cfi_startproc
	endbr64
	pushq	%rbp
	.cfi_def_cfa_offset 16
	.cfi_offset 6, -16
	movq	%rsp, %rbp
	.cfi_def_cfa_register 6
	subq	$16, %rsp
	movq	%rdi, -8(%rbp)
	movq	_ZTV21InskyInspectionServer@GOTPCREL(%rip), %rax
	leaq	16(%rax), %rdx
	movq	-8(%rbp), %rax
	movq	%rdx, (%rax)
	movq	-8(%rbp), %rax
	addq	$8, %rax
	movq	%rax, %rdi
	call	_ZNSt10unique_ptrIN21InskyInspectionServer4ImplESt14default_deleteIS1_EED1Ev@PLT
	nop
	leave
	.cfi_def_cfa 7, 8
	ret
	.cfi_endproc
.LFE7640:
	.size	_ZN21InskyInspectionServerD2Ev, .-_ZN21InskyInspectionServerD2Ev
	.globl	_ZN21InskyInspectionServerD1Ev
	.set	_ZN21InskyInspectionServerD1Ev,_ZN21InskyInspectionServerD2Ev
	.align 2
	.globl	_ZN21InskyInspectionServerD0Ev
	.type	_ZN21InskyInspectionServerD0Ev, @function
_ZN21InskyInspectionServerD0Ev:
.LFB7642:
	.cfi_startproc
	endbr64
	pushq	%rbp
	.cfi_def_cfa_offset 16
	.cfi_offset 6, -16
	movq	%rsp, %rbp
	.cfi_def_cfa_register 6
	subq	$16, %rsp
	movq	%rdi, -8(%rbp)
	movq	-8(%rbp), %rax
	movq	%rax, %rdi
	call	_ZN21InskyInspectionServerD1Ev@PLT
	movq	-8(%rbp), %rax
	movl	$16, %esi
	movq	%rax, %rdi
	call	_ZdlPvm@PLT
	leave
	.cfi_def_cfa 7, 8
	ret
	.cfi_endproc
.LFE7642:
	.size	_ZN21InskyInspectionServerD0Ev, .-_ZN21InskyInspectionServerD0Ev
	.align 2
	.globl	_ZN21InskyInspectionServer4initESt10shared_ptrI20RIOTFrameworkContextE
	.type	_ZN21InskyInspectionServer4initESt10shared_ptrI20RIOTFrameworkContextE, @function
_ZN21InskyInspectionServer4initESt10shared_ptrI20RIOTFrameworkContextE:
.LFB7643:
	.cfi_startproc
	.cfi_personality 0x9b,DW.ref.__gxx_personality_v0
	.cfi_lsda 0x1b,.LLSDA7643
	endbr64
	pushq	%rbp
	.cfi_def_cfa_offset 16
	.cfi_offset 6, -16
	movq	%rsp, %rbp
	.cfi_def_cfa_register 6
	pushq	%rbx
	subq	$72, %rsp
	.cfi_offset 3, -24
	movq	%rdi, -72(%rbp)
	movq	%rsi, -80(%rbp)
	movq	%fs:40, %rax
	movq	%rax, -24(%rbp)
	xorl	%eax, %eax
	movq	-72(%rbp), %rax
	addq	$8, %rax
	movq	%rax, %rdi
	call	_ZNKSt10unique_ptrIN21InskyInspectionServer4ImplESt14default_deleteIS1_EEptEv@PLT
	movq	%rax, %rbx
	movq	-80(%rbp), %rax
	movq	%rax, %rdi
	call	_ZSt4moveIRSt10shared_ptrI20RIOTFrameworkContextEEONSt16remove_referenceIT_E4typeEOS5_@PLT
	movq	%rax, %rdx
	leaq	-48(%rbp), %rax
	movq	%rdx, %rsi
	movq	%rax, %rdi
	call	_ZNSt10shared_ptrI20RIOTFrameworkContextEC1EOS1_@PLT
	leaq	-48(%rbp), %rax
	movq	%rax, %rsi
	movq	%rbx, %rdi
.LEHB28:
	call	_ZN21InskyInspectionServer4Impl4initESt10shared_ptrI20RIOTFrameworkContextE@PLT
.LEHE28:
	movb	%al, -49(%rbp)
	leaq	-48(%rbp), %rax
	movq	%rax, %rdi
	call	_ZNSt10shared_ptrI20RIOTFrameworkContextED1Ev@PLT
	movq	-72(%rbp), %rax
	addq	$8, %rax
	movq	%rax, %rdi
	call	_ZNKSt10unique_ptrIN21InskyInspectionServer4ImplESt14default_deleteIS1_EEptEv@PLT
	addq	$856, %rax
	movq	%rax, %rdi
	call	_ZNKSt19__shared_ptr_accessIN6spdlog6loggerELN9__gnu_cxx12_Lock_policyE2ELb0ELb0EEptEv@PLT
	movq	%rax, %rdi
.LEHB29:
	call	_ZN6spdlog6logger5flushEv@PLT
	movzbl	-49(%rbp), %eax
	movq	-24(%rbp), %rcx
	xorq	%fs:40, %rcx
	je	.L314
	jmp	.L316
.L315:
	endbr64
	movq	%rax, %rbx
	leaq	-48(%rbp), %rax
	movq	%rax, %rdi
	call	_ZNSt10shared_ptrI20RIOTFrameworkContextED1Ev@PLT
	movq	%rbx, %rax
	movq	%rax, %rdi
	call	_Unwind_Resume@PLT
.LEHE29:
.L316:
	call	__stack_chk_fail@PLT
.L314:
	addq	$72, %rsp
	popq	%rbx
	popq	%rbp
	.cfi_def_cfa 7, 8
	ret
	.cfi_endproc
.LFE7643:
	.section	.gcc_except_table
.LLSDA7643:
	.byte	0xff
	.byte	0xff
	.byte	0x1
	.uleb128 .LLSDACSE7643-.LLSDACSB7643
.LLSDACSB7643:
	.uleb128 .LEHB28-.LFB7643
	.uleb128 .LEHE28-.LEHB28
	.uleb128 .L315-.LFB7643
	.uleb128 0
	.uleb128 .LEHB29-.LFB7643
	.uleb128 .LEHE29-.LEHB29
	.uleb128 0
	.uleb128 0
.LLSDACSE7643:
	.text
	.size	_ZN21InskyInspectionServer4initESt10shared_ptrI20RIOTFrameworkContextE, .-_ZN21InskyInspectionServer4initESt10shared_ptrI20RIOTFrameworkContextE
	.align 2
	.globl	_ZN21InskyInspectionServer6deinitEv
	.type	_ZN21InskyInspectionServer6deinitEv, @function
_ZN21InskyInspectionServer6deinitEv:
.LFB7644:
	.cfi_startproc
	endbr64
	pushq	%rbp
	.cfi_def_cfa_offset 16
	.cfi_offset 6, -16
	movq	%rsp, %rbp
	.cfi_def_cfa_register 6
	movq	%rdi, -8(%rbp)
	movl	$0, %eax
	popq	%rbp
	.cfi_def_cfa 7, 8
	ret
	.cfi_endproc
.LFE7644:
	.size	_ZN21InskyInspectionServer6deinitEv, .-_ZN21InskyInspectionServer6deinitEv
	.align 2
	.globl	_ZN21InskyInspectionServer6enableEv
	.type	_ZN21InskyInspectionServer6enableEv, @function
_ZN21InskyInspectionServer6enableEv:
.LFB7645:
	.cfi_startproc
	endbr64
	pushq	%rbp
	.cfi_def_cfa_offset 16
	.cfi_offset 6, -16
	movq	%rsp, %rbp
	.cfi_def_cfa_register 6
	subq	$16, %rsp
	movq	%rdi, -8(%rbp)
	movq	-8(%rbp), %rax
	addq	$8, %rax
	movq	%rax, %rdi
	call	_ZNKSt10unique_ptrIN21InskyInspectionServer4ImplESt14default_deleteIS1_EEptEv@PLT
	movq	%rax, %rdi
	call	_ZN21InskyInspectionServer4Impl6enableEv@PLT
	leave
	.cfi_def_cfa 7, 8
	ret
	.cfi_endproc
.LFE7645:
	.size	_ZN21InskyInspectionServer6enableEv, .-_ZN21InskyInspectionServer6enableEv
	.align 2
	.globl	_ZN21InskyInspectionServer7disableEv
	.type	_ZN21InskyInspectionServer7disableEv, @function
_ZN21InskyInspectionServer7disableEv:
.LFB7646:
	.cfi_startproc
	endbr64
	pushq	%rbp
	.cfi_def_cfa_offset 16
	.cfi_offset 6, -16
	movq	%rsp, %rbp
	.cfi_def_cfa_register 6
	movq	%rdi, -8(%rbp)
	movl	$0, %eax
	popq	%rbp
	.cfi_def_cfa 7, 8
	ret
	.cfi_endproc
.LFE7646:
	.size	_ZN21InskyInspectionServer7disableEv, .-_ZN21InskyInspectionServer7disableEv
	.align 2
	.globl	_ZN21InskyInspectionServer5stateEv
	.type	_ZN21InskyInspectionServer5stateEv, @function
_ZN21InskyInspectionServer5stateEv:
.LFB7647:
	.cfi_startproc
	endbr64
	pushq	%rbp
	.cfi_def_cfa_offset 16
	.cfi_offset 6, -16
	movq	%rsp, %rbp
	.cfi_def_cfa_register 6
	subq	$16, %rsp
	movq	%rdi, -8(%rbp)
	movq	-8(%rbp), %rax
	addq	$8, %rax
	movq	%rax, %rdi
	call	_ZNKSt10unique_ptrIN21InskyInspectionServer4ImplESt14default_deleteIS1_EEptEv@PLT
	movl	848(%rax), %eax
	leave
	.cfi_def_cfa 7, 8
	ret
	.cfi_endproc
.LFE7647:
	.size	_ZN21InskyInspectionServer5stateEv, .-_ZN21InskyInspectionServer5stateEv
	.section	.rodata
.LC24:
	.string	"Insky Inspection Server"
	.section	.data.rel.local
	.align 8
	.type	_ZZN21InskyInspectionServer4nameEvE5_name, @object
	.size	_ZZN21InskyInspectionServer4nameEvE5_name, 8
_ZZN21InskyInspectionServer4nameEvE5_name:
	.quad	.LC24
	.text
	.align 2
	.globl	_ZN21InskyInspectionServer4nameEv
	.type	_ZN21InskyInspectionServer4nameEv, @function
_ZN21InskyInspectionServer4nameEv:
.LFB7648:
	.cfi_startproc
	endbr64
	pushq	%rbp
	.cfi_def_cfa_offset 16
	.cfi_offset 6, -16
	movq	%rsp, %rbp
	.cfi_def_cfa_register 6
	movq	%rdi, -8(%rbp)
	movq	_ZZN21InskyInspectionServer4nameEvE5_name(%rip), %rax
	popq	%rbp
	.cfi_def_cfa 7, 8
	ret
	.cfi_endproc
.LFE7648:
	.size	_ZN21InskyInspectionServer4nameEv, .-_ZN21InskyInspectionServer4nameEv
	.align 2
	.globl	_ZN21InskyInspectionServer14config_elementEv
	.type	_ZN21InskyInspectionServer14config_elementEv, @function
_ZN21InskyInspectionServer14config_elementEv:
.LFB7649:
	.cfi_startproc
	endbr64
	pushq	%rbp
	.cfi_def_cfa_offset 16
	.cfi_offset 6, -16
	movq	%rsp, %rbp
	.cfi_def_cfa_register 6
	subq	$16, %rsp
	movq	%rdi, -8(%rbp)
	movq	-8(%rbp), %rax
	addq	$8, %rax
	movq	%rax, %rdi
	call	_ZNKSt10unique_ptrIN21InskyInspectionServer4ImplESt14default_deleteIS1_EEptEv@PLT
	movq	784(%rax), %rax
	leave
	.cfi_def_cfa 7, 8
	ret
	.cfi_endproc
.LFE7649:
	.size	_ZN21InskyInspectionServer14config_elementEv, .-_ZN21InskyInspectionServer14config_elementEv
	.weak	_create_plugin
	.section	boostdll,"aw"
	.align 8
	.type	_create_plugin, @object
	.size	_create_plugin, 8
_create_plugin:
	.quad	_Z13create_pluginI21InskyInspectionServerEPT_v
	.section	.text._ZN9__gnu_cxx11char_traitsIcE2eqERKcS3_,"axG",@progbits,_ZN9__gnu_cxx11char_traitsIcE2eqERKcS3_,comdat
	.weak	_ZN9__gnu_cxx11char_traitsIcE2eqERKcS3_
	.type	_ZN9__gnu_cxx11char_traitsIcE2eqERKcS3_, @function
_ZN9__gnu_cxx11char_traitsIcE2eqERKcS3_:
.LFB7651:
	.cfi_startproc
	endbr64
	pushq	%rbp
	.cfi_def_cfa_offset 16
	.cfi_offset 6, -16
	movq	%rsp, %rbp
	.cfi_def_cfa_register 6
	movq	%rdi, -8(%rbp)
	movq	%rsi, -16(%rbp)
	movq	-8(%rbp), %rax
	movzbl	(%rax), %edx
	movq	-16(%rbp), %rax
	movzbl	(%rax), %eax
	cmpb	%al, %dl
	sete	%al
	popq	%rbp
	.cfi_def_cfa 7, 8
	ret
	.cfi_endproc
.LFE7651:
	.size	_ZN9__gnu_cxx11char_traitsIcE2eqERKcS3_, .-_ZN9__gnu_cxx11char_traitsIcE2eqERKcS3_
	.section	.text._ZN9__gnu_cxx11char_traitsIcE6lengthEPKc,"axG",@progbits,_ZN9__gnu_cxx11char_traitsIcE6lengthEPKc,comdat
	.align 2
	.weak	_ZN9__gnu_cxx11char_traitsIcE6lengthEPKc
	.type	_ZN9__gnu_cxx11char_traitsIcE6lengthEPKc, @function
_ZN9__gnu_cxx11char_traitsIcE6lengthEPKc:
.LFB7650:
	.cfi_startproc
	endbr64
	pushq	%rbp
	.cfi_def_cfa_offset 16
	.cfi_offset 6, -16
	movq	%rsp, %rbp
	.cfi_def_cfa_register 6
	subq	$48, %rsp
	movq	%rdi, -40(%rbp)
	movq	%fs:40, %rax
	movq	%rax, -8(%rbp)
	xorl	%eax, %eax
	movq	$0, -16(%rbp)
.L333:
	movb	$0, -17(%rbp)
	movq	-40(%rbp), %rdx
	movq	-16(%rbp), %rax
	addq	%rax, %rdx
	leaq	-17(%rbp), %rax
	movq	%rax, %rsi
	movq	%rdx, %rdi
	call	_ZN9__gnu_cxx11char_traitsIcE2eqERKcS3_@PLT
	xorl	$1, %eax
	testb	%al, %al
	je	.L332
	addq	$1, -16(%rbp)
	jmp	.L333
.L332:
	movq	-16(%rbp), %rax
	movq	-8(%rbp), %rcx
	xorq	%fs:40, %rcx
	je	.L335
	call	__stack_chk_fail@PLT
.L335:
	leave
	.cfi_def_cfa 7, 8
	ret
	.cfi_endproc
.LFE7650:
	.size	_ZN9__gnu_cxx11char_traitsIcE6lengthEPKc, .-_ZN9__gnu_cxx11char_traitsIcE6lengthEPKc
	.section	.text._ZNSt17basic_string_viewIcSt11char_traitsIcEEC2EPKcm,"axG",@progbits,_ZNSt17basic_string_viewIcSt11char_traitsIcEEC5EPKcm,comdat
	.align 2
	.weak	_ZNSt17basic_string_viewIcSt11char_traitsIcEEC2EPKcm
	.type	_ZNSt17basic_string_viewIcSt11char_traitsIcEEC2EPKcm, @function
_ZNSt17basic_string_viewIcSt11char_traitsIcEEC2EPKcm:
.LFB7666:
	.cfi_startproc
	endbr64
	pushq	%rbp
	.cfi_def_cfa_offset 16
	.cfi_offset 6, -16
	movq	%rsp, %rbp
	.cfi_def_cfa_register 6
	movq	%rdi, -8(%rbp)
	movq	%rsi, -16(%rbp)
	movq	%rdx, -24(%rbp)
	movq	-8(%rbp), %rax
	movq	-24(%rbp), %rdx
	movq	%rdx, (%rax)
	movq	-8(%rbp), %rax
	movq	-16(%rbp), %rdx
	movq	%rdx, 8(%rax)
	nop
	popq	%rbp
	.cfi_def_cfa 7, 8
	ret
	.cfi_endproc
.LFE7666:
	.size	_ZNSt17basic_string_viewIcSt11char_traitsIcEEC2EPKcm, .-_ZNSt17basic_string_viewIcSt11char_traitsIcEEC2EPKcm
	.weak	_ZNSt17basic_string_viewIcSt11char_traitsIcEEC1EPKcm
	.set	_ZNSt17basic_string_viewIcSt11char_traitsIcEEC1EPKcm,_ZNSt17basic_string_viewIcSt11char_traitsIcEEC2EPKcm
	.section	.text._ZNSt7__cxx1112basic_stringIcSt11char_traitsIcESaIcEE12_Alloc_hiderD2Ev,"axG",@progbits,_ZNSt7__cxx1112basic_stringIcSt11char_traitsIcESaIcEE12_Alloc_hiderD5Ev,comdat
	.align 2
	.weak	_ZNSt7__cxx1112basic_stringIcSt11char_traitsIcESaIcEE12_Alloc_hiderD2Ev
	.type	_ZNSt7__cxx1112basic_stringIcSt11char_traitsIcESaIcEE12_Alloc_hiderD2Ev, @function
_ZNSt7__cxx1112basic_stringIcSt11char_traitsIcESaIcEE12_Alloc_hiderD2Ev:
.LFB7753:
	.cfi_startproc
	endbr64
	pushq	%rbp
	.cfi_def_cfa_offset 16
	.cfi_offset 6, -16
	movq	%rsp, %rbp
	.cfi_def_cfa_register 6
	subq	$16, %rsp
	movq	%rdi, -8(%rbp)
	movq	-8(%rbp), %rax
	movq	%rax, %rdi
	call	_ZNSaIcED2Ev@PLT
	nop
	leave
	.cfi_def_cfa 7, 8
	ret
	.cfi_endproc
.LFE7753:
	.size	_ZNSt7__cxx1112basic_stringIcSt11char_traitsIcESaIcEE12_Alloc_hiderD2Ev, .-_ZNSt7__cxx1112basic_stringIcSt11char_traitsIcESaIcEE12_Alloc_hiderD2Ev
	.weak	_ZNSt7__cxx1112basic_stringIcSt11char_traitsIcESaIcEE12_Alloc_hiderD1Ev
	.set	_ZNSt7__cxx1112basic_stringIcSt11char_traitsIcESaIcEE12_Alloc_hiderD1Ev,_ZNSt7__cxx1112basic_stringIcSt11char_traitsIcESaIcEE12_Alloc_hiderD2Ev
	.section	.text._ZSt3maxImERKT_S2_S2_,"axG",@progbits,_ZSt3maxImERKT_S2_S2_,comdat
	.weak	_ZSt3maxImERKT_S2_S2_
	.type	_ZSt3maxImERKT_S2_S2_, @function
_ZSt3maxImERKT_S2_S2_:
.LFB7895:
	.cfi_startproc
	endbr64
	pushq	%rbp
	.cfi_def_cfa_offset 16
	.cfi_offset 6, -16
	movq	%rsp, %rbp
	.cfi_def_cfa_register 6
	movq	%rdi, -8(%rbp)
	movq	%rsi, -16(%rbp)
	movq	-8(%rbp), %rax
	movq	(%rax), %rdx
	movq	-16(%rbp), %rax
	movq	(%rax), %rax
	cmpq	%rax, %rdx
	jnb	.L339
	movq	-16(%rbp), %rax
	jmp	.L340
.L339:
	movq	-8(%rbp), %rax
.L340:
	popq	%rbp
	.cfi_def_cfa 7, 8
	ret
	.cfi_endproc
.LFE7895:
	.size	_ZSt3maxImERKT_S2_S2_, .-_ZSt3maxImERKT_S2_S2_
	.section	.text._ZNSt7__cxx1112basic_stringIcSt11char_traitsIcESaIcEEC2IS3_EEPKcRKS3_,"axG",@progbits,_ZNSt7__cxx1112basic_stringIcSt11char_traitsIcESaIcEEC5IS3_EEPKcRKS3_,comdat
	.align 2
	.weak	_ZNSt7__cxx1112basic_stringIcSt11char_traitsIcESaIcEEC2IS3_EEPKcRKS3_
	.type	_ZNSt7__cxx1112basic_stringIcSt11char_traitsIcESaIcEEC2IS3_EEPKcRKS3_, @function
_ZNSt7__cxx1112basic_stringIcSt11char_traitsIcESaIcEEC2IS3_EEPKcRKS3_:
.LFB7987:
	.cfi_startproc
	.cfi_personality 0x9b,DW.ref.__gxx_personality_v0
	.cfi_lsda 0x1b,.LLSDA7987
	endbr64
	pushq	%rbp
	.cfi_def_cfa_offset 16
	.cfi_offset 6, -16
	movq	%rsp, %rbp
	.cfi_def_cfa_register 6
	pushq	%rbx
	subq	$40, %rsp
	.cfi_offset 3, -24
	movq	%rdi, -24(%rbp)
	movq	%rsi, -32(%rbp)
	movq	%rdx, -40(%rbp)
	movq	-24(%rbp), %rbx
	movq	-24(%rbp), %rax
	movq	%rax, %rdi
.LEHB30:
	call	_ZNSt7__cxx1112basic_stringIcSt11char_traitsIcESaIcEE13_M_local_dataEv@PLT
	movq	%rax, %rcx
	movq	-40(%rbp), %rax
	movq	%rax, %rdx
	movq	%rcx, %rsi
	movq	%rbx, %rdi
	call	_ZNSt7__cxx1112basic_stringIcSt11char_traitsIcESaIcEE12_Alloc_hiderC1EPcRKS3_@PLT
.LEHE30:
	cmpq	$0, -32(%rbp)
	je	.L342
	movq	-32(%rbp), %rax
	movq	%rax, %rdi
.LEHB31:
	call	_ZNSt11char_traitsIcE6lengthEPKc@PLT
	movq	-32(%rbp), %rdx
	addq	%rdx, %rax
	jmp	.L343
.L342:
	movq	-32(%rbp), %rax
	subq	$1, %rax
.L343:
	movq	-32(%rbp), %rsi
	movq	-24(%rbp), %rcx
	movq	%rax, %rdx
	movq	%rcx, %rdi
	call	_ZNSt7__cxx1112basic_stringIcSt11char_traitsIcESaIcEE12_M_constructIPKcEEvT_S8_@PLT
.LEHE31:
	jmp	.L346
.L345:
	endbr64
	movq	%rax, %rbx
	movq	-24(%rbp), %rax
	movq	%rax, %rdi
	call	_ZNSt7__cxx1112basic_stringIcSt11char_traitsIcESaIcEE12_Alloc_hiderD1Ev@PLT
	movq	%rbx, %rax
	movq	%rax, %rdi
.LEHB32:
	call	_Unwind_Resume@PLT
.LEHE32:
.L346:
	addq	$40, %rsp
	popq	%rbx
	popq	%rbp
	.cfi_def_cfa 7, 8
	ret
	.cfi_endproc
.LFE7987:
	.section	.gcc_except_table
.LLSDA7987:
	.byte	0xff
	.byte	0xff
	.byte	0x1
	.uleb128 .LLSDACSE7987-.LLSDACSB7987
.LLSDACSB7987:
	.uleb128 .LEHB30-.LFB7987
	.uleb128 .LEHE30-.LEHB30
	.uleb128 0
	.uleb128 0
	.uleb128 .LEHB31-.LFB7987
	.uleb128 .LEHE31-.LEHB31
	.uleb128 .L345-.LFB7987
	.uleb128 0
	.uleb128 .LEHB32-.LFB7987
	.uleb128 .LEHE32-.LEHB32
	.uleb128 0
	.uleb128 0
.LLSDACSE7987:
	.section	.text._ZNSt7__cxx1112basic_stringIcSt11char_traitsIcESaIcEEC2IS3_EEPKcRKS3_,"axG",@progbits,_ZNSt7__cxx1112basic_stringIcSt11char_traitsIcESaIcEEC5IS3_EEPKcRKS3_,comdat
	.size	_ZNSt7__cxx1112basic_stringIcSt11char_traitsIcESaIcEEC2IS3_EEPKcRKS3_, .-_ZNSt7__cxx1112basic_stringIcSt11char_traitsIcESaIcEEC2IS3_EEPKcRKS3_
	.weak	_ZNSt7__cxx1112basic_stringIcSt11char_traitsIcESaIcEEC1IS3_EEPKcRKS3_
	.set	_ZNSt7__cxx1112basic_stringIcSt11char_traitsIcESaIcEEC1IS3_EEPKcRKS3_,_ZNSt7__cxx1112basic_stringIcSt11char_traitsIcESaIcEEC2IS3_EEPKcRKS3_
	.section	.text._ZN3fmt2v68internal8bit_castImPKvEET_RKT0_,"axG",@progbits,_ZN3fmt2v68internal8bit_castImPKvEET_RKT0_,comdat
	.weak	_ZN3fmt2v68internal8bit_castImPKvEET_RKT0_
	.type	_ZN3fmt2v68internal8bit_castImPKvEET_RKT0_, @function
_ZN3fmt2v68internal8bit_castImPKvEET_RKT0_:
.LFB8202:
	.cfi_startproc
	endbr64
	pushq	%rbp
	.cfi_def_cfa_offset 16
	.cfi_offset 6, -16
	movq	%rsp, %rbp
	.cfi_def_cfa_register 6
	subq	$32, %rsp
	movq	%rdi, -24(%rbp)
	movq	%fs:40, %rax
	movq	%rax, -8(%rbp)
	xorl	%eax, %eax
	movq	-24(%rbp), %rax
	movq	(%rax), %rax
	movq	%rax, -16(%rbp)
	movq	-16(%rbp), %rax
	movq	-8(%rbp), %rdx
	xorq	%fs:40, %rdx
	je	.L349
	call	__stack_chk_fail@PLT
.L349:
	leave
	.cfi_def_cfa 7, 8
	ret
	.cfi_endproc
.LFE8202:
	.size	_ZN3fmt2v68internal8bit_castImPKvEET_RKT0_, .-_ZN3fmt2v68internal8bit_castImPKvEET_RKT0_
	.section	.rodata
.LC25:
	.string	"negative value"
	.section	.text._ZN3fmt2v68internal11to_unsignedIlEENSt13make_unsignedIT_E4typeES4_,"axG",@progbits,_ZN3fmt2v68internal11to_unsignedIlEENSt13make_unsignedIT_E4typeES4_,comdat
	.weak	_ZN3fmt2v68internal11to_unsignedIlEENSt13make_unsignedIT_E4typeES4_
	.type	_ZN3fmt2v68internal11to_unsignedIlEENSt13make_unsignedIT_E4typeES4_, @function
_ZN3fmt2v68internal11to_unsignedIlEENSt13make_unsignedIT_E4typeES4_:
.LFB8209:
	.cfi_startproc
	endbr64
	pushq	%rbp
	.cfi_def_cfa_offset 16
	.cfi_offset 6, -16
	movq	%rsp, %rbp
	.cfi_def_cfa_register 6
	subq	$16, %rsp
	movq	%rdi, -8(%rbp)
	cmpq	$0, -8(%rbp)
	jns	.L351
	leaq	.LC25(%rip), %rdx
	movl	$266, %esi
	leaq	.LC6(%rip), %rdi
	call	_ZN3fmt2v68internal11assert_failEPKciS3_@PLT
.L351:
	movq	-8(%rbp), %rax
	leave
	.cfi_def_cfa 7, 8
	ret
	.cfi_endproc
.LFE8209:
	.size	_ZN3fmt2v68internal11to_unsignedIlEENSt13make_unsignedIT_E4typeES4_, .-_ZN3fmt2v68internal11to_unsignedIlEENSt13make_unsignedIT_E4typeES4_
	.section	.text._ZNSt14__shared_countILN9__gnu_cxx12_Lock_policyE2EED2Ev,"axG",@progbits,_ZNSt14__shared_countILN9__gnu_cxx12_Lock_policyE2EED5Ev,comdat
	.align 2
	.weak	_ZNSt14__shared_countILN9__gnu_cxx12_Lock_policyE2EED2Ev
	.type	_ZNSt14__shared_countILN9__gnu_cxx12_Lock_policyE2EED2Ev, @function
_ZNSt14__shared_countILN9__gnu_cxx12_Lock_policyE2EED2Ev:
.LFB8242:
	.cfi_startproc
	endbr64
	pushq	%rbp
	.cfi_def_cfa_offset 16
	.cfi_offset 6, -16
	movq	%rsp, %rbp
	.cfi_def_cfa_register 6
	subq	$16, %rsp
	movq	%rdi, -8(%rbp)
	movq	-8(%rbp), %rax
	movq	(%rax), %rax
	testq	%rax, %rax
	je	.L355
	movq	-8(%rbp), %rax
	movq	(%rax), %rax
	movq	%rax, %rdi
	call	_ZNSt16_Sp_counted_baseILN9__gnu_cxx12_Lock_policyE2EE10_M_releaseEv@PLT
.L355:
	nop
	leave
	.cfi_def_cfa 7, 8
	ret
	.cfi_endproc
.LFE8242:
	.size	_ZNSt14__shared_countILN9__gnu_cxx12_Lock_policyE2EED2Ev, .-_ZNSt14__shared_countILN9__gnu_cxx12_Lock_policyE2EED2Ev
	.weak	_ZNSt14__shared_countILN9__gnu_cxx12_Lock_policyE2EED1Ev
	.set	_ZNSt14__shared_countILN9__gnu_cxx12_Lock_policyE2EED1Ev,_ZNSt14__shared_countILN9__gnu_cxx12_Lock_policyE2EED2Ev
	.section	.text._ZSt4moveIRSt10shared_ptrI20RIOTFrameworkContextEEONSt16remove_referenceIT_E4typeEOS5_,"axG",@progbits,_ZSt4moveIRSt10shared_ptrI20RIOTFrameworkContextEEONSt16remove_referenceIT_E4typeEOS5_,comdat
	.weak	_ZSt4moveIRSt10shared_ptrI20RIOTFrameworkContextEEONSt16remove_referenceIT_E4typeEOS5_
	.type	_ZSt4moveIRSt10shared_ptrI20RIOTFrameworkContextEEONSt16remove_referenceIT_E4typeEOS5_, @function
_ZSt4moveIRSt10shared_ptrI20RIOTFrameworkContextEEONSt16remove_referenceIT_E4typeEOS5_:
.LFB8251:
	.cfi_startproc
	endbr64
	pushq	%rbp
	.cfi_def_cfa_offset 16
	.cfi_offset 6, -16
	movq	%rsp, %rbp
	.cfi_def_cfa_register 6
	movq	%rdi, -8(%rbp)
	movq	-8(%rbp), %rax
	popq	%rbp
	.cfi_def_cfa 7, 8
	ret
	.cfi_endproc
.LFE8251:
	.size	_ZSt4moveIRSt10shared_ptrI20RIOTFrameworkContextEEONSt16remove_referenceIT_E4typeEOS5_, .-_ZSt4moveIRSt10shared_ptrI20RIOTFrameworkContextEEONSt16remove_referenceIT_E4typeEOS5_
	.section	.text._ZNSt10shared_ptrI20RIOTFrameworkContextEC2EOS1_,"axG",@progbits,_ZNSt10shared_ptrI20RIOTFrameworkContextEC5EOS1_,comdat
	.align 2
	.weak	_ZNSt10shared_ptrI20RIOTFrameworkContextEC2EOS1_
	.type	_ZNSt10shared_ptrI20RIOTFrameworkContextEC2EOS1_, @function
_ZNSt10shared_ptrI20RIOTFrameworkContextEC2EOS1_:
.LFB8253:
	.cfi_startproc
	endbr64
	pushq	%rbp
	.cfi_def_cfa_offset 16
	.cfi_offset 6, -16
	movq	%rsp, %rbp
	.cfi_def_cfa_register 6
	pushq	%rbx
	subq	$24, %rsp
	.cfi_offset 3, -24
	movq	%rdi, -24(%rbp)
	movq	%rsi, -32(%rbp)
	movq	-24(%rbp), %rbx
	movq	-32(%rbp), %rax
	movq	%rax, %rdi
	call	_ZSt4moveIRSt10shared_ptrI20RIOTFrameworkContextEEONSt16remove_referenceIT_E4typeEOS5_@PLT
	movq	%rax, %rsi
	movq	%rbx, %rdi
	call	_ZNSt12__shared_ptrI20RIOTFrameworkContextLN9__gnu_cxx12_Lock_policyE2EEC2EOS3_@PLT
	nop
	addq	$24, %rsp
	popq	%rbx
	popq	%rbp
	.cfi_def_cfa 7, 8
	ret
	.cfi_endproc
.LFE8253:
	.size	_ZNSt10shared_ptrI20RIOTFrameworkContextEC2EOS1_, .-_ZNSt10shared_ptrI20RIOTFrameworkContextEC2EOS1_
	.weak	_ZNSt10shared_ptrI20RIOTFrameworkContextEC1EOS1_
	.set	_ZNSt10shared_ptrI20RIOTFrameworkContextEC1EOS1_,_ZNSt10shared_ptrI20RIOTFrameworkContextEC2EOS1_
	.section	.text._ZNSt14__shared_countILN9__gnu_cxx12_Lock_policyE2EEC2ERKS2_,"axG",@progbits,_ZNSt14__shared_countILN9__gnu_cxx12_Lock_policyE2EEC5ERKS2_,comdat
	.align 2
	.weak	_ZNSt14__shared_countILN9__gnu_cxx12_Lock_policyE2EEC2ERKS2_
	.type	_ZNSt14__shared_countILN9__gnu_cxx12_Lock_policyE2EEC2ERKS2_, @function
_ZNSt14__shared_countILN9__gnu_cxx12_Lock_policyE2EEC2ERKS2_:
.LFB8256:
	.cfi_startproc
	endbr64
	pushq	%rbp
	.cfi_def_cfa_offset 16
	.cfi_offset 6, -16
	movq	%rsp, %rbp
	.cfi_def_cfa_register 6
	subq	$16, %rsp
	movq	%rdi, -8(%rbp)
	movq	%rsi, -16(%rbp)
	movq	-16(%rbp), %rax
	movq	(%rax), %rdx
	movq	-8(%rbp), %rax
	movq	%rdx, (%rax)
	movq	-8(%rbp), %rax
	movq	(%rax), %rax
	testq	%rax, %rax
	je	.L361
	movq	-8(%rbp), %rax
	movq	(%rax), %rax
	movq	%rax, %rdi
	call	_ZNSt16_Sp_counted_baseILN9__gnu_cxx12_Lock_policyE2EE15_M_add_ref_copyEv@PLT
.L361:
	nop
	leave
	.cfi_def_cfa 7, 8
	ret
	.cfi_endproc
.LFE8256:
	.size	_ZNSt14__shared_countILN9__gnu_cxx12_Lock_policyE2EEC2ERKS2_, .-_ZNSt14__shared_countILN9__gnu_cxx12_Lock_policyE2EEC2ERKS2_
	.weak	_ZNSt14__shared_countILN9__gnu_cxx12_Lock_policyE2EEC1ERKS2_
	.set	_ZNSt14__shared_countILN9__gnu_cxx12_Lock_policyE2EEC1ERKS2_,_ZNSt14__shared_countILN9__gnu_cxx12_Lock_policyE2EEC2ERKS2_
	.section	.text._ZNSt10unique_ptrINSt10filesystem7__cxx114path5_List5_ImplENS3_13_Impl_deleterEED2Ev,"axG",@progbits,_ZNSt10unique_ptrINSt10filesystem7__cxx114path5_List5_ImplENS3_13_Impl_deleterEED5Ev,comdat
	.align 2
	.weak	_ZNSt10unique_ptrINSt10filesystem7__cxx114path5_List5_ImplENS3_13_Impl_deleterEED2Ev
	.type	_ZNSt10unique_ptrINSt10filesystem7__cxx114path5_List5_ImplENS3_13_Impl_deleterEED2Ev, @function
_ZNSt10unique_ptrINSt10filesystem7__cxx114path5_List5_ImplENS3_13_Impl_deleterEED2Ev:
.LFB8266:
	.cfi_startproc
	endbr64
	pushq	%rbp
	.cfi_def_cfa_offset 16
	.cfi_offset 6, -16
	movq	%rsp, %rbp
	.cfi_def_cfa_register 6
	pushq	%rbx
	subq	$40, %rsp
	.cfi_offset 3, -24
	movq	%rdi, -40(%rbp)
	movq	-40(%rbp), %rax
	movq	%rax, %rdi
	call	_ZNSt15__uniq_ptr_implINSt10filesystem7__cxx114path5_List5_ImplENS3_13_Impl_deleterEE6_M_ptrEv@PLT
	movq	%rax, -24(%rbp)
	movq	-24(%rbp), %rax
	movq	(%rax), %rax
	testq	%rax, %rax
	je	.L363
	movq	-40(%rbp), %rax
	movq	%rax, %rdi
	call	_ZNSt10unique_ptrINSt10filesystem7__cxx114path5_List5_ImplENS3_13_Impl_deleterEE11get_deleterEv@PLT
	movq	%rax, %rbx
	movq	-24(%rbp), %rax
	movq	%rax, %rdi
	call	_ZSt4moveIRPNSt10filesystem7__cxx114path5_List5_ImplEEONSt16remove_referenceIT_E4typeEOS8_@PLT
	movq	(%rax), %rax
	movq	%rax, %rsi
	movq	%rbx, %rdi
	call	_ZNKSt10filesystem7__cxx114path5_List13_Impl_deleterclEPNS2_5_ImplE@PLT
.L363:
	movq	-24(%rbp), %rax
	movq	$0, (%rax)
	nop
	addq	$40, %rsp
	popq	%rbx
	popq	%rbp
	.cfi_def_cfa 7, 8
	ret
	.cfi_endproc
.LFE8266:
	.size	_ZNSt10unique_ptrINSt10filesystem7__cxx114path5_List5_ImplENS3_13_Impl_deleterEED2Ev, .-_ZNSt10unique_ptrINSt10filesystem7__cxx114path5_List5_ImplENS3_13_Impl_deleterEED2Ev
	.weak	_ZNSt10unique_ptrINSt10filesystem7__cxx114path5_List5_ImplENS3_13_Impl_deleterEED1Ev
	.set	_ZNSt10unique_ptrINSt10filesystem7__cxx114path5_List5_ImplENS3_13_Impl_deleterEED1Ev,_ZNSt10unique_ptrINSt10filesystem7__cxx114path5_List5_ImplENS3_13_Impl_deleterEED2Ev
	.section	.text._ZNSt7__cxx1112basic_stringIcSt11char_traitsIcESaIcEEC2ISt17basic_string_viewIcS2_EvEERKT_RKS3_,"axG",@progbits,_ZNSt7__cxx1112basic_stringIcSt11char_traitsIcESaIcEEC5ISt17basic_string_viewIcS2_EvEERKT_RKS3_,comdat
	.align 2
	.weak	_ZNSt7__cxx1112basic_stringIcSt11char_traitsIcESaIcEEC2ISt17basic_string_viewIcS2_EvEERKT_RKS3_
	.type	_ZNSt7__cxx1112basic_stringIcSt11char_traitsIcESaIcEEC2ISt17basic_string_viewIcS2_EvEERKT_RKS3_, @function
_ZNSt7__cxx1112basic_stringIcSt11char_traitsIcESaIcEEC2ISt17basic_string_viewIcS2_EvEERKT_RKS3_:
.LFB8277:
	.cfi_startproc
	endbr64
	pushq	%rbp
	.cfi_def_cfa_offset 16
	.cfi_offset 6, -16
	movq	%rsp, %rbp
	.cfi_def_cfa_register 6
	pushq	%rbx
	subq	$72, %rsp
	.cfi_offset 3, -24
	movq	%rdi, -56(%rbp)
	movq	%rsi, -64(%rbp)
	movq	%rdx, -72(%rbp)
	movq	%fs:40, %rax
	movq	%rax, -24(%rbp)
	xorl	%eax, %eax
	movq	-64(%rbp), %rax
	movq	(%rax), %rdx
	movq	8(%rax), %rax
	movq	%rdx, %rdi
	movq	%rax, %rsi
	call	_ZNSt7__cxx1112basic_stringIcSt11char_traitsIcESaIcEE17_S_to_string_viewESt17basic_string_viewIcS2_E@PLT
	movq	%rax, %rcx
	movq	%rdx, %rbx
	leaq	-48(%rbp), %rax
	movq	%rcx, %rsi
	movq	%rax, %rdi
	call	_ZNSt7__cxx1112basic_stringIcSt11char_traitsIcESaIcEE12__sv_wrapperC1ESt17basic_string_viewIcS2_E@PLT
	movq	-72(%rbp), %rcx
	movq	-48(%rbp), %rsi
	movq	-40(%rbp), %rdx
	movq	-56(%rbp), %rax
	movq	%rax, %rdi
	call	_ZNSt7__cxx1112basic_stringIcSt11char_traitsIcESaIcEEC1ENS4_12__sv_wrapperERKS3_@PLT
	nop
	movq	-24(%rbp), %rax
	xorq	%fs:40, %rax
	je	.L365
	call	__stack_chk_fail@PLT
.L365:
	addq	$72, %rsp
	popq	%rbx
	popq	%rbp
	.cfi_def_cfa 7, 8
	ret
	.cfi_endproc
.LFE8277:
	.size	_ZNSt7__cxx1112basic_stringIcSt11char_traitsIcESaIcEEC2ISt17basic_string_viewIcS2_EvEERKT_RKS3_, .-_ZNSt7__cxx1112basic_stringIcSt11char_traitsIcESaIcEEC2ISt17basic_string_viewIcS2_EvEERKT_RKS3_
	.weak	_ZNSt7__cxx1112basic_stringIcSt11char_traitsIcESaIcEEC1ISt17basic_string_viewIcS2_EvEERKT_RKS3_
	.set	_ZNSt7__cxx1112basic_stringIcSt11char_traitsIcESaIcEEC1ISt17basic_string_viewIcS2_EvEERKT_RKS3_,_ZNSt7__cxx1112basic_stringIcSt11char_traitsIcESaIcEEC2ISt17basic_string_viewIcS2_EvEERKT_RKS3_
	.section	.text._ZNSt17basic_string_viewIcSt11char_traitsIcEEC2EPKc,"axG",@progbits,_ZNSt17basic_string_viewIcSt11char_traitsIcEEC5EPKc,comdat
	.align 2
	.weak	_ZNSt17basic_string_viewIcSt11char_traitsIcEEC2EPKc
	.type	_ZNSt17basic_string_viewIcSt11char_traitsIcEEC2EPKc, @function
_ZNSt17basic_string_viewIcSt11char_traitsIcEEC2EPKc:
.LFB8280:
	.cfi_startproc
	.cfi_personality 0x9b,DW.ref.__gxx_personality_v0
	.cfi_lsda 0x1b,.LLSDA8280
	endbr64
	pushq	%rbp
	.cfi_def_cfa_offset 16
	.cfi_offset 6, -16
	movq	%rsp, %rbp
	.cfi_def_cfa_register 6
	subq	$16, %rsp
	movq	%rdi, -8(%rbp)
	movq	%rsi, -16(%rbp)
	movq	-16(%rbp), %rax
	movq	%rax, %rdi
	call	_ZNSt11char_traitsIcE6lengthEPKc@PLT
	movq	-8(%rbp), %rdx
	movq	%rax, (%rdx)
	movq	-8(%rbp), %rax
	movq	-16(%rbp), %rdx
	movq	%rdx, 8(%rax)
	nop
	leave
	.cfi_def_cfa 7, 8
	ret
	.cfi_endproc
.LFE8280:
	.section	.gcc_except_table
.LLSDA8280:
	.byte	0xff
	.byte	0xff
	.byte	0x1
	.uleb128 .LLSDACSE8280-.LLSDACSB8280
.LLSDACSB8280:
.LLSDACSE8280:
	.section	.text._ZNSt17basic_string_viewIcSt11char_traitsIcEEC2EPKc,"axG",@progbits,_ZNSt17basic_string_viewIcSt11char_traitsIcEEC5EPKc,comdat
	.size	_ZNSt17basic_string_viewIcSt11char_traitsIcEEC2EPKc, .-_ZNSt17basic_string_viewIcSt11char_traitsIcEEC2EPKc
	.weak	_ZNSt17basic_string_viewIcSt11char_traitsIcEEC1EPKc
	.set	_ZNSt17basic_string_viewIcSt11char_traitsIcEEC1EPKc,_ZNSt17basic_string_viewIcSt11char_traitsIcEEC2EPKc
	.section	.text._ZNKSt10filesystem7__cxx114path6stringIcSt11char_traitsIcESaIcEEENSt7__cxx1112basic_stringIT_T0_T1_EERKSA_,"axG",@progbits,_ZNKSt10filesystem7__cxx114path6stringIcSt11char_traitsIcESaIcEEENSt7__cxx1112basic_stringIT_T0_T1_EERKSA_,comdat
	.align 2
	.weak	_ZNKSt10filesystem7__cxx114path6stringIcSt11char_traitsIcESaIcEEENSt7__cxx1112basic_stringIT_T0_T1_EERKSA_
	.type	_ZNKSt10filesystem7__cxx114path6stringIcSt11char_traitsIcESaIcEEENSt7__cxx1112basic_stringIT_T0_T1_EERKSA_, @function
_ZNKSt10filesystem7__cxx114path6stringIcSt11char_traitsIcESaIcEEENSt7__cxx1112basic_stringIT_T0_T1_EERKSA_:
.LFB8288:
	.cfi_startproc
	endbr64
	pushq	%rbp
	.cfi_def_cfa_offset 16
	.cfi_offset 6, -16
	movq	%rsp, %rbp
	.cfi_def_cfa_register 6
	pushq	%rbx
	subq	$40, %rsp
	.cfi_offset 3, -24
	movq	%rdi, -24(%rbp)
	movq	%rsi, -32(%rbp)
	movq	%rdx, -40(%rbp)
	movq	-32(%rbp), %rax
	movq	%rax, %rdi
	call	_ZNKSt7__cxx1112basic_stringIcSt11char_traitsIcESaIcEE5c_strEv@PLT
	movq	%rax, %rbx
	movq	-32(%rbp), %rax
	movq	%rax, %rdi
	call	_ZNKSt7__cxx1112basic_stringIcSt11char_traitsIcESaIcEE6lengthEv@PLT
	movq	%rax, %rsi
	movq	-40(%rbp), %rdx
	movq	-24(%rbp), %rax
	movq	%rdx, %rcx
	movq	%rsi, %rdx
	movq	%rbx, %rsi
	movq	%rax, %rdi
	call	_ZNSt7__cxx1112basic_stringIcSt11char_traitsIcESaIcEEC1EPKcmRKS3_@PLT
	movq	-24(%rbp), %rax
	addq	$40, %rsp
	popq	%rbx
	popq	%rbp
	.cfi_def_cfa 7, 8
	ret
	.cfi_endproc
.LFE8288:
	.size	_ZNKSt10filesystem7__cxx114path6stringIcSt11char_traitsIcESaIcEEENSt7__cxx1112basic_stringIT_T0_T1_EERKSA_, .-_ZNKSt10filesystem7__cxx114path6stringIcSt11char_traitsIcESaIcEEENSt7__cxx1112basic_stringIT_T0_T1_EERKSA_
	.section	.text._ZNSt14__shared_countILN9__gnu_cxx12_Lock_policyE2EEC2Ev,"axG",@progbits,_ZNSt14__shared_countILN9__gnu_cxx12_Lock_policyE2EEC5Ev,comdat
	.align 2
	.weak	_ZNSt14__shared_countILN9__gnu_cxx12_Lock_policyE2EEC2Ev
	.type	_ZNSt14__shared_countILN9__gnu_cxx12_Lock_policyE2EEC2Ev, @function
_ZNSt14__shared_countILN9__gnu_cxx12_Lock_policyE2EEC2Ev:
.LFB8304:
	.cfi_startproc
	endbr64
	pushq	%rbp
	.cfi_def_cfa_offset 16
	.cfi_offset 6, -16
	movq	%rsp, %rbp
	.cfi_def_cfa_register 6
	movq	%rdi, -8(%rbp)
	movq	-8(%rbp), %rax
	movq	$0, (%rax)
	nop
	popq	%rbp
	.cfi_def_cfa 7, 8
	ret
	.cfi_endproc
.LFE8304:
	.size	_ZNSt14__shared_countILN9__gnu_cxx12_Lock_policyE2EEC2Ev, .-_ZNSt14__shared_countILN9__gnu_cxx12_Lock_policyE2EEC2Ev
	.weak	_ZNSt14__shared_countILN9__gnu_cxx12_Lock_policyE2EEC1Ev
	.set	_ZNSt14__shared_countILN9__gnu_cxx12_Lock_policyE2EEC1Ev,_ZNSt14__shared_countILN9__gnu_cxx12_Lock_policyE2EEC2Ev
	.section	.text._ZNSt12_Vector_baseISt10unique_ptrI19InspectionSubServerSt14default_deleteIS1_EESaIS4_EE12_Vector_implC2Ev,"axG",@progbits,_ZNSt12_Vector_baseISt10unique_ptrI19InspectionSubServerSt14default_deleteIS1_EESaIS4_EE12_Vector_implC5Ev,comdat
	.align 2
	.weak	_ZNSt12_Vector_baseISt10unique_ptrI19InspectionSubServerSt14default_deleteIS1_EESaIS4_EE12_Vector_implC2Ev
	.type	_ZNSt12_Vector_baseISt10unique_ptrI19InspectionSubServerSt14default_deleteIS1_EESaIS4_EE12_Vector_implC2Ev, @function
_ZNSt12_Vector_baseISt10unique_ptrI19InspectionSubServerSt14default_deleteIS1_EESaIS4_EE12_Vector_implC2Ev:
.LFB8325:
	.cfi_startproc
	endbr64
	pushq	%rbp
	.cfi_def_cfa_offset 16
	.cfi_offset 6, -16
	movq	%rsp, %rbp
	.cfi_def_cfa_register 6
	subq	$16, %rsp
	movq	%rdi, -8(%rbp)
	movq	-8(%rbp), %rax
	movq	%rax, %rdi
	call	_ZNSaISt10unique_ptrI19InspectionSubServerSt14default_deleteIS0_EEEC2Ev@PLT
	movq	-8(%rbp), %rax
	movq	%rax, %rdi
	call	_ZNSt12_Vector_baseISt10unique_ptrI19InspectionSubServerSt14default_deleteIS1_EESaIS4_EE17_Vector_impl_dataC2Ev@PLT
	nop
	leave
	.cfi_def_cfa 7, 8
	ret
	.cfi_endproc
.LFE8325:
	.size	_ZNSt12_Vector_baseISt10unique_ptrI19InspectionSubServerSt14default_deleteIS1_EESaIS4_EE12_Vector_implC2Ev, .-_ZNSt12_Vector_baseISt10unique_ptrI19InspectionSubServerSt14default_deleteIS1_EESaIS4_EE12_Vector_implC2Ev
	.weak	_ZNSt12_Vector_baseISt10unique_ptrI19InspectionSubServerSt14default_deleteIS1_EESaIS4_EE12_Vector_implC1Ev
	.set	_ZNSt12_Vector_baseISt10unique_ptrI19InspectionSubServerSt14default_deleteIS1_EESaIS4_EE12_Vector_implC1Ev,_ZNSt12_Vector_baseISt10unique_ptrI19InspectionSubServerSt14default_deleteIS1_EESaIS4_EE12_Vector_implC2Ev
	.section	.text._ZNSaISt10unique_ptrI19InspectionSubServerSt14default_deleteIS0_EEED2Ev,"axG",@progbits,_ZNSaISt10unique_ptrI19InspectionSubServerSt14default_deleteIS0_EEED5Ev,comdat
	.align 2
	.weak	_ZNSaISt10unique_ptrI19InspectionSubServerSt14default_deleteIS0_EEED2Ev
	.type	_ZNSaISt10unique_ptrI19InspectionSubServerSt14default_deleteIS0_EEED2Ev, @function
_ZNSaISt10unique_ptrI19InspectionSubServerSt14default_deleteIS0_EEED2Ev:
.LFB8328:
	.cfi_startproc
	endbr64
	pushq	%rbp
	.cfi_def_cfa_offset 16
	.cfi_offset 6, -16
	movq	%rsp, %rbp
	.cfi_def_cfa_register 6
	subq	$16, %rsp
	movq	%rdi, -8(%rbp)
	movq	-8(%rbp), %rax
	movq	%rax, %rdi
	call	_ZN9__gnu_cxx13new_allocatorISt10unique_ptrI19InspectionSubServerSt14default_deleteIS2_EEED2Ev@PLT
	nop
	leave
	.cfi_def_cfa 7, 8
	ret
	.cfi_endproc
.LFE8328:
	.size	_ZNSaISt10unique_ptrI19InspectionSubServerSt14default_deleteIS0_EEED2Ev, .-_ZNSaISt10unique_ptrI19InspectionSubServerSt14default_deleteIS0_EEED2Ev
	.weak	_ZNSaISt10unique_ptrI19InspectionSubServerSt14default_deleteIS0_EEED1Ev
	.set	_ZNSaISt10unique_ptrI19InspectionSubServerSt14default_deleteIS0_EEED1Ev,_ZNSaISt10unique_ptrI19InspectionSubServerSt14default_deleteIS0_EEED2Ev
	.section	.text._ZNSt12_Vector_baseISt10unique_ptrI19InspectionSubServerSt14default_deleteIS1_EESaIS4_EED2Ev,"axG",@progbits,_ZNSt12_Vector_baseISt10unique_ptrI19InspectionSubServerSt14default_deleteIS1_EESaIS4_EED5Ev,comdat
	.align 2
	.weak	_ZNSt12_Vector_baseISt10unique_ptrI19InspectionSubServerSt14default_deleteIS1_EESaIS4_EED2Ev
	.type	_ZNSt12_Vector_baseISt10unique_ptrI19InspectionSubServerSt14default_deleteIS1_EESaIS4_EED2Ev, @function
_ZNSt12_Vector_baseISt10unique_ptrI19InspectionSubServerSt14default_deleteIS1_EESaIS4_EED2Ev:
.LFB8331:
	.cfi_startproc
	.cfi_personality 0x9b,DW.ref.__gxx_personality_v0
	.cfi_lsda 0x1b,.LLSDA8331
	endbr64
	pushq	%rbp
	.cfi_def_cfa_offset 16
	.cfi_offset 6, -16
	movq	%rsp, %rbp
	.cfi_def_cfa_register 6
	subq	$16, %rsp
	movq	%rdi, -8(%rbp)
	movq	-8(%rbp), %rax
	movq	16(%rax), %rdx
	movq	-8(%rbp), %rax
	movq	(%rax), %rax
	subq	%rax, %rdx
	movq	%rdx, %rax
	sarq	$3, %rax
	movq	%rax, %rdx
	movq	-8(%rbp), %rax
	movq	(%rax), %rcx
	movq	-8(%rbp), %rax
	movq	%rcx, %rsi
	movq	%rax, %rdi
	call	_ZNSt12_Vector_baseISt10unique_ptrI19InspectionSubServerSt14default_deleteIS1_EESaIS4_EE13_M_deallocateEPS4_m@PLT
	movq	-8(%rbp), %rax
	movq	%rax, %rdi
	call	_ZNSt12_Vector_baseISt10unique_ptrI19InspectionSubServerSt14default_deleteIS1_EESaIS4_EE12_Vector_implD1Ev@PLT
	nop
	leave
	.cfi_def_cfa 7, 8
	ret
	.cfi_endproc
.LFE8331:
	.section	.gcc_except_table
.LLSDA8331:
	.byte	0xff
	.byte	0xff
	.byte	0x1
	.uleb128 .LLSDACSE8331-.LLSDACSB8331
.LLSDACSB8331:
.LLSDACSE8331:
	.section	.text._ZNSt12_Vector_baseISt10unique_ptrI19InspectionSubServerSt14default_deleteIS1_EESaIS4_EED2Ev,"axG",@progbits,_ZNSt12_Vector_baseISt10unique_ptrI19InspectionSubServerSt14default_deleteIS1_EESaIS4_EED5Ev,comdat
	.size	_ZNSt12_Vector_baseISt10unique_ptrI19InspectionSubServerSt14default_deleteIS1_EESaIS4_EED2Ev, .-_ZNSt12_Vector_baseISt10unique_ptrI19InspectionSubServerSt14default_deleteIS1_EESaIS4_EED2Ev
	.weak	_ZNSt12_Vector_baseISt10unique_ptrI19InspectionSubServerSt14default_deleteIS1_EESaIS4_EED1Ev
	.set	_ZNSt12_Vector_baseISt10unique_ptrI19InspectionSubServerSt14default_deleteIS1_EESaIS4_EED1Ev,_ZNSt12_Vector_baseISt10unique_ptrI19InspectionSubServerSt14default_deleteIS1_EESaIS4_EED2Ev
	.section	.text._ZNSt6vectorISt10unique_ptrI19InspectionSubServerSt14default_deleteIS1_EESaIS4_EED2Ev,"axG",@progbits,_ZNSt6vectorISt10unique_ptrI19InspectionSubServerSt14default_deleteIS1_EESaIS4_EED5Ev,comdat
	.align 2
	.weak	_ZNSt6vectorISt10unique_ptrI19InspectionSubServerSt14default_deleteIS1_EESaIS4_EED2Ev
	.type	_ZNSt6vectorISt10unique_ptrI19InspectionSubServerSt14default_deleteIS1_EESaIS4_EED2Ev, @function
_ZNSt6vectorISt10unique_ptrI19InspectionSubServerSt14default_deleteIS1_EESaIS4_EED2Ev:
.LFB8334:
	.cfi_startproc
	.cfi_personality 0x9b,DW.ref.__gxx_personality_v0
	.cfi_lsda 0x1b,.LLSDA8334
	endbr64
	pushq	%rbp
	.cfi_def_cfa_offset 16
	.cfi_offset 6, -16
	movq	%rsp, %rbp
	.cfi_def_cfa_register 6
	subq	$16, %rsp
	movq	%rdi, -8(%rbp)
	movq	-8(%rbp), %rax
	movq	%rax, %rdi
	call	_ZNSt12_Vector_baseISt10unique_ptrI19InspectionSubServerSt14default_deleteIS1_EESaIS4_EE19_M_get_Tp_allocatorEv@PLT
	movq	%rax, %rdx
	movq	-8(%rbp), %rax
	movq	8(%rax), %rcx
	movq	-8(%rbp), %rax
	movq	(%rax), %rax
	movq	%rcx, %rsi
	movq	%rax, %rdi
	call	_ZSt8_DestroyIPSt10unique_ptrI19InspectionSubServerSt14default_deleteIS1_EES4_EvT_S6_RSaIT0_E@PLT
	movq	-8(%rbp), %rax
	movq	%rax, %rdi
	call	_ZNSt12_Vector_baseISt10unique_ptrI19InspectionSubServerSt14default_deleteIS1_EESaIS4_EED2Ev@PLT
	nop
	leave
	.cfi_def_cfa 7, 8
	ret
	.cfi_endproc
.LFE8334:
	.section	.gcc_except_table
.LLSDA8334:
	.byte	0xff
	.byte	0xff
	.byte	0x1
	.uleb128 .LLSDACSE8334-.LLSDACSB8334
.LLSDACSB8334:
.LLSDACSE8334:
	.section	.text._ZNSt6vectorISt10unique_ptrI19InspectionSubServerSt14default_deleteIS1_EESaIS4_EED2Ev,"axG",@progbits,_ZNSt6vectorISt10unique_ptrI19InspectionSubServerSt14default_deleteIS1_EESaIS4_EED5Ev,comdat
	.size	_ZNSt6vectorISt10unique_ptrI19InspectionSubServerSt14default_deleteIS1_EESaIS4_EED2Ev, .-_ZNSt6vectorISt10unique_ptrI19InspectionSubServerSt14default_deleteIS1_EESaIS4_EED2Ev
	.weak	_ZNSt6vectorISt10unique_ptrI19InspectionSubServerSt14default_deleteIS1_EESaIS4_EED1Ev
	.set	_ZNSt6vectorISt10unique_ptrI19InspectionSubServerSt14default_deleteIS1_EESaIS4_EED1Ev,_ZNSt6vectorISt10unique_ptrI19InspectionSubServerSt14default_deleteIS1_EESaIS4_EED2Ev
	.section	.text._ZNSt10shared_ptrIN6spdlog6loggerEEC2Ev,"axG",@progbits,_ZNSt10shared_ptrIN6spdlog6loggerEEC5Ev,comdat
	.align 2
	.weak	_ZNSt10shared_ptrIN6spdlog6loggerEEC2Ev
	.type	_ZNSt10shared_ptrIN6spdlog6loggerEEC2Ev, @function
_ZNSt10shared_ptrIN6spdlog6loggerEEC2Ev:
.LFB8337:
	.cfi_startproc
	endbr64
	pushq	%rbp
	.cfi_def_cfa_offset 16
	.cfi_offset 6, -16
	movq	%rsp, %rbp
	.cfi_def_cfa_register 6
	subq	$16, %rsp
	movq	%rdi, -8(%rbp)
	movq	-8(%rbp), %rax
	movq	%rax, %rdi
	call	_ZNSt12__shared_ptrIN6spdlog6loggerELN9__gnu_cxx12_Lock_policyE2EEC2Ev@PLT
	nop
	leave
	.cfi_def_cfa 7, 8
	ret
	.cfi_endproc
.LFE8337:
	.size	_ZNSt10shared_ptrIN6spdlog6loggerEEC2Ev, .-_ZNSt10shared_ptrIN6spdlog6loggerEEC2Ev
	.weak	_ZNSt10shared_ptrIN6spdlog6loggerEEC1Ev
	.set	_ZNSt10shared_ptrIN6spdlog6loggerEEC1Ev,_ZNSt10shared_ptrIN6spdlog6loggerEEC2Ev
	.section	.text._ZNSt10shared_ptrI20RIOTFrameworkContextEC2Ev,"axG",@progbits,_ZNSt10shared_ptrI20RIOTFrameworkContextEC5Ev,comdat
	.align 2
	.weak	_ZNSt10shared_ptrI20RIOTFrameworkContextEC2Ev
	.type	_ZNSt10shared_ptrI20RIOTFrameworkContextEC2Ev, @function
_ZNSt10shared_ptrI20RIOTFrameworkContextEC2Ev:
.LFB8340:
	.cfi_startproc
	endbr64
	pushq	%rbp
	.cfi_def_cfa_offset 16
	.cfi_offset 6, -16
	movq	%rsp, %rbp
	.cfi_def_cfa_register 6
	subq	$16, %rsp
	movq	%rdi, -8(%rbp)
	movq	-8(%rbp), %rax
	movq	%rax, %rdi
	call	_ZNSt12__shared_ptrI20RIOTFrameworkContextLN9__gnu_cxx12_Lock_policyE2EEC2Ev@PLT
	nop
	leave
	.cfi_def_cfa 7, 8
	ret
	.cfi_endproc
.LFE8340:
	.size	_ZNSt10shared_ptrI20RIOTFrameworkContextEC2Ev, .-_ZNSt10shared_ptrI20RIOTFrameworkContextEC2Ev
	.weak	_ZNSt10shared_ptrI20RIOTFrameworkContextEC1Ev
	.set	_ZNSt10shared_ptrI20RIOTFrameworkContextEC1Ev,_ZNSt10shared_ptrI20RIOTFrameworkContextEC2Ev
	.section	.text._ZNSt10shared_ptrI11MsgUploaderEC2Ev,"axG",@progbits,_ZNSt10shared_ptrI11MsgUploaderEC5Ev,comdat
	.align 2
	.weak	_ZNSt10shared_ptrI11MsgUploaderEC2Ev
	.type	_ZNSt10shared_ptrI11MsgUploaderEC2Ev, @function
_ZNSt10shared_ptrI11MsgUploaderEC2Ev:
.LFB8343:
	.cfi_startproc
	endbr64
	pushq	%rbp
	.cfi_def_cfa_offset 16
	.cfi_offset 6, -16
	movq	%rsp, %rbp
	.cfi_def_cfa_register 6
	subq	$16, %rsp
	movq	%rdi, -8(%rbp)
	movq	-8(%rbp), %rax
	movq	%rax, %rdi
	call	_ZNSt12__shared_ptrI11MsgUploaderLN9__gnu_cxx12_Lock_policyE2EEC2Ev@PLT
	nop
	leave
	.cfi_def_cfa 7, 8
	ret
	.cfi_endproc
.LFE8343:
	.size	_ZNSt10shared_ptrI11MsgUploaderEC2Ev, .-_ZNSt10shared_ptrI11MsgUploaderEC2Ev
	.weak	_ZNSt10shared_ptrI11MsgUploaderEC1Ev
	.set	_ZNSt10shared_ptrI11MsgUploaderEC1Ev,_ZNSt10shared_ptrI11MsgUploaderEC2Ev
	.section	.text._ZNKSt19__shared_ptr_accessIN6spdlog6loggerELN9__gnu_cxx12_Lock_policyE2ELb0ELb0EEptEv,"axG",@progbits,_ZNKSt19__shared_ptr_accessIN6spdlog6loggerELN9__gnu_cxx12_Lock_policyE2ELb0ELb0EEptEv,comdat
	.align 2
	.weak	_ZNKSt19__shared_ptr_accessIN6spdlog6loggerELN9__gnu_cxx12_Lock_policyE2ELb0ELb0EEptEv
	.type	_ZNKSt19__shared_ptr_accessIN6spdlog6loggerELN9__gnu_cxx12_Lock_policyE2ELb0ELb0EEptEv, @function
_ZNKSt19__shared_ptr_accessIN6spdlog6loggerELN9__gnu_cxx12_Lock_policyE2ELb0ELb0EEptEv:
.LFB8354:
	.cfi_startproc
	endbr64
	pushq	%rbp
	.cfi_def_cfa_offset 16
	.cfi_offset 6, -16
	movq	%rsp, %rbp
	.cfi_def_cfa_register 6
	subq	$16, %rsp
	movq	%rdi, -8(%rbp)
	movq	-8(%rbp), %rax
	movq	%rax, %rdi
	call	_ZNKSt19__shared_ptr_accessIN6spdlog6loggerELN9__gnu_cxx12_Lock_policyE2ELb0ELb0EE6_M_getEv@PLT
	leave
	.cfi_def_cfa 7, 8
	ret
	.cfi_endproc
.LFE8354:
	.size	_ZNKSt19__shared_ptr_accessIN6spdlog6loggerELN9__gnu_cxx12_Lock_policyE2ELb0ELb0EEptEv, .-_ZNKSt19__shared_ptr_accessIN6spdlog6loggerELN9__gnu_cxx12_Lock_policyE2ELb0ELb0EEptEv
	.section	.text._ZN6spdlog6logger5errorIA27_cEEvRKT_,"axG",@progbits,_ZN6spdlog6logger5errorIA27_cEEvRKT_,comdat
	.align 2
	.weak	_ZN6spdlog6logger5errorIA27_cEEvRKT_
	.type	_ZN6spdlog6logger5errorIA27_cEEvRKT_, @function
_ZN6spdlog6logger5errorIA27_cEEvRKT_:
.LFB8355:
	.cfi_startproc
	endbr64
	pushq	%rbp
	.cfi_def_cfa_offset 16
	.cfi_offset 6, -16
	movq	%rsp, %rbp
	.cfi_def_cfa_register 6
	subq	$16, %rsp
	movq	%rdi, -8(%rbp)
	movq	%rsi, -16(%rbp)
	movq	-16(%rbp), %rdx
	movq	-8(%rbp), %rax
	movl	$4, %esi
	movq	%rax, %rdi
	call	_ZN6spdlog6logger3logIA27_cEEvNS_5level10level_enumERKT_@PLT
	nop
	leave
	.cfi_def_cfa 7, 8
	ret
	.cfi_endproc
.LFE8355:
	.size	_ZN6spdlog6logger5errorIA27_cEEvRKT_, .-_ZN6spdlog6logger5errorIA27_cEEvRKT_
	.section	.text._ZNSt10shared_ptrI20RIOTFrameworkContextEaSEOS1_,"axG",@progbits,_ZNSt10shared_ptrI20RIOTFrameworkContextEaSEOS1_,comdat
	.align 2
	.weak	_ZNSt10shared_ptrI20RIOTFrameworkContextEaSEOS1_
	.type	_ZNSt10shared_ptrI20RIOTFrameworkContextEaSEOS1_, @function
_ZNSt10shared_ptrI20RIOTFrameworkContextEaSEOS1_:
.LFB8357:
	.cfi_startproc
	endbr64
	pushq	%rbp
	.cfi_def_cfa_offset 16
	.cfi_offset 6, -16
	movq	%rsp, %rbp
	.cfi_def_cfa_register 6
	pushq	%rbx
	subq	$24, %rsp
	.cfi_offset 3, -24
	movq	%rdi, -24(%rbp)
	movq	%rsi, -32(%rbp)
	movq	-24(%rbp), %rbx
	movq	-32(%rbp), %rax
	movq	%rax, %rdi
	call	_ZSt4moveIRSt10shared_ptrI20RIOTFrameworkContextEEONSt16remove_referenceIT_E4typeEOS5_@PLT
	movq	%rax, %rsi
	movq	%rbx, %rdi
	call	_ZNSt12__shared_ptrI20RIOTFrameworkContextLN9__gnu_cxx12_Lock_policyE2EEaSEOS3_@PLT
	movq	-24(%rbp), %rax
	addq	$24, %rsp
	popq	%rbx
	popq	%rbp
	.cfi_def_cfa 7, 8
	ret
	.cfi_endproc
.LFE8357:
	.size	_ZNSt10shared_ptrI20RIOTFrameworkContextEaSEOS1_, .-_ZNSt10shared_ptrI20RIOTFrameworkContextEaSEOS1_
	.section	.text._ZNKSt19__shared_ptr_accessI20RIOTFrameworkContextLN9__gnu_cxx12_Lock_policyE2ELb0ELb0EEptEv,"axG",@progbits,_ZNKSt19__shared_ptr_accessI20RIOTFrameworkContextLN9__gnu_cxx12_Lock_policyE2ELb0ELb0EEptEv,comdat
	.align 2
	.weak	_ZNKSt19__shared_ptr_accessI20RIOTFrameworkContextLN9__gnu_cxx12_Lock_policyE2ELb0ELb0EEptEv
	.type	_ZNKSt19__shared_ptr_accessI20RIOTFrameworkContextLN9__gnu_cxx12_Lock_policyE2ELb0ELb0EEptEv, @function
_ZNKSt19__shared_ptr_accessI20RIOTFrameworkContextLN9__gnu_cxx12_Lock_policyE2ELb0ELb0EEptEv:
.LFB8358:
	.cfi_startproc
	endbr64
	pushq	%rbp
	.cfi_def_cfa_offset 16
	.cfi_offset 6, -16
	movq	%rsp, %rbp
	.cfi_def_cfa_register 6
	subq	$16, %rsp
	movq	%rdi, -8(%rbp)
	movq	-8(%rbp), %rax
	movq	%rax, %rdi
	call	_ZNKSt19__shared_ptr_accessI20RIOTFrameworkContextLN9__gnu_cxx12_Lock_policyE2ELb0ELb0EE6_M_getEv@PLT
	leave
	.cfi_def_cfa 7, 8
	ret
	.cfi_endproc
.LFE8358:
	.size	_ZNKSt19__shared_ptr_accessI20RIOTFrameworkContextLN9__gnu_cxx12_Lock_policyE2ELb0ELb0EEptEv, .-_ZNKSt19__shared_ptr_accessI20RIOTFrameworkContextLN9__gnu_cxx12_Lock_policyE2ELb0ELb0EEptEv
	.section	.text._ZNKSt10unique_ptrI16FrameWorkEnvInfoSt14default_deleteIS0_EEptEv,"axG",@progbits,_ZNKSt10unique_ptrI16FrameWorkEnvInfoSt14default_deleteIS0_EEptEv,comdat
	.align 2
	.weak	_ZNKSt10unique_ptrI16FrameWorkEnvInfoSt14default_deleteIS0_EEptEv
	.type	_ZNKSt10unique_ptrI16FrameWorkEnvInfoSt14default_deleteIS0_EEptEv, @function
_ZNKSt10unique_ptrI16FrameWorkEnvInfoSt14default_deleteIS0_EEptEv:
.LFB8359:
	.cfi_startproc
	endbr64
	pushq	%rbp
	.cfi_def_cfa_offset 16
	.cfi_offset 6, -16
	movq	%rsp, %rbp
	.cfi_def_cfa_register 6
	subq	$16, %rsp
	movq	%rdi, -8(%rbp)
	movq	-8(%rbp), %rax
	movq	%rax, %rdi
	call	_ZNKSt10unique_ptrI16FrameWorkEnvInfoSt14default_deleteIS0_EE3getEv@PLT
	leave
	.cfi_def_cfa 7, 8
	ret
	.cfi_endproc
.LFE8359:
	.size	_ZNKSt10unique_ptrI16FrameWorkEnvInfoSt14default_deleteIS0_EEptEv, .-_ZNKSt10unique_ptrI16FrameWorkEnvInfoSt14default_deleteIS0_EEptEv
	.section	.text._ZNSt10shared_ptrIN6spdlog6loggerEEaSEOS2_,"axG",@progbits,_ZNSt10shared_ptrIN6spdlog6loggerEEaSEOS2_,comdat
	.align 2
	.weak	_ZNSt10shared_ptrIN6spdlog6loggerEEaSEOS2_
	.type	_ZNSt10shared_ptrIN6spdlog6loggerEEaSEOS2_, @function
_ZNSt10shared_ptrIN6spdlog6loggerEEaSEOS2_:
.LFB8360:
	.cfi_startproc
	endbr64
	pushq	%rbp
	.cfi_def_cfa_offset 16
	.cfi_offset 6, -16
	movq	%rsp, %rbp
	.cfi_def_cfa_register 6
	pushq	%rbx
	subq	$24, %rsp
	.cfi_offset 3, -24
	movq	%rdi, -24(%rbp)
	movq	%rsi, -32(%rbp)
	movq	-24(%rbp), %rbx
	movq	-32(%rbp), %rax
	movq	%rax, %rdi
	call	_ZSt4moveIRSt10shared_ptrIN6spdlog6loggerEEEONSt16remove_referenceIT_E4typeEOS6_@PLT
	movq	%rax, %rsi
	movq	%rbx, %rdi
	call	_ZNSt12__shared_ptrIN6spdlog6loggerELN9__gnu_cxx12_Lock_policyE2EEaSEOS4_@PLT
	movq	-24(%rbp), %rax
	addq	$24, %rsp
	popq	%rbx
	popq	%rbp
	.cfi_def_cfa 7, 8
	ret
	.cfi_endproc
.LFE8360:
	.size	_ZNSt10shared_ptrIN6spdlog6loggerEEaSEOS2_, .-_ZNSt10shared_ptrIN6spdlog6loggerEEaSEOS2_
	.section	.text._ZNSt10filesystem7__cxx114pathC2INSt7__cxx1112basic_stringIcSt11char_traitsIcESaIcEEES1_EERKT_NS1_6formatE,"axG",@progbits,_ZNSt10filesystem7__cxx114pathC5INSt7__cxx1112basic_stringIcSt11char_traitsIcESaIcEEES1_EERKT_NS1_6formatE,comdat
	.align 2
	.weak	_ZNSt10filesystem7__cxx114pathC2INSt7__cxx1112basic_stringIcSt11char_traitsIcESaIcEEES1_EERKT_NS1_6formatE
	.type	_ZNSt10filesystem7__cxx114pathC2INSt7__cxx1112basic_stringIcSt11char_traitsIcESaIcEEES1_EERKT_NS1_6formatE, @function
_ZNSt10filesystem7__cxx114pathC2INSt7__cxx1112basic_stringIcSt11char_traitsIcESaIcEEES1_EERKT_NS1_6formatE:
.LFB8362:
	.cfi_startproc
	.cfi_personality 0x9b,DW.ref.__gxx_personality_v0
	.cfi_lsda 0x1b,.LLSDA8362
	endbr64
	pushq	%rbp
	.cfi_def_cfa_offset 16
	.cfi_offset 6, -16
	movq	%rsp, %rbp
	.cfi_def_cfa_register 6
	pushq	%r12
	pushq	%rbx
	subq	$80, %rsp
	.cfi_offset 12, -24
	.cfi_offset 3, -32
	movq	%rdi, -72(%rbp)
	movq	%rsi, -80(%rbp)
	movl	%edx, %eax
	movb	%al, -84(%rbp)
	movq	%fs:40, %rax
	movq	%rax, -24(%rbp)
	xorl	%eax, %eax
	movq	-72(%rbp), %rbx
	leaq	-49(%rbp), %rax
	movq	%rax, %rdi
	call	_ZNSaIcEC1Ev@PLT
	movq	-80(%rbp), %rax
	movq	%rax, %rdi
	call	_ZNSt10filesystem7__cxx114path12_S_range_endIcSt11char_traitsIcESaIcEEEPKT_RKNSt7__cxx1112basic_stringIS6_T0_T1_EE@PLT
	movq	%rax, %r12
	movq	-80(%rbp), %rax
	movq	%rax, %rdi
	call	_ZNSt10filesystem7__cxx114path14_S_range_beginIcSt11char_traitsIcESaIcEEEPKT_RKNSt7__cxx1112basic_stringIS6_T0_T1_EE@PLT
	movq	%r12, %rsi
	movq	%rax, %rdi
	call	_ZNSt10filesystem7__cxx114path10_S_convertEPKcS3_@PLT
	movq	%rax, -48(%rbp)
	movq	%rdx, -40(%rbp)
	leaq	-49(%rbp), %rdx
	leaq	-48(%rbp), %rax
	movq	%rax, %rsi
	movq	%rbx, %rdi
.LEHB33:
	call	_ZNSt7__cxx1112basic_stringIcSt11char_traitsIcESaIcEEC1ISt17basic_string_viewIcS2_EvEERKT_RKS3_@PLT
.LEHE33:
	leaq	-49(%rbp), %rax
	movq	%rax, %rdi
	call	_ZNSaIcED1Ev@PLT
	movq	-72(%rbp), %rax
	addq	$32, %rax
	movq	%rax, %rdi
.LEHB34:
	call	_ZNSt10filesystem7__cxx114path5_ListC1Ev@PLT
.LEHE34:
	movq	-72(%rbp), %rax
	movq	%rax, %rdi
.LEHB35:
	call	_ZNSt10filesystem7__cxx114path14_M_split_cmptsEv@PLT
.LEHE35:
	jmp	.L396
.L393:
	endbr64
	movq	%rax, %rbx
	leaq	-49(%rbp), %rax
	movq	%rax, %rdi
	call	_ZNSaIcED1Ev@PLT
	movq	%rbx, %rax
	movq	%rax, %rdi
.LEHB36:
	call	_Unwind_Resume@PLT
.L395:
	endbr64
	movq	%rax, %rbx
	movq	-72(%rbp), %rax
	addq	$32, %rax
	movq	%rax, %rdi
	call	_ZNSt10filesystem7__cxx114path5_ListD1Ev@PLT
	jmp	.L391
.L394:
	endbr64
	movq	%rax, %rbx
.L391:
	movq	-72(%rbp), %rax
	movq	%rax, %rdi
	call	_ZNSt7__cxx1112basic_stringIcSt11char_traitsIcESaIcEED1Ev@PLT
	movq	%rbx, %rax
	movq	%rax, %rdi
	call	_Unwind_Resume@PLT
.LEHE36:
.L396:
	movq	-24(%rbp), %rax
	xorq	%fs:40, %rax
	je	.L392
	call	__stack_chk_fail@PLT
.L392:
	addq	$80, %rsp
	popq	%rbx
	popq	%r12
	popq	%rbp
	.cfi_def_cfa 7, 8
	ret
	.cfi_endproc
.LFE8362:
	.section	.gcc_except_table
.LLSDA8362:
	.byte	0xff
	.byte	0xff
	.byte	0x1
	.uleb128 .LLSDACSE8362-.LLSDACSB8362
.LLSDACSB8362:
	.uleb128 .LEHB33-.LFB8362
	.uleb128 .LEHE33-.LEHB33
	.uleb128 .L393-.LFB8362
	.uleb128 0
	.uleb128 .LEHB34-.LFB8362
	.uleb128 .LEHE34-.LEHB34
	.uleb128 .L394-.LFB8362
	.uleb128 0
	.uleb128 .LEHB35-.LFB8362
	.uleb128 .LEHE35-.LEHB35
	.uleb128 .L395-.LFB8362
	.uleb128 0
	.uleb128 .LEHB36-.LFB8362
	.uleb128 .LEHE36-.LEHB36
	.uleb128 0
	.uleb128 0
.LLSDACSE8362:
	.section	.text._ZNSt10filesystem7__cxx114pathC2INSt7__cxx1112basic_stringIcSt11char_traitsIcESaIcEEES1_EERKT_NS1_6formatE,"axG",@progbits,_ZNSt10filesystem7__cxx114pathC5INSt7__cxx1112basic_stringIcSt11char_traitsIcESaIcEEES1_EERKT_NS1_6formatE,comdat
	.size	_ZNSt10filesystem7__cxx114pathC2INSt7__cxx1112basic_stringIcSt11char_traitsIcESaIcEEES1_EERKT_NS1_6formatE, .-_ZNSt10filesystem7__cxx114pathC2INSt7__cxx1112basic_stringIcSt11char_traitsIcESaIcEEES1_EERKT_NS1_6formatE
	.weak	_ZNSt10filesystem7__cxx114pathC1INSt7__cxx1112basic_stringIcSt11char_traitsIcESaIcEEES1_EERKT_NS1_6formatE
	.set	_ZNSt10filesystem7__cxx114pathC1INSt7__cxx1112basic_stringIcSt11char_traitsIcESaIcEEES1_EERKT_NS1_6formatE,_ZNSt10filesystem7__cxx114pathC2INSt7__cxx1112basic_stringIcSt11char_traitsIcESaIcEEES1_EERKT_NS1_6formatE
	.section	.text._ZNSt10filesystem7__cxx114pathC2IPKcS1_EERKT_NS1_6formatE,"axG",@progbits,_ZNSt10filesystem7__cxx114pathC5IPKcS1_EERKT_NS1_6formatE,comdat
	.align 2
	.weak	_ZNSt10filesystem7__cxx114pathC2IPKcS1_EERKT_NS1_6formatE
	.type	_ZNSt10filesystem7__cxx114pathC2IPKcS1_EERKT_NS1_6formatE, @function
_ZNSt10filesystem7__cxx114pathC2IPKcS1_EERKT_NS1_6formatE:
.LFB8365:
	.cfi_startproc
	.cfi_personality 0x9b,DW.ref.__gxx_personality_v0
	.cfi_lsda 0x1b,.LLSDA8365
	endbr64
	pushq	%rbp
	.cfi_def_cfa_offset 16
	.cfi_offset 6, -16
	movq	%rsp, %rbp
	.cfi_def_cfa_register 6
	pushq	%rbx
	subq	$88, %rsp
	.cfi_offset 3, -24
	movq	%rdi, -72(%rbp)
	movq	%rsi, -80(%rbp)
	movl	%edx, %eax
	movb	%al, -84(%rbp)
	movq	%fs:40, %rax
	movq	%rax, -24(%rbp)
	xorl	%eax, %eax
	movq	-72(%rbp), %rbx
	leaq	-49(%rbp), %rax
	movq	%rax, %rdi
	call	_ZNSaIcEC1Ev@PLT
	movq	-80(%rbp), %rax
	movq	(%rax), %rax
	movq	%rax, %rdi
	call	_ZNSt10filesystem7__cxx114path12_S_range_endIPKcEENS1_17__null_terminatedET_@PLT
	movq	-80(%rbp), %rax
	movq	(%rax), %rax
	movq	%rax, %rdi
	call	_ZNSt10filesystem7__cxx114path14_S_range_beginIPKcEET_S5_@PLT
	movq	%rax, %rdi
	call	_ZNSt10filesystem7__cxx114path10_S_convertEPKcNS1_17__null_terminatedE@PLT
	movq	%rax, -48(%rbp)
	movq	%rdx, -40(%rbp)
	leaq	-49(%rbp), %rdx
	leaq	-48(%rbp), %rax
	movq	%rax, %rsi
	movq	%rbx, %rdi
.LEHB37:
	call	_ZNSt7__cxx1112basic_stringIcSt11char_traitsIcESaIcEEC1ISt17basic_string_viewIcS2_EvEERKT_RKS3_@PLT
.LEHE37:
	leaq	-49(%rbp), %rax
	movq	%rax, %rdi
	call	_ZNSaIcED1Ev@PLT
	movq	-72(%rbp), %rax
	addq	$32, %rax
	movq	%rax, %rdi
.LEHB38:
	call	_ZNSt10filesystem7__cxx114path5_ListC1Ev@PLT
.LEHE38:
	movq	-72(%rbp), %rax
	movq	%rax, %rdi
.LEHB39:
	call	_ZNSt10filesystem7__cxx114path14_M_split_cmptsEv@PLT
.LEHE39:
	jmp	.L405
.L402:
	endbr64
	movq	%rax, %rbx
	leaq	-49(%rbp), %rax
	movq	%rax, %rdi
	call	_ZNSaIcED1Ev@PLT
	movq	%rbx, %rax
	movq	%rax, %rdi
.LEHB40:
	call	_Unwind_Resume@PLT
.L404:
	endbr64
	movq	%rax, %rbx
	movq	-72(%rbp), %rax
	addq	$32, %rax
	movq	%rax, %rdi
	call	_ZNSt10filesystem7__cxx114path5_ListD1Ev@PLT
	jmp	.L400
.L403:
	endbr64
	movq	%rax, %rbx
.L400:
	movq	-72(%rbp), %rax
	movq	%rax, %rdi
	call	_ZNSt7__cxx1112basic_stringIcSt11char_traitsIcESaIcEED1Ev@PLT
	movq	%rbx, %rax
	movq	%rax, %rdi
	call	_Unwind_Resume@PLT
.LEHE40:
.L405:
	movq	-24(%rbp), %rax
	xorq	%fs:40, %rax
	je	.L401
	call	__stack_chk_fail@PLT
.L401:
	addq	$88, %rsp
	popq	%rbx
	popq	%rbp
	.cfi_def_cfa 7, 8
	ret
	.cfi_endproc
.LFE8365:
	.section	.gcc_except_table
.LLSDA8365:
	.byte	0xff
	.byte	0xff
	.byte	0x1
	.uleb128 .LLSDACSE8365-.LLSDACSB8365
.LLSDACSB8365:
	.uleb128 .LEHB37-.LFB8365
	.uleb128 .LEHE37-.LEHB37
	.uleb128 .L402-.LFB8365
	.uleb128 0
	.uleb128 .LEHB38-.LFB8365
	.uleb128 .LEHE38-.LEHB38
	.uleb128 .L403-.LFB8365
	.uleb128 0
	.uleb128 .LEHB39-.LFB8365
	.uleb128 .LEHE39-.LEHB39
	.uleb128 .L404-.LFB8365
	.uleb128 0
	.uleb128 .LEHB40-.LFB8365
	.uleb128 .LEHE40-.LEHB40
	.uleb128 0
	.uleb128 0
.LLSDACSE8365:
	.section	.text._ZNSt10filesystem7__cxx114pathC2IPKcS1_EERKT_NS1_6formatE,"axG",@progbits,_ZNSt10filesystem7__cxx114pathC5IPKcS1_EERKT_NS1_6formatE,comdat
	.size	_ZNSt10filesystem7__cxx114pathC2IPKcS1_EERKT_NS1_6formatE, .-_ZNSt10filesystem7__cxx114pathC2IPKcS1_EERKT_NS1_6formatE
	.weak	_ZNSt10filesystem7__cxx114pathC1IPKcS1_EERKT_NS1_6formatE
	.set	_ZNSt10filesystem7__cxx114pathC1IPKcS1_EERKT_NS1_6formatE,_ZNSt10filesystem7__cxx114pathC2IPKcS1_EERKT_NS1_6formatE
	.section	.text._ZN6spdlog6logger5errorIA33_cEEvRKT_,"axG",@progbits,_ZN6spdlog6logger5errorIA33_cEEvRKT_,comdat
	.align 2
	.weak	_ZN6spdlog6logger5errorIA33_cEEvRKT_
	.type	_ZN6spdlog6logger5errorIA33_cEEvRKT_, @function
_ZN6spdlog6logger5errorIA33_cEEvRKT_:
.LFB8367:
	.cfi_startproc
	endbr64
	pushq	%rbp
	.cfi_def_cfa_offset 16
	.cfi_offset 6, -16
	movq	%rsp, %rbp
	.cfi_def_cfa_register 6
	subq	$16, %rsp
	movq	%rdi, -8(%rbp)
	movq	%rsi, -16(%rbp)
	movq	-16(%rbp), %rdx
	movq	-8(%rbp), %rax
	movl	$4, %esi
	movq	%rax, %rdi
	call	_ZN6spdlog6logger3logIA33_cEEvNS_5level10level_enumERKT_@PLT
	nop
	leave
	.cfi_def_cfa 7, 8
	ret
	.cfi_endproc
.LFE8367:
	.size	_ZN6spdlog6logger5errorIA33_cEEvRKT_, .-_ZN6spdlog6logger5errorIA33_cEEvRKT_
	.section	.text._ZN6spdlog6logger4infoIA23_cEEvRKT_,"axG",@progbits,_ZN6spdlog6logger4infoIA23_cEEvRKT_,comdat
	.align 2
	.weak	_ZN6spdlog6logger4infoIA23_cEEvRKT_
	.type	_ZN6spdlog6logger4infoIA23_cEEvRKT_, @function
_ZN6spdlog6logger4infoIA23_cEEvRKT_:
.LFB8368:
	.cfi_startproc
	endbr64
	pushq	%rbp
	.cfi_def_cfa_offset 16
	.cfi_offset 6, -16
	movq	%rsp, %rbp
	.cfi_def_cfa_register 6
	subq	$16, %rsp
	movq	%rdi, -8(%rbp)
	movq	%rsi, -16(%rbp)
	movq	-16(%rbp), %rdx
	movq	-8(%rbp), %rax
	movl	$2, %esi
	movq	%rax, %rdi
	call	_ZN6spdlog6logger3logIA23_cEEvNS_5level10level_enumERKT_@PLT
	nop
	leave
	.cfi_def_cfa 7, 8
	ret
	.cfi_endproc
.LFE8368:
	.size	_ZN6spdlog6logger4infoIA23_cEEvRKT_, .-_ZN6spdlog6logger4infoIA23_cEEvRKT_
	.section	.text._ZN3fmt2v617basic_string_viewIcEC2EPKc,"axG",@progbits,_ZN3fmt2v617basic_string_viewIcEC5EPKc,comdat
	.align 2
	.weak	_ZN3fmt2v617basic_string_viewIcEC2EPKc
	.type	_ZN3fmt2v617basic_string_viewIcEC2EPKc, @function
_ZN3fmt2v617basic_string_viewIcEC2EPKc:
.LFB8370:
	.cfi_startproc
	endbr64
	pushq	%rbp
	.cfi_def_cfa_offset 16
	.cfi_offset 6, -16
	movq	%rsp, %rbp
	.cfi_def_cfa_register 6
	subq	$16, %rsp
	movq	%rdi, -8(%rbp)
	movq	%rsi, -16(%rbp)
	movq	-8(%rbp), %rax
	movq	-16(%rbp), %rdx
	movq	%rdx, (%rax)
	movq	-16(%rbp), %rax
	movq	%rax, %rdi
	call	_ZNSt11char_traitsIcE6lengthEPKc@PLT
	movq	-8(%rbp), %rdx
	movq	%rax, 8(%rdx)
	nop
	leave
	.cfi_def_cfa 7, 8
	ret
	.cfi_endproc
.LFE8370:
	.size	_ZN3fmt2v617basic_string_viewIcEC2EPKc, .-_ZN3fmt2v617basic_string_viewIcEC2EPKc
	.weak	_ZN3fmt2v617basic_string_viewIcEC1EPKc
	.set	_ZN3fmt2v617basic_string_viewIcEC1EPKc,_ZN3fmt2v617basic_string_viewIcEC2EPKc
	.section	.text._ZN6spdlog6logger5errorIJNSt7__cxx1112basic_stringIcSt11char_traitsIcESaIcEEEEEEvN3fmt2v617basic_string_viewIcEEDpRKT_,"axG",@progbits,_ZN6spdlog6logger5errorIJNSt7__cxx1112basic_stringIcSt11char_traitsIcESaIcEEEEEEvN3fmt2v617basic_string_viewIcEEDpRKT_,comdat
	.align 2
	.weak	_ZN6spdlog6logger5errorIJNSt7__cxx1112basic_stringIcSt11char_traitsIcESaIcEEEEEEvN3fmt2v617basic_string_viewIcEEDpRKT_
	.type	_ZN6spdlog6logger5errorIJNSt7__cxx1112basic_stringIcSt11char_traitsIcESaIcEEEEEEvN3fmt2v617basic_string_viewIcEEDpRKT_, @function
_ZN6spdlog6logger5errorIJNSt7__cxx1112basic_stringIcSt11char_traitsIcESaIcEEEEEEvN3fmt2v617basic_string_viewIcEEDpRKT_:
.LFB8372:
	.cfi_startproc
	endbr64
	pushq	%rbp
	.cfi_def_cfa_offset 16
	.cfi_offset 6, -16
	movq	%rsp, %rbp
	.cfi_def_cfa_register 6
	subq	$32, %rsp
	movq	%rdi, -8(%rbp)
	movq	%rsi, %rax
	movq	%rdx, %rsi
	movq	%rsi, %rdx
	movq	%rax, -32(%rbp)
	movq	%rdx, -24(%rbp)
	movq	%rcx, -16(%rbp)
	movq	-16(%rbp), %rcx
	movq	-32(%rbp), %rax
	movq	-24(%rbp), %rdx
	movq	-8(%rbp), %rdi
	movq	%rcx, %r8
	movq	%rdx, %rcx
	movq	%rax, %rdx
	movl	$4, %esi
	call	_ZN6spdlog6logger3logIJNSt7__cxx1112basic_stringIcSt11char_traitsIcESaIcEEEEEEvNS_5level10level_enumEN3fmt2v617basic_string_viewIcEEDpRKT_@PLT
	nop
	leave
	.cfi_def_cfa 7, 8
	ret
	.cfi_endproc
.LFE8372:
	.size	_ZN6spdlog6logger5errorIJNSt7__cxx1112basic_stringIcSt11char_traitsIcESaIcEEEEEEvN3fmt2v617basic_string_viewIcEEDpRKT_, .-_ZN6spdlog6logger5errorIJNSt7__cxx1112basic_stringIcSt11char_traitsIcESaIcEEEEEEvN3fmt2v617basic_string_viewIcEEDpRKT_
	.section	.text._ZN6spdlog6logger5errorIA39_cEEvRKT_,"axG",@progbits,_ZN6spdlog6logger5errorIA39_cEEvRKT_,comdat
	.align 2
	.weak	_ZN6spdlog6logger5errorIA39_cEEvRKT_
	.type	_ZN6spdlog6logger5errorIA39_cEEvRKT_, @function
_ZN6spdlog6logger5errorIA39_cEEvRKT_:
.LFB8373:
	.cfi_startproc
	endbr64
	pushq	%rbp
	.cfi_def_cfa_offset 16
	.cfi_offset 6, -16
	movq	%rsp, %rbp
	.cfi_def_cfa_register 6
	subq	$16, %rsp
	movq	%rdi, -8(%rbp)
	movq	%rsi, -16(%rbp)
	movq	-16(%rbp), %rdx
	movq	-8(%rbp), %rax
	movl	$4, %esi
	movq	%rax, %rdi
	call	_ZN6spdlog6logger3logIA39_cEEvNS_5level10level_enumERKT_@PLT
	nop
	leave
	.cfi_def_cfa 7, 8
	ret
	.cfi_endproc
.LFE8373:
	.size	_ZN6spdlog6logger5errorIA39_cEEvRKT_, .-_ZN6spdlog6logger5errorIA39_cEEvRKT_
	.section	.text._ZNSt6vectorISt4pairINSt7__cxx1112basic_stringIcSt11char_traitsIcESaIcEEESt8functionIFSt10unique_ptrI19InspectionSubServerSt14default_deleteIS9_EEvEEESaISF_EED2Ev,"axG",@progbits,_ZNSt6vectorISt4pairINSt7__cxx1112basic_stringIcSt11char_traitsIcESaIcEEESt8functionIFSt10unique_ptrI19InspectionSubServerSt14default_deleteIS9_EEvEEESaISF_EED5Ev,comdat
	.align 2
	.weak	_ZNSt6vectorISt4pairINSt7__cxx1112basic_stringIcSt11char_traitsIcESaIcEEESt8functionIFSt10unique_ptrI19InspectionSubServerSt14default_deleteIS9_EEvEEESaISF_EED2Ev
	.type	_ZNSt6vectorISt4pairINSt7__cxx1112basic_stringIcSt11char_traitsIcESaIcEEESt8functionIFSt10unique_ptrI19InspectionSubServerSt14default_deleteIS9_EEvEEESaISF_EED2Ev, @function
_ZNSt6vectorISt4pairINSt7__cxx1112basic_stringIcSt11char_traitsIcESaIcEEESt8functionIFSt10unique_ptrI19InspectionSubServerSt14default_deleteIS9_EEvEEESaISF_EED2Ev:
.LFB8375:
	.cfi_startproc
	.cfi_personality 0x9b,DW.ref.__gxx_personality_v0
	.cfi_lsda 0x1b,.LLSDA8375
	endbr64
	pushq	%rbp
	.cfi_def_cfa_offset 16
	.cfi_offset 6, -16
	movq	%rsp, %rbp
	.cfi_def_cfa_register 6
	subq	$16, %rsp
	movq	%rdi, -8(%rbp)
	movq	-8(%rbp), %rax
	movq	%rax, %rdi
	call	_ZNSt12_Vector_baseISt4pairINSt7__cxx1112basic_stringIcSt11char_traitsIcESaIcEEESt8functionIFSt10unique_ptrI19InspectionSubServerSt14default_deleteIS9_EEvEEESaISF_EE19_M_get_Tp_allocatorEv@PLT
	movq	%rax, %rdx
	movq	-8(%rbp), %rax
	movq	8(%rax), %rcx
	movq	-8(%rbp), %rax
	movq	(%rax), %rax
	movq	%rcx, %rsi
	movq	%rax, %rdi
	call	_ZSt8_DestroyIPSt4pairINSt7__cxx1112basic_stringIcSt11char_traitsIcESaIcEEESt8functionIFSt10unique_ptrI19InspectionSubServerSt14default_deleteIS9_EEvEEESF_EvT_SH_RSaIT0_E@PLT
	movq	-8(%rbp), %rax
	movq	%rax, %rdi
	call	_ZNSt12_Vector_baseISt4pairINSt7__cxx1112basic_stringIcSt11char_traitsIcESaIcEEESt8functionIFSt10unique_ptrI19InspectionSubServerSt14default_deleteIS9_EEvEEESaISF_EED2Ev@PLT
	nop
	leave
	.cfi_def_cfa 7, 8
	ret
	.cfi_endproc
.LFE8375:
	.section	.gcc_except_table
.LLSDA8375:
	.byte	0xff
	.byte	0xff
	.byte	0x1
	.uleb128 .LLSDACSE8375-.LLSDACSB8375
.LLSDACSB8375:
.LLSDACSE8375:
	.section	.text._ZNSt6vectorISt4pairINSt7__cxx1112basic_stringIcSt11char_traitsIcESaIcEEESt8functionIFSt10unique_ptrI19InspectionSubServerSt14default_deleteIS9_EEvEEESaISF_EED2Ev,"axG",@progbits,_ZNSt6vectorISt4pairINSt7__cxx1112basic_stringIcSt11char_traitsIcESaIcEEESt8functionIFSt10unique_ptrI19InspectionSubServerSt14default_deleteIS9_EEvEEESaISF_EED5Ev,comdat
	.size	_ZNSt6vectorISt4pairINSt7__cxx1112basic_stringIcSt11char_traitsIcESaIcEEESt8functionIFSt10unique_ptrI19InspectionSubServerSt14default_deleteIS9_EEvEEESaISF_EED2Ev, .-_ZNSt6vectorISt4pairINSt7__cxx1112basic_stringIcSt11char_traitsIcESaIcEEESt8functionIFSt10unique_ptrI19InspectionSubServerSt14default_deleteIS9_EEvEEESaISF_EED2Ev
	.weak	_ZNSt6vectorISt4pairINSt7__cxx1112basic_stringIcSt11char_traitsIcESaIcEEESt8functionIFSt10unique_ptrI19InspectionSubServerSt14default_deleteIS9_EEvEEESaISF_EED1Ev
	.set	_ZNSt6vectorISt4pairINSt7__cxx1112basic_stringIcSt11char_traitsIcESaIcEEESt8functionIFSt10unique_ptrI19InspectionSubServerSt14default_deleteIS9_EEvEEESaISF_EED1Ev,_ZNSt6vectorISt4pairINSt7__cxx1112basic_stringIcSt11char_traitsIcESaIcEEESt8functionIFSt10unique_ptrI19InspectionSubServerSt14default_deleteIS9_EEvEEESaISF_EED2Ev
	.section	.text._ZNSt6vectorISt4pairINSt7__cxx1112basic_stringIcSt11char_traitsIcESaIcEEESt8functionIFSt10unique_ptrI19InspectionSubServerSt14default_deleteIS9_EEvEEESaISF_EE5beginEv,"axG",@progbits,_ZNSt6vectorISt4pairINSt7__cxx1112basic_stringIcSt11char_traitsIcESaIcEEESt8functionIFSt10unique_ptrI19InspectionSubServerSt14default_deleteIS9_EEvEEESaISF_EE5beginEv,comdat
	.align 2
	.weak	_ZNSt6vectorISt4pairINSt7__cxx1112basic_stringIcSt11char_traitsIcESaIcEEESt8functionIFSt10unique_ptrI19InspectionSubServerSt14default_deleteIS9_EEvEEESaISF_EE5beginEv
	.type	_ZNSt6vectorISt4pairINSt7__cxx1112basic_stringIcSt11char_traitsIcESaIcEEESt8functionIFSt10unique_ptrI19InspectionSubServerSt14default_deleteIS9_EEvEEESaISF_EE5beginEv, @function
_ZNSt6vectorISt4pairINSt7__cxx1112basic_stringIcSt11char_traitsIcESaIcEEESt8functionIFSt10unique_ptrI19InspectionSubServerSt14default_deleteIS9_EEvEEESaISF_EE5beginEv:
.LFB8377:
	.cfi_startproc
	endbr64
	pushq	%rbp
	.cfi_def_cfa_offset 16
	.cfi_offset 6, -16
	movq	%rsp, %rbp
	.cfi_def_cfa_register 6
	subq	$32, %rsp
	movq	%rdi, -24(%rbp)
	movq	%fs:40, %rax
	movq	%rax, -8(%rbp)
	xorl	%eax, %eax
	movq	-24(%rbp), %rdx
	leaq	-16(%rbp), %rax
	movq	%rdx, %rsi
	movq	%rax, %rdi
	call	_ZN9__gnu_cxx17__normal_iteratorIPSt4pairINSt7__cxx1112basic_stringIcSt11char_traitsIcESaIcEEESt8functionIFSt10unique_ptrI19InspectionSubServerSt14default_deleteISA_EEvEEESt6vectorISG_SaISG_EEEC1ERKSH_@PLT
	movq	-16(%rbp), %rax
	movq	-8(%rbp), %rcx
	xorq	%fs:40, %rcx
	je	.L414
	call	__stack_chk_fail@PLT
.L414:
	leave
	.cfi_def_cfa 7, 8
	ret
	.cfi_endproc
.LFE8377:
	.size	_ZNSt6vectorISt4pairINSt7__cxx1112basic_stringIcSt11char_traitsIcESaIcEEESt8functionIFSt10unique_ptrI19InspectionSubServerSt14default_deleteIS9_EEvEEESaISF_EE5beginEv, .-_ZNSt6vectorISt4pairINSt7__cxx1112basic_stringIcSt11char_traitsIcESaIcEEESt8functionIFSt10unique_ptrI19InspectionSubServerSt14default_deleteIS9_EEvEEESaISF_EE5beginEv
	.section	.text._ZNSt6vectorISt4pairINSt7__cxx1112basic_stringIcSt11char_traitsIcESaIcEEESt8functionIFSt10unique_ptrI19InspectionSubServerSt14default_deleteIS9_EEvEEESaISF_EE3endEv,"axG",@progbits,_ZNSt6vectorISt4pairINSt7__cxx1112basic_stringIcSt11char_traitsIcESaIcEEESt8functionIFSt10unique_ptrI19InspectionSubServerSt14default_deleteIS9_EEvEEESaISF_EE3endEv,comdat
	.align 2
	.weak	_ZNSt6vectorISt4pairINSt7__cxx1112basic_stringIcSt11char_traitsIcESaIcEEESt8functionIFSt10unique_ptrI19InspectionSubServerSt14default_deleteIS9_EEvEEESaISF_EE3endEv
	.type	_ZNSt6vectorISt4pairINSt7__cxx1112basic_stringIcSt11char_traitsIcESaIcEEESt8functionIFSt10unique_ptrI19InspectionSubServerSt14default_deleteIS9_EEvEEESaISF_EE3endEv, @function
_ZNSt6vectorISt4pairINSt7__cxx1112basic_stringIcSt11char_traitsIcESaIcEEESt8functionIFSt10unique_ptrI19InspectionSubServerSt14default_deleteIS9_EEvEEESaISF_EE3endEv:
.LFB8378:
	.cfi_startproc
	endbr64
	pushq	%rbp
	.cfi_def_cfa_offset 16
	.cfi_offset 6, -16
	movq	%rsp, %rbp
	.cfi_def_cfa_register 6
	subq	$32, %rsp
	movq	%rdi, -24(%rbp)
	movq	%fs:40, %rax
	movq	%rax, -8(%rbp)
	xorl	%eax, %eax
	movq	-24(%rbp), %rax
	leaq	8(%rax), %rdx
	leaq	-16(%rbp), %rax
	movq	%rdx, %rsi
	movq	%rax, %rdi
	call	_ZN9__gnu_cxx17__normal_iteratorIPSt4pairINSt7__cxx1112basic_stringIcSt11char_traitsIcESaIcEEESt8functionIFSt10unique_ptrI19InspectionSubServerSt14default_deleteISA_EEvEEESt6vectorISG_SaISG_EEEC1ERKSH_@PLT
	movq	-16(%rbp), %rax
	movq	-8(%rbp), %rcx
	xorq	%fs:40, %rcx
	je	.L417
	call	__stack_chk_fail@PLT
.L417:
	leave
	.cfi_def_cfa 7, 8
	ret
	.cfi_endproc
.LFE8378:
	.size	_ZNSt6vectorISt4pairINSt7__cxx1112basic_stringIcSt11char_traitsIcESaIcEEESt8functionIFSt10unique_ptrI19InspectionSubServerSt14default_deleteIS9_EEvEEESaISF_EE3endEv, .-_ZNSt6vectorISt4pairINSt7__cxx1112basic_stringIcSt11char_traitsIcESaIcEEESt8functionIFSt10unique_ptrI19InspectionSubServerSt14default_deleteIS9_EEvEEESaISF_EE3endEv
	.section	.text._ZN9__gnu_cxxneIPSt4pairINSt7__cxx1112basic_stringIcSt11char_traitsIcESaIcEEESt8functionIFSt10unique_ptrI19InspectionSubServerSt14default_deleteISA_EEvEEESt6vectorISG_SaISG_EEEEbRKNS_17__normal_iteratorIT_T0_EESQ_,"axG",@progbits,_ZN9__gnu_cxxneIPSt4pairINSt7__cxx1112basic_stringIcSt11char_traitsIcESaIcEEESt8functionIFSt10unique_ptrI19InspectionSubServerSt14default_deleteISA_EEvEEESt6vectorISG_SaISG_EEEEbRKNS_17__normal_iteratorIT_T0_EESQ_,comdat
	.weak	_ZN9__gnu_cxxneIPSt4pairINSt7__cxx1112basic_stringIcSt11char_traitsIcESaIcEEESt8functionIFSt10unique_ptrI19InspectionSubServerSt14default_deleteISA_EEvEEESt6vectorISG_SaISG_EEEEbRKNS_17__normal_iteratorIT_T0_EESQ_
	.type	_ZN9__gnu_cxxneIPSt4pairINSt7__cxx1112basic_stringIcSt11char_traitsIcESaIcEEESt8functionIFSt10unique_ptrI19InspectionSubServerSt14default_deleteISA_EEvEEESt6vectorISG_SaISG_EEEEbRKNS_17__normal_iteratorIT_T0_EESQ_, @function
_ZN9__gnu_cxxneIPSt4pairINSt7__cxx1112basic_stringIcSt11char_traitsIcESaIcEEESt8functionIFSt10unique_ptrI19InspectionSubServerSt14default_deleteISA_EEvEEESt6vectorISG_SaISG_EEEEbRKNS_17__normal_iteratorIT_T0_EESQ_:
.LFB8379:
	.cfi_startproc
	endbr64
	pushq	%rbp
	.cfi_def_cfa_offset 16
	.cfi_offset 6, -16
	movq	%rsp, %rbp
	.cfi_def_cfa_register 6
	pushq	%rbx
	subq	$24, %rsp
	.cfi_offset 3, -24
	movq	%rdi, -24(%rbp)
	movq	%rsi, -32(%rbp)
	movq	-24(%rbp), %rax
	movq	%rax, %rdi
	call	_ZNK9__gnu_cxx17__normal_iteratorIPSt4pairINSt7__cxx1112basic_stringIcSt11char_traitsIcESaIcEEESt8functionIFSt10unique_ptrI19InspectionSubServerSt14default_deleteISA_EEvEEESt6vectorISG_SaISG_EEE4baseEv@PLT
	movq	(%rax), %rbx
	movq	-32(%rbp), %rax
	movq	%rax, %rdi
	call	_ZNK9__gnu_cxx17__normal_iteratorIPSt4pairINSt7__cxx1112basic_stringIcSt11char_traitsIcESaIcEEESt8functionIFSt10unique_ptrI19InspectionSubServerSt14default_deleteISA_EEvEEESt6vectorISG_SaISG_EEE4baseEv@PLT
	movq	(%rax), %rax
	cmpq	%rax, %rbx
	setne	%al
	addq	$24, %rsp
	popq	%rbx
	popq	%rbp
	.cfi_def_cfa 7, 8
	ret
	.cfi_endproc
.LFE8379:
	.size	_ZN9__gnu_cxxneIPSt4pairINSt7__cxx1112basic_stringIcSt11char_traitsIcESaIcEEESt8functionIFSt10unique_ptrI19InspectionSubServerSt14default_deleteISA_EEvEEESt6vectorISG_SaISG_EEEEbRKNS_17__normal_iteratorIT_T0_EESQ_, .-_ZN9__gnu_cxxneIPSt4pairINSt7__cxx1112basic_stringIcSt11char_traitsIcESaIcEEESt8functionIFSt10unique_ptrI19InspectionSubServerSt14default_deleteISA_EEvEEESt6vectorISG_SaISG_EEEEbRKNS_17__normal_iteratorIT_T0_EESQ_
	.section	.text._ZN9__gnu_cxx17__normal_iteratorIPSt4pairINSt7__cxx1112basic_stringIcSt11char_traitsIcESaIcEEESt8functionIFSt10unique_ptrI19InspectionSubServerSt14default_deleteISA_EEvEEESt6vectorISG_SaISG_EEEppEv,"axG",@progbits,_ZN9__gnu_cxx17__normal_iteratorIPSt4pairINSt7__cxx1112basic_stringIcSt11char_traitsIcESaIcEEESt8functionIFSt10unique_ptrI19InspectionSubServerSt14default_deleteISA_EEvEEESt6vectorISG_SaISG_EEEppEv,comdat
	.align 2
	.weak	_ZN9__gnu_cxx17__normal_iteratorIPSt4pairINSt7__cxx1112basic_stringIcSt11char_traitsIcESaIcEEESt8functionIFSt10unique_ptrI19InspectionSubServerSt14default_deleteISA_EEvEEESt6vectorISG_SaISG_EEEppEv
	.type	_ZN9__gnu_cxx17__normal_iteratorIPSt4pairINSt7__cxx1112basic_stringIcSt11char_traitsIcESaIcEEESt8functionIFSt10unique_ptrI19InspectionSubServerSt14default_deleteISA_EEvEEESt6vectorISG_SaISG_EEEppEv, @function
_ZN9__gnu_cxx17__normal_iteratorIPSt4pairINSt7__cxx1112basic_stringIcSt11char_traitsIcESaIcEEESt8functionIFSt10unique_ptrI19InspectionSubServerSt14default_deleteISA_EEvEEESt6vectorISG_SaISG_EEEppEv:
.LFB8380:
	.cfi_startproc
	endbr64
	pushq	%rbp
	.cfi_def_cfa_offset 16
	.cfi_offset 6, -16
	movq	%rsp, %rbp
	.cfi_def_cfa_register 6
	movq	%rdi, -8(%rbp)
	movq	-8(%rbp), %rax
	movq	(%rax), %rax
	leaq	64(%rax), %rdx
	movq	-8(%rbp), %rax
	movq	%rdx, (%rax)
	movq	-8(%rbp), %rax
	popq	%rbp
	.cfi_def_cfa 7, 8
	ret
	.cfi_endproc
.LFE8380:
	.size	_ZN9__gnu_cxx17__normal_iteratorIPSt4pairINSt7__cxx1112basic_stringIcSt11char_traitsIcESaIcEEESt8functionIFSt10unique_ptrI19InspectionSubServerSt14default_deleteISA_EEvEEESt6vectorISG_SaISG_EEEppEv, .-_ZN9__gnu_cxx17__normal_iteratorIPSt4pairINSt7__cxx1112basic_stringIcSt11char_traitsIcESaIcEEESt8functionIFSt10unique_ptrI19InspectionSubServerSt14default_deleteISA_EEvEEESt6vectorISG_SaISG_EEEppEv
	.section	.text._ZNK9__gnu_cxx17__normal_iteratorIPSt4pairINSt7__cxx1112basic_stringIcSt11char_traitsIcESaIcEEESt8functionIFSt10unique_ptrI19InspectionSubServerSt14default_deleteISA_EEvEEESt6vectorISG_SaISG_EEEdeEv,"axG",@progbits,_ZNK9__gnu_cxx17__normal_iteratorIPSt4pairINSt7__cxx1112basic_stringIcSt11char_traitsIcESaIcEEESt8functionIFSt10unique_ptrI19InspectionSubServerSt14default_deleteISA_EEvEEESt6vectorISG_SaISG_EEEdeEv,comdat
	.align 2
	.weak	_ZNK9__gnu_cxx17__normal_iteratorIPSt4pairINSt7__cxx1112basic_stringIcSt11char_traitsIcESaIcEEESt8functionIFSt10unique_ptrI19InspectionSubServerSt14default_deleteISA_EEvEEESt6vectorISG_SaISG_EEEdeEv
	.type	_ZNK9__gnu_cxx17__normal_iteratorIPSt4pairINSt7__cxx1112basic_stringIcSt11char_traitsIcESaIcEEESt8functionIFSt10unique_ptrI19InspectionSubServerSt14default_deleteISA_EEvEEESt6vectorISG_SaISG_EEEdeEv, @function
_ZNK9__gnu_cxx17__normal_iteratorIPSt4pairINSt7__cxx1112basic_stringIcSt11char_traitsIcESaIcEEESt8functionIFSt10unique_ptrI19InspectionSubServerSt14default_deleteISA_EEvEEESt6vectorISG_SaISG_EEEdeEv:
.LFB8381:
	.cfi_startproc
	endbr64
	pushq	%rbp
	.cfi_def_cfa_offset 16
	.cfi_offset 6, -16
	movq	%rsp, %rbp
	.cfi_def_cfa_register 6
	movq	%rdi, -8(%rbp)
	movq	-8(%rbp), %rax
	movq	(%rax), %rax
	popq	%rbp
	.cfi_def_cfa 7, 8
	ret
	.cfi_endproc
.LFE8381:
	.size	_ZNK9__gnu_cxx17__normal_iteratorIPSt4pairINSt7__cxx1112basic_stringIcSt11char_traitsIcESaIcEEESt8functionIFSt10unique_ptrI19InspectionSubServerSt14default_deleteISA_EEvEEESt6vectorISG_SaISG_EEEdeEv, .-_ZNK9__gnu_cxx17__normal_iteratorIPSt4pairINSt7__cxx1112basic_stringIcSt11char_traitsIcESaIcEEESt8functionIFSt10unique_ptrI19InspectionSubServerSt14default_deleteISA_EEvEEESt6vectorISG_SaISG_EEEdeEv
	.section	.text._ZN6spdlog6logger4infoIJNSt7__cxx1112basic_stringIcSt11char_traitsIcESaIcEEEEEEvN3fmt2v617basic_string_viewIcEEDpRKT_,"axG",@progbits,_ZN6spdlog6logger4infoIJNSt7__cxx1112basic_stringIcSt11char_traitsIcESaIcEEEEEEvN3fmt2v617basic_string_viewIcEEDpRKT_,comdat
	.align 2
	.weak	_ZN6spdlog6logger4infoIJNSt7__cxx1112basic_stringIcSt11char_traitsIcESaIcEEEEEEvN3fmt2v617basic_string_viewIcEEDpRKT_
	.type	_ZN6spdlog6logger4infoIJNSt7__cxx1112basic_stringIcSt11char_traitsIcESaIcEEEEEEvN3fmt2v617basic_string_viewIcEEDpRKT_, @function
_ZN6spdlog6logger4infoIJNSt7__cxx1112basic_stringIcSt11char_traitsIcESaIcEEEEEEvN3fmt2v617basic_string_viewIcEEDpRKT_:
.LFB8382:
	.cfi_startproc
	endbr64
	pushq	%rbp
	.cfi_def_cfa_offset 16
	.cfi_offset 6, -16
	movq	%rsp, %rbp
	.cfi_def_cfa_register 6
	subq	$32, %rsp
	movq	%rdi, -8(%rbp)
	movq	%rsi, %rax
	movq	%rdx, %rsi
	movq	%rsi, %rdx
	movq	%rax, -32(%rbp)
	movq	%rdx, -24(%rbp)
	movq	%rcx, -16(%rbp)
	movq	-16(%rbp), %rcx
	movq	-32(%rbp), %rax
	movq	-24(%rbp), %rdx
	movq	-8(%rbp), %rdi
	movq	%rcx, %r8
	movq	%rdx, %rcx
	movq	%rax, %rdx
	movl	$2, %esi
	call	_ZN6spdlog6logger3logIJNSt7__cxx1112basic_stringIcSt11char_traitsIcESaIcEEEEEEvNS_5level10level_enumEN3fmt2v617basic_string_viewIcEEDpRKT_@PLT
	nop
	leave
	.cfi_def_cfa 7, 8
	ret
	.cfi_endproc
.LFE8382:
	.size	_ZN6spdlog6logger4infoIJNSt7__cxx1112basic_stringIcSt11char_traitsIcESaIcEEEEEEvN3fmt2v617basic_string_viewIcEEDpRKT_, .-_ZN6spdlog6logger4infoIJNSt7__cxx1112basic_stringIcSt11char_traitsIcESaIcEEEEEEvN3fmt2v617basic_string_viewIcEEDpRKT_
	.section	.text._ZNKSt8functionIFSt10unique_ptrI19InspectionSubServerSt14default_deleteIS1_EEvEEclEv,"axG",@progbits,_ZNKSt8functionIFSt10unique_ptrI19InspectionSubServerSt14default_deleteIS1_EEvEEclEv,comdat
	.align 2
	.weak	_ZNKSt8functionIFSt10unique_ptrI19InspectionSubServerSt14default_deleteIS1_EEvEEclEv
	.type	_ZNKSt8functionIFSt10unique_ptrI19InspectionSubServerSt14default_deleteIS1_EEvEEclEv, @function
_ZNKSt8functionIFSt10unique_ptrI19InspectionSubServerSt14default_deleteIS1_EEvEEclEv:
.LFB8383:
	.cfi_startproc
	endbr64
	pushq	%rbp
	.cfi_def_cfa_offset 16
	.cfi_offset 6, -16
	movq	%rsp, %rbp
	.cfi_def_cfa_register 6
	subq	$32, %rsp
	movq	%rdi, -24(%rbp)
	movq	%rsi, -32(%rbp)
	movq	%fs:40, %rax
	movq	%rax, -8(%rbp)
	xorl	%eax, %eax
	movq	-32(%rbp), %rax
	movq	%rax, %rdi
	call	_ZNKSt14_Function_base8_M_emptyEv@PLT
	testb	%al, %al
	je	.L426
	call	_ZSt25__throw_bad_function_callv@PLT
.L426:
	movq	-32(%rbp), %rax
	movq	24(%rax), %rcx
	movq	-32(%rbp), %rdx
	movq	-24(%rbp), %rax
	movq	%rdx, %rsi
	movq	%rax, %rdi
	call	*%rcx
	movq	-8(%rbp), %rax
	xorq	%fs:40, %rax
	je	.L428
	call	__stack_chk_fail@PLT
.L428:
	movq	-24(%rbp), %rax
	leave
	.cfi_def_cfa 7, 8
	ret
	.cfi_endproc
.LFE8383:
	.size	_ZNKSt8functionIFSt10unique_ptrI19InspectionSubServerSt14default_deleteIS1_EEvEEclEv, .-_ZNKSt8functionIFSt10unique_ptrI19InspectionSubServerSt14default_deleteIS1_EEvEEclEv
	.section	.text._ZNSt10unique_ptrI19InspectionSubServerSt14default_deleteIS0_EED2Ev,"axG",@progbits,_ZNSt10unique_ptrI19InspectionSubServerSt14default_deleteIS0_EED5Ev,comdat
	.align 2
	.weak	_ZNSt10unique_ptrI19InspectionSubServerSt14default_deleteIS0_EED2Ev
	.type	_ZNSt10unique_ptrI19InspectionSubServerSt14default_deleteIS0_EED2Ev, @function
_ZNSt10unique_ptrI19InspectionSubServerSt14default_deleteIS0_EED2Ev:
.LFB8385:
	.cfi_startproc
	endbr64
	pushq	%rbp
	.cfi_def_cfa_offset 16
	.cfi_offset 6, -16
	movq	%rsp, %rbp
	.cfi_def_cfa_register 6
	pushq	%rbx
	subq	$40, %rsp
	.cfi_offset 3, -24
	movq	%rdi, -40(%rbp)
	movq	-40(%rbp), %rax
	movq	%rax, %rdi
	call	_ZNSt15__uniq_ptr_implI19InspectionSubServerSt14default_deleteIS0_EE6_M_ptrEv@PLT
	movq	%rax, -24(%rbp)
	movq	-24(%rbp), %rax
	movq	(%rax), %rax
	testq	%rax, %rax
	je	.L430
	movq	-40(%rbp), %rax
	movq	%rax, %rdi
	call	_ZNSt10unique_ptrI19InspectionSubServerSt14default_deleteIS0_EE11get_deleterEv@PLT
	movq	%rax, %rbx
	movq	-24(%rbp), %rax
	movq	%rax, %rdi
	call	_ZSt4moveIRP19InspectionSubServerEONSt16remove_referenceIT_E4typeEOS4_@PLT
	movq	(%rax), %rax
	movq	%rax, %rsi
	movq	%rbx, %rdi
	call	_ZNKSt14default_deleteI19InspectionSubServerEclEPS0_@PLT
.L430:
	movq	-24(%rbp), %rax
	movq	$0, (%rax)
	nop
	addq	$40, %rsp
	popq	%rbx
	popq	%rbp
	.cfi_def_cfa 7, 8
	ret
	.cfi_endproc
.LFE8385:
	.size	_ZNSt10unique_ptrI19InspectionSubServerSt14default_deleteIS0_EED2Ev, .-_ZNSt10unique_ptrI19InspectionSubServerSt14default_deleteIS0_EED2Ev
	.weak	_ZNSt10unique_ptrI19InspectionSubServerSt14default_deleteIS0_EED1Ev
	.set	_ZNSt10unique_ptrI19InspectionSubServerSt14default_deleteIS0_EED1Ev,_ZNSt10unique_ptrI19InspectionSubServerSt14default_deleteIS0_EED2Ev
	.section	.text._ZNKSt10unique_ptrI19InspectionSubServerSt14default_deleteIS0_EEptEv,"axG",@progbits,_ZNKSt10unique_ptrI19InspectionSubServerSt14default_deleteIS0_EEptEv,comdat
	.align 2
	.weak	_ZNKSt10unique_ptrI19InspectionSubServerSt14default_deleteIS0_EEptEv
	.type	_ZNKSt10unique_ptrI19InspectionSubServerSt14default_deleteIS0_EEptEv, @function
_ZNKSt10unique_ptrI19InspectionSubServerSt14default_deleteIS0_EEptEv:
.LFB8387:
	.cfi_startproc
	endbr64
	pushq	%rbp
	.cfi_def_cfa_offset 16
	.cfi_offset 6, -16
	movq	%rsp, %rbp
	.cfi_def_cfa_register 6
	subq	$16, %rsp
	movq	%rdi, -8(%rbp)
	movq	-8(%rbp), %rax
	movq	%rax, %rdi
	call	_ZNKSt10unique_ptrI19InspectionSubServerSt14default_deleteIS0_EE3getEv@PLT
	leave
	.cfi_def_cfa 7, 8
	ret
	.cfi_endproc
.LFE8387:
	.size	_ZNKSt10unique_ptrI19InspectionSubServerSt14default_deleteIS0_EEptEv, .-_ZNKSt10unique_ptrI19InspectionSubServerSt14default_deleteIS0_EEptEv
	.section	.text._ZSt4moveIRSt10unique_ptrI19InspectionSubServerSt14default_deleteIS1_EEEONSt16remove_referenceIT_E4typeEOS7_,"axG",@progbits,_ZSt4moveIRSt10unique_ptrI19InspectionSubServerSt14default_deleteIS1_EEEONSt16remove_referenceIT_E4typeEOS7_,comdat
	.weak	_ZSt4moveIRSt10unique_ptrI19InspectionSubServerSt14default_deleteIS1_EEEONSt16remove_referenceIT_E4typeEOS7_
	.type	_ZSt4moveIRSt10unique_ptrI19InspectionSubServerSt14default_deleteIS1_EEEONSt16remove_referenceIT_E4typeEOS7_, @function
_ZSt4moveIRSt10unique_ptrI19InspectionSubServerSt14default_deleteIS1_EEEONSt16remove_referenceIT_E4typeEOS7_:
.LFB8388:
	.cfi_startproc
	endbr64
	pushq	%rbp
	.cfi_def_cfa_offset 16
	.cfi_offset 6, -16
	movq	%rsp, %rbp
	.cfi_def_cfa_register 6
	movq	%rdi, -8(%rbp)
	movq	-8(%rbp), %rax
	popq	%rbp
	.cfi_def_cfa 7, 8
	ret
	.cfi_endproc
.LFE8388:
	.size	_ZSt4moveIRSt10unique_ptrI19InspectionSubServerSt14default_deleteIS1_EEEONSt16remove_referenceIT_E4typeEOS7_, .-_ZSt4moveIRSt10unique_ptrI19InspectionSubServerSt14default_deleteIS1_EEEONSt16remove_referenceIT_E4typeEOS7_
	.section	.text._ZNSt6vectorISt10unique_ptrI19InspectionSubServerSt14default_deleteIS1_EESaIS4_EE9push_backEOS4_,"axG",@progbits,_ZNSt6vectorISt10unique_ptrI19InspectionSubServerSt14default_deleteIS1_EESaIS4_EE9push_backEOS4_,comdat
	.align 2
	.weak	_ZNSt6vectorISt10unique_ptrI19InspectionSubServerSt14default_deleteIS1_EESaIS4_EE9push_backEOS4_
	.type	_ZNSt6vectorISt10unique_ptrI19InspectionSubServerSt14default_deleteIS1_EESaIS4_EE9push_backEOS4_, @function
_ZNSt6vectorISt10unique_ptrI19InspectionSubServerSt14default_deleteIS1_EESaIS4_EE9push_backEOS4_:
.LFB8389:
	.cfi_startproc
	endbr64
	pushq	%rbp
	.cfi_def_cfa_offset 16
	.cfi_offset 6, -16
	movq	%rsp, %rbp
	.cfi_def_cfa_register 6
	subq	$16, %rsp
	movq	%rdi, -8(%rbp)
	movq	%rsi, -16(%rbp)
	movq	-16(%rbp), %rax
	movq	%rax, %rdi
	call	_ZSt4moveIRSt10unique_ptrI19InspectionSubServerSt14default_deleteIS1_EEEONSt16remove_referenceIT_E4typeEOS7_@PLT
	movq	%rax, %rdx
	movq	-8(%rbp), %rax
	movq	%rdx, %rsi
	movq	%rax, %rdi
	call	_ZNSt6vectorISt10unique_ptrI19InspectionSubServerSt14default_deleteIS1_EESaIS4_EE12emplace_backIJS4_EEERS4_DpOT_@PLT
	nop
	leave
	.cfi_def_cfa 7, 8
	ret
	.cfi_endproc
.LFE8389:
	.size	_ZNSt6vectorISt10unique_ptrI19InspectionSubServerSt14default_deleteIS1_EESaIS4_EE9push_backEOS4_, .-_ZNSt6vectorISt10unique_ptrI19InspectionSubServerSt14default_deleteIS1_EESaIS4_EE9push_backEOS4_
	.section	.text._ZNKSt19__shared_ptr_accessI11MsgUploaderLN9__gnu_cxx12_Lock_policyE2ELb0ELb0EEptEv,"axG",@progbits,_ZNKSt19__shared_ptr_accessI11MsgUploaderLN9__gnu_cxx12_Lock_policyE2ELb0ELb0EEptEv,comdat
	.align 2
	.weak	_ZNKSt19__shared_ptr_accessI11MsgUploaderLN9__gnu_cxx12_Lock_policyE2ELb0ELb0EEptEv
	.type	_ZNKSt19__shared_ptr_accessI11MsgUploaderLN9__gnu_cxx12_Lock_policyE2ELb0ELb0EEptEv, @function
_ZNKSt19__shared_ptr_accessI11MsgUploaderLN9__gnu_cxx12_Lock_policyE2ELb0ELb0EEptEv:
.LFB8390:
	.cfi_startproc
	endbr64
	pushq	%rbp
	.cfi_def_cfa_offset 16
	.cfi_offset 6, -16
	movq	%rsp, %rbp
	.cfi_def_cfa_register 6
	subq	$16, %rsp
	movq	%rdi, -8(%rbp)
	movq	-8(%rbp), %rax
	movq	%rax, %rdi
	call	_ZNKSt19__shared_ptr_accessI11MsgUploaderLN9__gnu_cxx12_Lock_policyE2ELb0ELb0EE6_M_getEv@PLT
	leave
	.cfi_def_cfa 7, 8
	ret
	.cfi_endproc
.LFE8390:
	.size	_ZNKSt19__shared_ptr_accessI11MsgUploaderLN9__gnu_cxx12_Lock_policyE2ELb0ELb0EEptEv, .-_ZNKSt19__shared_ptr_accessI11MsgUploaderLN9__gnu_cxx12_Lock_policyE2ELb0ELb0EEptEv
	.section	.text._ZNSt6vectorISt10unique_ptrI19InspectionSubServerSt14default_deleteIS1_EESaIS4_EE5beginEv,"axG",@progbits,_ZNSt6vectorISt10unique_ptrI19InspectionSubServerSt14default_deleteIS1_EESaIS4_EE5beginEv,comdat
	.align 2
	.weak	_ZNSt6vectorISt10unique_ptrI19InspectionSubServerSt14default_deleteIS1_EESaIS4_EE5beginEv
	.type	_ZNSt6vectorISt10unique_ptrI19InspectionSubServerSt14default_deleteIS1_EESaIS4_EE5beginEv, @function
_ZNSt6vectorISt10unique_ptrI19InspectionSubServerSt14default_deleteIS1_EESaIS4_EE5beginEv:
.LFB8391:
	.cfi_startproc
	endbr64
	pushq	%rbp
	.cfi_def_cfa_offset 16
	.cfi_offset 6, -16
	movq	%rsp, %rbp
	.cfi_def_cfa_register 6
	subq	$32, %rsp
	movq	%rdi, -24(%rbp)
	movq	%fs:40, %rax
	movq	%rax, -8(%rbp)
	xorl	%eax, %eax
	movq	-24(%rbp), %rdx
	leaq	-16(%rbp), %rax
	movq	%rdx, %rsi
	movq	%rax, %rdi
	call	_ZN9__gnu_cxx17__normal_iteratorIPSt10unique_ptrI19InspectionSubServerSt14default_deleteIS2_EESt6vectorIS5_SaIS5_EEEC1ERKS6_@PLT
	movq	-16(%rbp), %rax
	movq	-8(%rbp), %rcx
	xorq	%fs:40, %rcx
	je	.L440
	call	__stack_chk_fail@PLT
.L440:
	leave
	.cfi_def_cfa 7, 8
	ret
	.cfi_endproc
.LFE8391:
	.size	_ZNSt6vectorISt10unique_ptrI19InspectionSubServerSt14default_deleteIS1_EESaIS4_EE5beginEv, .-_ZNSt6vectorISt10unique_ptrI19InspectionSubServerSt14default_deleteIS1_EESaIS4_EE5beginEv
	.section	.text._ZNSt6vectorISt10unique_ptrI19InspectionSubServerSt14default_deleteIS1_EESaIS4_EE3endEv,"axG",@progbits,_ZNSt6vectorISt10unique_ptrI19InspectionSubServerSt14default_deleteIS1_EESaIS4_EE3endEv,comdat
	.align 2
	.weak	_ZNSt6vectorISt10unique_ptrI19InspectionSubServerSt14default_deleteIS1_EESaIS4_EE3endEv
	.type	_ZNSt6vectorISt10unique_ptrI19InspectionSubServerSt14default_deleteIS1_EESaIS4_EE3endEv, @function
_ZNSt6vectorISt10unique_ptrI19InspectionSubServerSt14default_deleteIS1_EESaIS4_EE3endEv:
.LFB8392:
	.cfi_startproc
	endbr64
	pushq	%rbp
	.cfi_def_cfa_offset 16
	.cfi_offset 6, -16
	movq	%rsp, %rbp
	.cfi_def_cfa_register 6
	subq	$32, %rsp
	movq	%rdi, -24(%rbp)
	movq	%fs:40, %rax
	movq	%rax, -8(%rbp)
	xorl	%eax, %eax
	movq	-24(%rbp), %rax
	leaq	8(%rax), %rdx
	leaq	-16(%rbp), %rax
	movq	%rdx, %rsi
	movq	%rax, %rdi
	call	_ZN9__gnu_cxx17__normal_iteratorIPSt10unique_ptrI19InspectionSubServerSt14default_deleteIS2_EESt6vectorIS5_SaIS5_EEEC1ERKS6_@PLT
	movq	-16(%rbp), %rax
	movq	-8(%rbp), %rcx
	xorq	%fs:40, %rcx
	je	.L443
	call	__stack_chk_fail@PLT
.L443:
	leave
	.cfi_def_cfa 7, 8
	ret
	.cfi_endproc
.LFE8392:
	.size	_ZNSt6vectorISt10unique_ptrI19InspectionSubServerSt14default_deleteIS1_EESaIS4_EE3endEv, .-_ZNSt6vectorISt10unique_ptrI19InspectionSubServerSt14default_deleteIS1_EESaIS4_EE3endEv
	.section	.text._ZN9__gnu_cxxneIPSt10unique_ptrI19InspectionSubServerSt14default_deleteIS2_EESt6vectorIS5_SaIS5_EEEEbRKNS_17__normal_iteratorIT_T0_EESF_,"axG",@progbits,_ZN9__gnu_cxxneIPSt10unique_ptrI19InspectionSubServerSt14default_deleteIS2_EESt6vectorIS5_SaIS5_EEEEbRKNS_17__normal_iteratorIT_T0_EESF_,comdat
	.weak	_ZN9__gnu_cxxneIPSt10unique_ptrI19InspectionSubServerSt14default_deleteIS2_EESt6vectorIS5_SaIS5_EEEEbRKNS_17__normal_iteratorIT_T0_EESF_
	.type	_ZN9__gnu_cxxneIPSt10unique_ptrI19InspectionSubServerSt14default_deleteIS2_EESt6vectorIS5_SaIS5_EEEEbRKNS_17__normal_iteratorIT_T0_EESF_, @function
_ZN9__gnu_cxxneIPSt10unique_ptrI19InspectionSubServerSt14default_deleteIS2_EESt6vectorIS5_SaIS5_EEEEbRKNS_17__normal_iteratorIT_T0_EESF_:
.LFB8393:
	.cfi_startproc
	endbr64
	pushq	%rbp
	.cfi_def_cfa_offset 16
	.cfi_offset 6, -16
	movq	%rsp, %rbp
	.cfi_def_cfa_register 6
	pushq	%rbx
	subq	$24, %rsp
	.cfi_offset 3, -24
	movq	%rdi, -24(%rbp)
	movq	%rsi, -32(%rbp)
	movq	-24(%rbp), %rax
	movq	%rax, %rdi
	call	_ZNK9__gnu_cxx17__normal_iteratorIPSt10unique_ptrI19InspectionSubServerSt14default_deleteIS2_EESt6vectorIS5_SaIS5_EEE4baseEv@PLT
	movq	(%rax), %rbx
	movq	-32(%rbp), %rax
	movq	%rax, %rdi
	call	_ZNK9__gnu_cxx17__normal_iteratorIPSt10unique_ptrI19InspectionSubServerSt14default_deleteIS2_EESt6vectorIS5_SaIS5_EEE4baseEv@PLT
	movq	(%rax), %rax
	cmpq	%rax, %rbx
	setne	%al
	addq	$24, %rsp
	popq	%rbx
	popq	%rbp
	.cfi_def_cfa 7, 8
	ret
	.cfi_endproc
.LFE8393:
	.size	_ZN9__gnu_cxxneIPSt10unique_ptrI19InspectionSubServerSt14default_deleteIS2_EESt6vectorIS5_SaIS5_EEEEbRKNS_17__normal_iteratorIT_T0_EESF_, .-_ZN9__gnu_cxxneIPSt10unique_ptrI19InspectionSubServerSt14default_deleteIS2_EESt6vectorIS5_SaIS5_EEEEbRKNS_17__normal_iteratorIT_T0_EESF_
	.section	.text._ZN9__gnu_cxx17__normal_iteratorIPSt10unique_ptrI19InspectionSubServerSt14default_deleteIS2_EESt6vectorIS5_SaIS5_EEEppEv,"axG",@progbits,_ZN9__gnu_cxx17__normal_iteratorIPSt10unique_ptrI19InspectionSubServerSt14default_deleteIS2_EESt6vectorIS5_SaIS5_EEEppEv,comdat
	.align 2
	.weak	_ZN9__gnu_cxx17__normal_iteratorIPSt10unique_ptrI19InspectionSubServerSt14default_deleteIS2_EESt6vectorIS5_SaIS5_EEEppEv
	.type	_ZN9__gnu_cxx17__normal_iteratorIPSt10unique_ptrI19InspectionSubServerSt14default_deleteIS2_EESt6vectorIS5_SaIS5_EEEppEv, @function
_ZN9__gnu_cxx17__normal_iteratorIPSt10unique_ptrI19InspectionSubServerSt14default_deleteIS2_EESt6vectorIS5_SaIS5_EEEppEv:
.LFB8394:
	.cfi_startproc
	endbr64
	pushq	%rbp
	.cfi_def_cfa_offset 16
	.cfi_offset 6, -16
	movq	%rsp, %rbp
	.cfi_def_cfa_register 6
	movq	%rdi, -8(%rbp)
	movq	-8(%rbp), %rax
	movq	(%rax), %rax
	leaq	8(%rax), %rdx
	movq	-8(%rbp), %rax
	movq	%rdx, (%rax)
	movq	-8(%rbp), %rax
	popq	%rbp
	.cfi_def_cfa 7, 8
	ret
	.cfi_endproc
.LFE8394:
	.size	_ZN9__gnu_cxx17__normal_iteratorIPSt10unique_ptrI19InspectionSubServerSt14default_deleteIS2_EESt6vectorIS5_SaIS5_EEEppEv, .-_ZN9__gnu_cxx17__normal_iteratorIPSt10unique_ptrI19InspectionSubServerSt14default_deleteIS2_EESt6vectorIS5_SaIS5_EEEppEv
	.section	.text._ZNK9__gnu_cxx17__normal_iteratorIPSt10unique_ptrI19InspectionSubServerSt14default_deleteIS2_EESt6vectorIS5_SaIS5_EEEdeEv,"axG",@progbits,_ZNK9__gnu_cxx17__normal_iteratorIPSt10unique_ptrI19InspectionSubServerSt14default_deleteIS2_EESt6vectorIS5_SaIS5_EEEdeEv,comdat
	.align 2
	.weak	_ZNK9__gnu_cxx17__normal_iteratorIPSt10unique_ptrI19InspectionSubServerSt14default_deleteIS2_EESt6vectorIS5_SaIS5_EEEdeEv
	.type	_ZNK9__gnu_cxx17__normal_iteratorIPSt10unique_ptrI19InspectionSubServerSt14default_deleteIS2_EESt6vectorIS5_SaIS5_EEEdeEv, @function
_ZNK9__gnu_cxx17__normal_iteratorIPSt10unique_ptrI19InspectionSubServerSt14default_deleteIS2_EESt6vectorIS5_SaIS5_EEEdeEv:
.LFB8395:
	.cfi_startproc
	endbr64
	pushq	%rbp
	.cfi_def_cfa_offset 16
	.cfi_offset 6, -16
	movq	%rsp, %rbp
	.cfi_def_cfa_register 6
	movq	%rdi, -8(%rbp)
	movq	-8(%rbp), %rax
	movq	(%rax), %rax
	popq	%rbp
	.cfi_def_cfa 7, 8
	ret
	.cfi_endproc
.LFE8395:
	.size	_ZNK9__gnu_cxx17__normal_iteratorIPSt10unique_ptrI19InspectionSubServerSt14default_deleteIS2_EESt6vectorIS5_SaIS5_EEEdeEv, .-_ZNK9__gnu_cxx17__normal_iteratorIPSt10unique_ptrI19InspectionSubServerSt14default_deleteIS2_EESt6vectorIS5_SaIS5_EEEdeEv
	.section	.text._ZNKSt10unique_ptrIN21InskyInspectionServer4ImplESt14default_deleteIS1_EEptEv,"axG",@progbits,_ZNKSt10unique_ptrIN21InskyInspectionServer4ImplESt14default_deleteIS1_EEptEv,comdat
	.align 2
	.weak	_ZNKSt10unique_ptrIN21InskyInspectionServer4ImplESt14default_deleteIS1_EEptEv
	.type	_ZNKSt10unique_ptrIN21InskyInspectionServer4ImplESt14default_deleteIS1_EEptEv, @function
_ZNKSt10unique_ptrIN21InskyInspectionServer4ImplESt14default_deleteIS1_EEptEv:
.LFB8396:
	.cfi_startproc
	endbr64
	pushq	%rbp
	.cfi_def_cfa_offset 16
	.cfi_offset 6, -16
	movq	%rsp, %rbp
	.cfi_def_cfa_register 6
	subq	$16, %rsp
	movq	%rdi, -8(%rbp)
	movq	-8(%rbp), %rax
	movq	%rax, %rdi
	call	_ZNKSt10unique_ptrIN21InskyInspectionServer4ImplESt14default_deleteIS1_EE3getEv@PLT
	leave
	.cfi_def_cfa 7, 8
	ret
	.cfi_endproc
.LFE8396:
	.size	_ZNKSt10unique_ptrIN21InskyInspectionServer4ImplESt14default_deleteIS1_EEptEv, .-_ZNKSt10unique_ptrIN21InskyInspectionServer4ImplESt14default_deleteIS1_EEptEv
	.section	.text._ZNSt5tupleIJPN21InskyInspectionServer4ImplESt14default_deleteIS1_EEEC2IS2_S4_Lb1EEEv,"axG",@progbits,_ZNSt5tupleIJPN21InskyInspectionServer4ImplESt14default_deleteIS1_EEEC5IS2_S4_Lb1EEEv,comdat
	.align 2
	.weak	_ZNSt5tupleIJPN21InskyInspectionServer4ImplESt14default_deleteIS1_EEEC2IS2_S4_Lb1EEEv
	.type	_ZNSt5tupleIJPN21InskyInspectionServer4ImplESt14default_deleteIS1_EEEC2IS2_S4_Lb1EEEv, @function
_ZNSt5tupleIJPN21InskyInspectionServer4ImplESt14default_deleteIS1_EEEC2IS2_S4_Lb1EEEv:
.LFB8404:
	.cfi_startproc
	endbr64
	pushq	%rbp
	.cfi_def_cfa_offset 16
	.cfi_offset 6, -16
	movq	%rsp, %rbp
	.cfi_def_cfa_register 6
	subq	$16, %rsp
	movq	%rdi, -8(%rbp)
	movq	-8(%rbp), %rax
	movq	%rax, %rdi
	call	_ZNSt11_Tuple_implILm0EJPN21InskyInspectionServer4ImplESt14default_deleteIS1_EEEC2Ev@PLT
	nop
	leave
	.cfi_def_cfa 7, 8
	ret
	.cfi_endproc
.LFE8404:
	.size	_ZNSt5tupleIJPN21InskyInspectionServer4ImplESt14default_deleteIS1_EEEC2IS2_S4_Lb1EEEv, .-_ZNSt5tupleIJPN21InskyInspectionServer4ImplESt14default_deleteIS1_EEEC2IS2_S4_Lb1EEEv
	.weak	_ZNSt5tupleIJPN21InskyInspectionServer4ImplESt14default_deleteIS1_EEEC1IS2_S4_Lb1EEEv
	.set	_ZNSt5tupleIJPN21InskyInspectionServer4ImplESt14default_deleteIS1_EEEC1IS2_S4_Lb1EEEv,_ZNSt5tupleIJPN21InskyInspectionServer4ImplESt14default_deleteIS1_EEEC2IS2_S4_Lb1EEEv
	.section	.text._ZNSt15__uniq_ptr_implIN21InskyInspectionServer4ImplESt14default_deleteIS1_EEC2Ev,"axG",@progbits,_ZNSt15__uniq_ptr_implIN21InskyInspectionServer4ImplESt14default_deleteIS1_EEC5Ev,comdat
	.align 2
	.weak	_ZNSt15__uniq_ptr_implIN21InskyInspectionServer4ImplESt14default_deleteIS1_EEC2Ev
	.type	_ZNSt15__uniq_ptr_implIN21InskyInspectionServer4ImplESt14default_deleteIS1_EEC2Ev, @function
_ZNSt15__uniq_ptr_implIN21InskyInspectionServer4ImplESt14default_deleteIS1_EEC2Ev:
.LFB8406:
	.cfi_startproc
	endbr64
	pushq	%rbp
	.cfi_def_cfa_offset 16
	.cfi_offset 6, -16
	movq	%rsp, %rbp
	.cfi_def_cfa_register 6
	subq	$16, %rsp
	movq	%rdi, -8(%rbp)
	movq	-8(%rbp), %rax
	movq	%rax, %rdi
	call	_ZNSt5tupleIJPN21InskyInspectionServer4ImplESt14default_deleteIS1_EEEC1IS2_S4_Lb1EEEv@PLT
	nop
	leave
	.cfi_def_cfa 7, 8
	ret
	.cfi_endproc
.LFE8406:
	.size	_ZNSt15__uniq_ptr_implIN21InskyInspectionServer4ImplESt14default_deleteIS1_EEC2Ev, .-_ZNSt15__uniq_ptr_implIN21InskyInspectionServer4ImplESt14default_deleteIS1_EEC2Ev
	.weak	_ZNSt15__uniq_ptr_implIN21InskyInspectionServer4ImplESt14default_deleteIS1_EEC1Ev
	.set	_ZNSt15__uniq_ptr_implIN21InskyInspectionServer4ImplESt14default_deleteIS1_EEC1Ev,_ZNSt15__uniq_ptr_implIN21InskyInspectionServer4ImplESt14default_deleteIS1_EEC2Ev
	.section	.text._ZNSt10unique_ptrIN21InskyInspectionServer4ImplESt14default_deleteIS1_EEC2IS3_vEEv,"axG",@progbits,_ZNSt10unique_ptrIN21InskyInspectionServer4ImplESt14default_deleteIS1_EEC5IS3_vEEv,comdat
	.align 2
	.weak	_ZNSt10unique_ptrIN21InskyInspectionServer4ImplESt14default_deleteIS1_EEC2IS3_vEEv
	.type	_ZNSt10unique_ptrIN21InskyInspectionServer4ImplESt14default_deleteIS1_EEC2IS3_vEEv, @function
_ZNSt10unique_ptrIN21InskyInspectionServer4ImplESt14default_deleteIS1_EEC2IS3_vEEv:
.LFB8408:
	.cfi_startproc
	.cfi_personality 0x9b,DW.ref.__gxx_personality_v0
	.cfi_lsda 0x1b,.LLSDA8408
	endbr64
	pushq	%rbp
	.cfi_def_cfa_offset 16
	.cfi_offset 6, -16
	movq	%rsp, %rbp
	.cfi_def_cfa_register 6
	subq	$16, %rsp
	movq	%rdi, -8(%rbp)
	movq	-8(%rbp), %rax
	movq	$0, (%rax)
	movq	-8(%rbp), %rax
	movq	%rax, %rdi
	call	_ZNSt15__uniq_ptr_implIN21InskyInspectionServer4ImplESt14default_deleteIS1_EEC1Ev@PLT
	nop
	leave
	.cfi_def_cfa 7, 8
	ret
	.cfi_endproc
.LFE8408:
	.section	.gcc_except_table
.LLSDA8408:
	.byte	0xff
	.byte	0xff
	.byte	0x1
	.uleb128 .LLSDACSE8408-.LLSDACSB8408
.LLSDACSB8408:
.LLSDACSE8408:
	.section	.text._ZNSt10unique_ptrIN21InskyInspectionServer4ImplESt14default_deleteIS1_EEC2IS3_vEEv,"axG",@progbits,_ZNSt10unique_ptrIN21InskyInspectionServer4ImplESt14default_deleteIS1_EEC5IS3_vEEv,comdat
	.size	_ZNSt10unique_ptrIN21InskyInspectionServer4ImplESt14default_deleteIS1_EEC2IS3_vEEv, .-_ZNSt10unique_ptrIN21InskyInspectionServer4ImplESt14default_deleteIS1_EEC2IS3_vEEv
	.weak	_ZNSt10unique_ptrIN21InskyInspectionServer4ImplESt14default_deleteIS1_EEC1IS3_vEEv
	.set	_ZNSt10unique_ptrIN21InskyInspectionServer4ImplESt14default_deleteIS1_EEC1IS3_vEEv,_ZNSt10unique_ptrIN21InskyInspectionServer4ImplESt14default_deleteIS1_EEC2IS3_vEEv
	.section	.text._ZNSt10unique_ptrIN21InskyInspectionServer4ImplESt14default_deleteIS1_EED2Ev,"axG",@progbits,_ZNSt10unique_ptrIN21InskyInspectionServer4ImplESt14default_deleteIS1_EED5Ev,comdat
	.align 2
	.weak	_ZNSt10unique_ptrIN21InskyInspectionServer4ImplESt14default_deleteIS1_EED2Ev
	.type	_ZNSt10unique_ptrIN21InskyInspectionServer4ImplESt14default_deleteIS1_EED2Ev, @function
_ZNSt10unique_ptrIN21InskyInspectionServer4ImplESt14default_deleteIS1_EED2Ev:
.LFB8411:
	.cfi_startproc
	endbr64
	pushq	%rbp
	.cfi_def_cfa_offset 16
	.cfi_offset 6, -16
	movq	%rsp, %rbp
	.cfi_def_cfa_register 6
	pushq	%rbx
	subq	$40, %rsp
	.cfi_offset 3, -24
	movq	%rdi, -40(%rbp)
	movq	-40(%rbp), %rax
	movq	%rax, %rdi
	call	_ZNSt15__uniq_ptr_implIN21InskyInspectionServer4ImplESt14default_deleteIS1_EE6_M_ptrEv@PLT
	movq	%rax, -24(%rbp)
	movq	-24(%rbp), %rax
	movq	(%rax), %rax
	testq	%rax, %rax
	je	.L456
	movq	-40(%rbp), %rax
	movq	%rax, %rdi
	call	_ZNSt10unique_ptrIN21InskyInspectionServer4ImplESt14default_deleteIS1_EE11get_deleterEv@PLT
	movq	%rax, %rbx
	movq	-24(%rbp), %rax
	movq	%rax, %rdi
	call	_ZSt4moveIRPN21InskyInspectionServer4ImplEEONSt16remove_referenceIT_E4typeEOS5_@PLT
	movq	(%rax), %rax
	movq	%rax, %rsi
	movq	%rbx, %rdi
	call	_ZNKSt14default_deleteIN21InskyInspectionServer4ImplEEclEPS1_@PLT
.L456:
	movq	-24(%rbp), %rax
	movq	$0, (%rax)
	nop
	addq	$40, %rsp
	popq	%rbx
	popq	%rbp
	.cfi_def_cfa 7, 8
	ret
	.cfi_endproc
.LFE8411:
	.size	_ZNSt10unique_ptrIN21InskyInspectionServer4ImplESt14default_deleteIS1_EED2Ev, .-_ZNSt10unique_ptrIN21InskyInspectionServer4ImplESt14default_deleteIS1_EED2Ev
	.weak	_ZNSt10unique_ptrIN21InskyInspectionServer4ImplESt14default_deleteIS1_EED1Ev
	.set	_ZNSt10unique_ptrIN21InskyInspectionServer4ImplESt14default_deleteIS1_EED1Ev,_ZNSt10unique_ptrIN21InskyInspectionServer4ImplESt14default_deleteIS1_EED2Ev
	.section	.text._ZSt11make_uniqueIN21InskyInspectionServer4ImplEJPS0_EENSt9_MakeUniqIT_E15__single_objectEDpOT0_,"axG",@progbits,_ZSt11make_uniqueIN21InskyInspectionServer4ImplEJPS0_EENSt9_MakeUniqIT_E15__single_objectEDpOT0_,comdat
	.weak	_ZSt11make_uniqueIN21InskyInspectionServer4ImplEJPS0_EENSt9_MakeUniqIT_E15__single_objectEDpOT0_
	.type	_ZSt11make_uniqueIN21InskyInspectionServer4ImplEJPS0_EENSt9_MakeUniqIT_E15__single_objectEDpOT0_, @function
_ZSt11make_uniqueIN21InskyInspectionServer4ImplEJPS0_EENSt9_MakeUniqIT_E15__single_objectEDpOT0_:
.LFB8413:
	.cfi_startproc
	.cfi_personality 0x9b,DW.ref.__gxx_personality_v0
	.cfi_lsda 0x1b,.LLSDA8413
	endbr64
	pushq	%rbp
	.cfi_def_cfa_offset 16
	.cfi_offset 6, -16
	movq	%rsp, %rbp
	.cfi_def_cfa_register 6
	pushq	%rbx
	subq	$40, %rsp
	.cfi_offset 3, -24
	movq	%rdi, -24(%rbp)
	movq	%rsi, -32(%rbp)
	movq	-32(%rbp), %rax
	movq	%rax, %rdi
	call	_ZSt7forwardIP21InskyInspectionServerEOT_RNSt16remove_referenceIS2_E4typeE@PLT
	movq	(%rax), %rbx
	movl	$936, %edi
.LEHB41:
	call	_Znwm@PLT
.LEHE41:
	movq	%rax, %rdi
	movq	%rbx, %rsi
	movq	%rdi, -40(%rbp)
.LEHB42:
	call	_ZN21InskyInspectionServer4ImplC1EPS_@PLT
.LEHE42:
	movq	-24(%rbp), %rax
	movq	-40(%rbp), %rsi
	movq	%rax, %rdi
	call	_ZNSt10unique_ptrIN21InskyInspectionServer4ImplESt14default_deleteIS1_EEC1IS3_vEEPS1_@PLT
	jmp	.L461
.L460:
	endbr64
	movq	%rax, %rbx
	movl	$936, %esi
	movq	-40(%rbp), %rdi
	call	_ZdlPvm@PLT
	movq	%rbx, %rax
	movq	%rax, %rdi
.LEHB43:
	call	_Unwind_Resume@PLT
.LEHE43:
.L461:
	movq	-24(%rbp), %rax
	addq	$40, %rsp
	popq	%rbx
	popq	%rbp
	.cfi_def_cfa 7, 8
	ret
	.cfi_endproc
.LFE8413:
	.section	.gcc_except_table
.LLSDA8413:
	.byte	0xff
	.byte	0xff
	.byte	0x1
	.uleb128 .LLSDACSE8413-.LLSDACSB8413
.LLSDACSB8413:
	.uleb128 .LEHB41-.LFB8413
	.uleb128 .LEHE41-.LEHB41
	.uleb128 0
	.uleb128 0
	.uleb128 .LEHB42-.LFB8413
	.uleb128 .LEHE42-.LEHB42
	.uleb128 .L460-.LFB8413
	.uleb128 0
	.uleb128 .LEHB43-.LFB8413
	.uleb128 .LEHE43-.LEHB43
	.uleb128 0
	.uleb128 0
.LLSDACSE8413:
	.section	.text._ZSt11make_uniqueIN21InskyInspectionServer4ImplEJPS0_EENSt9_MakeUniqIT_E15__single_objectEDpOT0_,"axG",@progbits,_ZSt11make_uniqueIN21InskyInspectionServer4ImplEJPS0_EENSt9_MakeUniqIT_E15__single_objectEDpOT0_,comdat
	.size	_ZSt11make_uniqueIN21InskyInspectionServer4ImplEJPS0_EENSt9_MakeUniqIT_E15__single_objectEDpOT0_, .-_ZSt11make_uniqueIN21InskyInspectionServer4ImplEJPS0_EENSt9_MakeUniqIT_E15__single_objectEDpOT0_
	.section	.text._ZNSt10unique_ptrIN21InskyInspectionServer4ImplESt14default_deleteIS1_EEaSEOS4_,"axG",@progbits,_ZNSt10unique_ptrIN21InskyInspectionServer4ImplESt14default_deleteIS1_EEaSEOS4_,comdat
	.align 2
	.weak	_ZNSt10unique_ptrIN21InskyInspectionServer4ImplESt14default_deleteIS1_EEaSEOS4_
	.type	_ZNSt10unique_ptrIN21InskyInspectionServer4ImplESt14default_deleteIS1_EEaSEOS4_, @function
_ZNSt10unique_ptrIN21InskyInspectionServer4ImplESt14default_deleteIS1_EEaSEOS4_:
.LFB8414:
	.cfi_startproc
	endbr64
	pushq	%rbp
	.cfi_def_cfa_offset 16
	.cfi_offset 6, -16
	movq	%rsp, %rbp
	.cfi_def_cfa_register 6
	subq	$16, %rsp
	movq	%rdi, -8(%rbp)
	movq	%rsi, -16(%rbp)
	movq	-16(%rbp), %rax
	movq	%rax, %rdi
	call	_ZNSt10unique_ptrIN21InskyInspectionServer4ImplESt14default_deleteIS1_EE7releaseEv@PLT
	movq	%rax, %rdx
	movq	-8(%rbp), %rax
	movq	%rdx, %rsi
	movq	%rax, %rdi
	call	_ZNSt10unique_ptrIN21InskyInspectionServer4ImplESt14default_deleteIS1_EE5resetEPS1_@PLT
	movq	-16(%rbp), %rax
	movq	%rax, %rdi
	call	_ZNSt10unique_ptrIN21InskyInspectionServer4ImplESt14default_deleteIS1_EE11get_deleterEv@PLT
	movq	%rax, %rdi
	call	_ZSt7forwardISt14default_deleteIN21InskyInspectionServer4ImplEEEOT_RNSt16remove_referenceIS4_E4typeE@PLT
	movq	-8(%rbp), %rax
	movq	%rax, %rdi
	call	_ZNSt10unique_ptrIN21InskyInspectionServer4ImplESt14default_deleteIS1_EE11get_deleterEv@PLT
	movq	-8(%rbp), %rax
	leave
	.cfi_def_cfa 7, 8
	ret
	.cfi_endproc
.LFE8414:
	.size	_ZNSt10unique_ptrIN21InskyInspectionServer4ImplESt14default_deleteIS1_EEaSEOS4_, .-_ZNSt10unique_ptrIN21InskyInspectionServer4ImplESt14default_deleteIS1_EEaSEOS4_
	.text
	.type	_Z13create_pluginI21InskyInspectionServerEPT_v, @function
_Z13create_pluginI21InskyInspectionServerEPT_v:
.LFB8415:
	.cfi_startproc
	.cfi_personality 0x9b,DW.ref.__gxx_personality_v0
	.cfi_lsda 0x1b,.LLSDA8415
	endbr64
	pushq	%rbp
	.cfi_def_cfa_offset 16
	.cfi_offset 6, -16
	movq	%rsp, %rbp
	.cfi_def_cfa_register 6
	pushq	%r12
	pushq	%rbx
	.cfi_offset 12, -24
	.cfi_offset 3, -32
	movl	$16, %edi
.LEHB44:
	call	_Znwm@PLT
.LEHE44:
	movq	%rax, %rbx
	movq	%rbx, %rdi
.LEHB45:
	call	_ZN21InskyInspectionServerC1Ev@PLT
.LEHE45:
	movq	%rbx, %rax
	jmp	.L468
.L467:
	endbr64
	movq	%rax, %r12
	movl	$16, %esi
	movq	%rbx, %rdi
	call	_ZdlPvm@PLT
	movq	%r12, %rax
	movq	%rax, %rdi
.LEHB46:
	call	_Unwind_Resume@PLT
.LEHE46:
.L468:
	popq	%rbx
	popq	%r12
	popq	%rbp
	.cfi_def_cfa 7, 8
	ret
	.cfi_endproc
.LFE8415:
	.section	.gcc_except_table
.LLSDA8415:
	.byte	0xff
	.byte	0xff
	.byte	0x1
	.uleb128 .LLSDACSE8415-.LLSDACSB8415
.LLSDACSB8415:
	.uleb128 .LEHB44-.LFB8415
	.uleb128 .LEHE44-.LEHB44
	.uleb128 0
	.uleb128 0
	.uleb128 .LEHB45-.LFB8415
	.uleb128 .LEHE45-.LEHB45
	.uleb128 .L467-.LFB8415
	.uleb128 0
	.uleb128 .LEHB46-.LFB8415
	.uleb128 .LEHE46-.LEHB46
	.uleb128 0
	.uleb128 0
.LLSDACSE8415:
	.text
	.size	_Z13create_pluginI21InskyInspectionServerEPT_v, .-_Z13create_pluginI21InskyInspectionServerEPT_v
	.section	.text._ZNSt7__cxx1112basic_stringIcSt11char_traitsIcESaIcEE12_M_constructIPKcEEvT_S8_,"axG",@progbits,_ZNSt7__cxx1112basic_stringIcSt11char_traitsIcESaIcEE12_M_constructIPKcEEvT_S8_,comdat
	.align 2
	.weak	_ZNSt7__cxx1112basic_stringIcSt11char_traitsIcESaIcEE12_M_constructIPKcEEvT_S8_
	.type	_ZNSt7__cxx1112basic_stringIcSt11char_traitsIcESaIcEE12_M_constructIPKcEEvT_S8_, @function
_ZNSt7__cxx1112basic_stringIcSt11char_traitsIcESaIcEE12_M_constructIPKcEEvT_S8_:
.LFB8438:
	.cfi_startproc
	endbr64
	pushq	%rbp
	.cfi_def_cfa_offset 16
	.cfi_offset 6, -16
	movq	%rsp, %rbp
	.cfi_def_cfa_register 6
	subq	$32, %rsp
	movq	%rdi, -8(%rbp)
	movq	%rsi, -16(%rbp)
	movq	%rdx, -24(%rbp)
	movq	-24(%rbp), %rdx
	movq	-16(%rbp), %rcx
	movq	-8(%rbp), %rax
	movq	%rcx, %rsi
	movq	%rax, %rdi
	call	_ZNSt7__cxx1112basic_stringIcSt11char_traitsIcESaIcEE16_M_construct_auxIPKcEEvT_S8_St12__false_type@PLT
	nop
	leave
	.cfi_def_cfa 7, 8
	ret
	.cfi_endproc
.LFE8438:
	.size	_ZNSt7__cxx1112basic_stringIcSt11char_traitsIcESaIcEE12_M_constructIPKcEEvT_S8_, .-_ZNSt7__cxx1112basic_stringIcSt11char_traitsIcESaIcEE12_M_constructIPKcEEvT_S8_
	.section	.text._ZNSt16allocator_traitsISaIcEE8allocateERS0_m,"axG",@progbits,_ZNSt16allocator_traitsISaIcEE8allocateERS0_m,comdat
	.weak	_ZNSt16allocator_traitsISaIcEE8allocateERS0_m
	.type	_ZNSt16allocator_traitsISaIcEE8allocateERS0_m, @function
_ZNSt16allocator_traitsISaIcEE8allocateERS0_m:
.LFB8530:
	.cfi_startproc
	endbr64
	pushq	%rbp
	.cfi_def_cfa_offset 16
	.cfi_offset 6, -16
	movq	%rsp, %rbp
	.cfi_def_cfa_register 6
	subq	$16, %rsp
	movq	%rdi, -8(%rbp)
	movq	%rsi, -16(%rbp)
	movq	-16(%rbp), %rcx
	movq	-8(%rbp), %rax
	movl	$0, %edx
	movq	%rcx, %rsi
	movq	%rax, %rdi
	call	_ZN9__gnu_cxx13new_allocatorIcE8allocateEmPKv@PLT
	leave
	.cfi_def_cfa 7, 8
	ret
	.cfi_endproc
.LFE8530:
	.size	_ZNSt16allocator_traitsISaIcEE8allocateERS0_m, .-_ZNSt16allocator_traitsISaIcEE8allocateERS0_m
	.section	.text._ZNSt16_Sp_counted_baseILN9__gnu_cxx12_Lock_policyE2EE10_M_releaseEv,"axG",@progbits,_ZNSt16_Sp_counted_baseILN9__gnu_cxx12_Lock_policyE2EE10_M_releaseEv,comdat
	.align 2
	.weak	_ZNSt16_Sp_counted_baseILN9__gnu_cxx12_Lock_policyE2EE10_M_releaseEv
	.type	_ZNSt16_Sp_counted_baseILN9__gnu_cxx12_Lock_policyE2EE10_M_releaseEv, @function
_ZNSt16_Sp_counted_baseILN9__gnu_cxx12_Lock_policyE2EE10_M_releaseEv:
.LFB8664:
	.cfi_startproc
	endbr64
	pushq	%rbp
	.cfi_def_cfa_offset 16
	.cfi_offset 6, -16
	movq	%rsp, %rbp
	.cfi_def_cfa_register 6
	subq	$16, %rsp
	movq	%rdi, -8(%rbp)
	movq	-8(%rbp), %rax
	addq	$8, %rax
	movl	$-1, %esi
	movq	%rax, %rdi
	call	_ZN9__gnu_cxxL27__exchange_and_add_dispatchEPii
	cmpl	$1, %eax
	sete	%al
	testb	%al, %al
	je	.L474
	movq	-8(%rbp), %rax
	movq	(%rax), %rax
	addq	$16, %rax
	movq	(%rax), %rdx
	movq	-8(%rbp), %rax
	movq	%rax, %rdi
	call	*%rdx
	movq	-8(%rbp), %rax
	addq	$12, %rax
	movl	$-1, %esi
	movq	%rax, %rdi
	call	_ZN9__gnu_cxxL27__exchange_and_add_dispatchEPii
	cmpl	$1, %eax
	sete	%al
	testb	%al, %al
	je	.L474
	movq	-8(%rbp), %rax
	movq	(%rax), %rax
	addq	$24, %rax
	movq	(%rax), %rdx
	movq	-8(%rbp), %rax
	movq	%rax, %rdi
	call	*%rdx
.L474:
	nop
	leave
	.cfi_def_cfa 7, 8
	ret
	.cfi_endproc
.LFE8664:
	.size	_ZNSt16_Sp_counted_baseILN9__gnu_cxx12_Lock_policyE2EE10_M_releaseEv, .-_ZNSt16_Sp_counted_baseILN9__gnu_cxx12_Lock_policyE2EE10_M_releaseEv
	.section	.text._ZN3fmt2v68internal6bufferIcED2Ev,"axG",@progbits,_ZN3fmt2v68internal6bufferIcED5Ev,comdat
	.align 2
	.weak	_ZN3fmt2v68internal6bufferIcED2Ev
	.type	_ZN3fmt2v68internal6bufferIcED2Ev, @function
_ZN3fmt2v68internal6bufferIcED2Ev:
.LFB8671:
	.cfi_startproc
	endbr64
	pushq	%rbp
	.cfi_def_cfa_offset 16
	.cfi_offset 6, -16
	movq	%rsp, %rbp
	.cfi_def_cfa_register 6
	movq	%rdi, -8(%rbp)
	movq	_ZTVN3fmt2v68internal6bufferIcEE@GOTPCREL(%rip), %rax
	leaq	16(%rax), %rdx
	movq	-8(%rbp), %rax
	movq	%rdx, (%rax)
	nop
	popq	%rbp
	.cfi_def_cfa 7, 8
	ret
	.cfi_endproc
.LFE8671:
	.size	_ZN3fmt2v68internal6bufferIcED2Ev, .-_ZN3fmt2v68internal6bufferIcED2Ev
	.weak	_ZN3fmt2v68internal6bufferIcED1Ev
	.set	_ZN3fmt2v68internal6bufferIcED1Ev,_ZN3fmt2v68internal6bufferIcED2Ev
	.section	.text._ZN3fmt2v68internal6bufferIcED0Ev,"axG",@progbits,_ZN3fmt2v68internal6bufferIcED5Ev,comdat
	.align 2
	.weak	_ZN3fmt2v68internal6bufferIcED0Ev
	.type	_ZN3fmt2v68internal6bufferIcED0Ev, @function
_ZN3fmt2v68internal6bufferIcED0Ev:
.LFB8673:
	.cfi_startproc
	endbr64
	pushq	%rbp
	.cfi_def_cfa_offset 16
	.cfi_offset 6, -16
	movq	%rsp, %rbp
	.cfi_def_cfa_register 6
	subq	$16, %rsp
	movq	%rdi, -8(%rbp)
	movq	-8(%rbp), %rax
	movq	%rax, %rdi
	call	_ZN3fmt2v68internal6bufferIcED1Ev@PLT
	movq	-8(%rbp), %rax
	movl	$32, %esi
	movq	%rax, %rdi
	call	_ZdlPvm@PLT
	leave
	.cfi_def_cfa 7, 8
	ret
	.cfi_endproc
.LFE8673:
	.size	_ZN3fmt2v68internal6bufferIcED0Ev, .-_ZN3fmt2v68internal6bufferIcED0Ev
	.section	.text._ZN3fmt2v619basic_memory_bufferIcLm250ESaIcEEC2ERKS2_,"axG",@progbits,_ZN3fmt2v619basic_memory_bufferIcLm250ESaIcEEC5ERKS2_,comdat
	.align 2
	.weak	_ZN3fmt2v619basic_memory_bufferIcLm250ESaIcEEC2ERKS2_
	.type	_ZN3fmt2v619basic_memory_bufferIcLm250ESaIcEEC2ERKS2_, @function
_ZN3fmt2v619basic_memory_bufferIcLm250ESaIcEEC2ERKS2_:
.LFB8674:
	.cfi_startproc
	endbr64
	pushq	%rbp
	.cfi_def_cfa_offset 16
	.cfi_offset 6, -16
	movq	%rsp, %rbp
	.cfi_def_cfa_register 6
	subq	$16, %rsp
	movq	%rdi, -8(%rbp)
	movq	%rsi, -16(%rbp)
	movq	-16(%rbp), %rdx
	movq	-8(%rbp), %rax
	movq	%rdx, %rsi
	movq	%rax, %rdi
	call	_ZNSaIcEC2ERKS_@PLT
	movq	-8(%rbp), %rax
	movl	$0, %ecx
	movl	$0, %edx
	movl	$0, %esi
	movq	%rax, %rdi
	call	_ZN3fmt2v68internal6bufferIcEC2EPcmm@PLT
	movq	_ZTVN3fmt2v619basic_memory_bufferIcLm250ESaIcEEE@GOTPCREL(%rip), %rax
	leaq	16(%rax), %rdx
	movq	-8(%rbp), %rax
	movq	%rdx, (%rax)
	movq	-8(%rbp), %rax
	movq	-8(%rbp), %rdx
	leaq	32(%rdx), %rcx
	movl	$250, %edx
	movq	%rcx, %rsi
	movq	%rax, %rdi
	call	_ZN3fmt2v68internal6bufferIcE3setEPcm@PLT
	nop
	leave
	.cfi_def_cfa 7, 8
	ret
	.cfi_endproc
.LFE8674:
	.size	_ZN3fmt2v619basic_memory_bufferIcLm250ESaIcEEC2ERKS2_, .-_ZN3fmt2v619basic_memory_bufferIcLm250ESaIcEEC2ERKS2_
	.weak	_ZN3fmt2v619basic_memory_bufferIcLm250ESaIcEEC1ERKS2_
	.set	_ZN3fmt2v619basic_memory_bufferIcLm250ESaIcEEC1ERKS2_,_ZN3fmt2v619basic_memory_bufferIcLm250ESaIcEEC2ERKS2_
	.section	.text._ZN3fmt2v619basic_memory_bufferIcLm250ESaIcEED2Ev,"axG",@progbits,_ZN3fmt2v619basic_memory_bufferIcLm250ESaIcEED5Ev,comdat
	.align 2
	.weak	_ZN3fmt2v619basic_memory_bufferIcLm250ESaIcEED2Ev
	.type	_ZN3fmt2v619basic_memory_bufferIcLm250ESaIcEED2Ev, @function
_ZN3fmt2v619basic_memory_bufferIcLm250ESaIcEED2Ev:
.LFB8677:
	.cfi_startproc
	.cfi_personality 0x9b,DW.ref.__gxx_personality_v0
	.cfi_lsda 0x1b,.LLSDA8677
	endbr64
	pushq	%rbp
	.cfi_def_cfa_offset 16
	.cfi_offset 6, -16
	movq	%rsp, %rbp
	.cfi_def_cfa_register 6
	subq	$16, %rsp
	movq	%rdi, -8(%rbp)
	movq	_ZTVN3fmt2v619basic_memory_bufferIcLm250ESaIcEEE@GOTPCREL(%rip), %rax
	leaq	16(%rax), %rdx
	movq	-8(%rbp), %rax
	movq	%rdx, (%rax)
	movq	-8(%rbp), %rax
	movq	%rax, %rdi
	call	_ZN3fmt2v619basic_memory_bufferIcLm250ESaIcEE10deallocateEv@PLT
	movq	-8(%rbp), %rax
	movq	%rax, %rdi
	call	_ZN3fmt2v68internal6bufferIcED2Ev@PLT
	movq	-8(%rbp), %rax
	movq	%rax, %rdi
	call	_ZNSaIcED2Ev@PLT
	nop
	leave
	.cfi_def_cfa 7, 8
	ret
	.cfi_endproc
.LFE8677:
	.section	.gcc_except_table
.LLSDA8677:
	.byte	0xff
	.byte	0xff
	.byte	0x1
	.uleb128 .LLSDACSE8677-.LLSDACSB8677
.LLSDACSB8677:
.LLSDACSE8677:
	.section	.text._ZN3fmt2v619basic_memory_bufferIcLm250ESaIcEED2Ev,"axG",@progbits,_ZN3fmt2v619basic_memory_bufferIcLm250ESaIcEED5Ev,comdat
	.size	_ZN3fmt2v619basic_memory_bufferIcLm250ESaIcEED2Ev, .-_ZN3fmt2v619basic_memory_bufferIcLm250ESaIcEED2Ev
	.weak	_ZN3fmt2v619basic_memory_bufferIcLm250ESaIcEED1Ev
	.set	_ZN3fmt2v619basic_memory_bufferIcLm250ESaIcEED1Ev,_ZN3fmt2v619basic_memory_bufferIcLm250ESaIcEED2Ev
	.section	.text._ZN3fmt2v619basic_memory_bufferIcLm250ESaIcEED0Ev,"axG",@progbits,_ZN3fmt2v619basic_memory_bufferIcLm250ESaIcEED5Ev,comdat
	.align 2
	.weak	_ZN3fmt2v619basic_memory_bufferIcLm250ESaIcEED0Ev
	.type	_ZN3fmt2v619basic_memory_bufferIcLm250ESaIcEED0Ev, @function
_ZN3fmt2v619basic_memory_bufferIcLm250ESaIcEED0Ev:
.LFB8679:
	.cfi_startproc
	endbr64
	pushq	%rbp
	.cfi_def_cfa_offset 16
	.cfi_offset 6, -16
	movq	%rsp, %rbp
	.cfi_def_cfa_register 6
	subq	$16, %rsp
	movq	%rdi, -8(%rbp)
	movq	-8(%rbp), %rax
	movq	%rax, %rdi
	call	_ZN3fmt2v619basic_memory_bufferIcLm250ESaIcEED1Ev@PLT
	movq	-8(%rbp), %rax
	movl	$288, %esi
	movq	%rax, %rdi
	call	_ZdlPvm@PLT
	leave
	.cfi_def_cfa 7, 8
	ret
	.cfi_endproc
.LFE8679:
	.size	_ZN3fmt2v619basic_memory_bufferIcLm250ESaIcEED0Ev, .-_ZN3fmt2v619basic_memory_bufferIcLm250ESaIcEED0Ev
	.section	.text._ZN3fmt2v68internal6bufferIcE4dataEv,"axG",@progbits,_ZN3fmt2v68internal6bufferIcE4dataEv,comdat
	.align 2
	.weak	_ZN3fmt2v68internal6bufferIcE4dataEv
	.type	_ZN3fmt2v68internal6bufferIcE4dataEv, @function
_ZN3fmt2v68internal6bufferIcE4dataEv:
.LFB8681:
	.cfi_startproc
	endbr64
	pushq	%rbp
	.cfi_def_cfa_offset 16
	.cfi_offset 6, -16
	movq	%rsp, %rbp
	.cfi_def_cfa_register 6
	movq	%rdi, -8(%rbp)
	movq	-8(%rbp), %rax
	movq	8(%rax), %rax
	popq	%rbp
	.cfi_def_cfa 7, 8
	ret
	.cfi_endproc
.LFE8681:
	.size	_ZN3fmt2v68internal6bufferIcE4dataEv, .-_ZN3fmt2v68internal6bufferIcE4dataEv
	.section	.text._ZNK3fmt2v68internal6bufferIcE4sizeEv,"axG",@progbits,_ZNK3fmt2v68internal6bufferIcE4sizeEv,comdat
	.align 2
	.weak	_ZNK3fmt2v68internal6bufferIcE4sizeEv
	.type	_ZNK3fmt2v68internal6bufferIcE4sizeEv, @function
_ZNK3fmt2v68internal6bufferIcE4sizeEv:
.LFB8682:
	.cfi_startproc
	endbr64
	pushq	%rbp
	.cfi_def_cfa_offset 16
	.cfi_offset 6, -16
	movq	%rsp, %rbp
	.cfi_def_cfa_register 6
	movq	%rdi, -8(%rbp)
	movq	-8(%rbp), %rax
	movq	16(%rax), %rax
	popq	%rbp
	.cfi_def_cfa 7, 8
	ret
	.cfi_endproc
.LFE8682:
	.size	_ZNK3fmt2v68internal6bufferIcE4sizeEv, .-_ZNK3fmt2v68internal6bufferIcE4sizeEv
	.section	.text._ZN3fmt2v617basic_string_viewIcEC2ISt11char_traitsIcESaIcEEERKNSt7__cxx1112basic_stringIcT_T0_EE,"axG",@progbits,_ZN3fmt2v617basic_string_viewIcEC5ISt11char_traitsIcESaIcEEERKNSt7__cxx1112basic_stringIcT_T0_EE,comdat
	.align 2
	.weak	_ZN3fmt2v617basic_string_viewIcEC2ISt11char_traitsIcESaIcEEERKNSt7__cxx1112basic_stringIcT_T0_EE
	.type	_ZN3fmt2v617basic_string_viewIcEC2ISt11char_traitsIcESaIcEEERKNSt7__cxx1112basic_stringIcT_T0_EE, @function
_ZN3fmt2v617basic_string_viewIcEC2ISt11char_traitsIcESaIcEEERKNSt7__cxx1112basic_stringIcT_T0_EE:
.LFB8684:
	.cfi_startproc
	endbr64
	pushq	%rbp
	.cfi_def_cfa_offset 16
	.cfi_offset 6, -16
	movq	%rsp, %rbp
	.cfi_def_cfa_register 6
	subq	$16, %rsp
	movq	%rdi, -8(%rbp)
	movq	%rsi, -16(%rbp)
	movq	-16(%rbp), %rax
	movq	%rax, %rdi
	call	_ZNKSt7__cxx1112basic_stringIcSt11char_traitsIcESaIcEE4dataEv@PLT
	movq	-8(%rbp), %rdx
	movq	%rax, (%rdx)
	movq	-16(%rbp), %rax
	movq	%rax, %rdi
	call	_ZNKSt7__cxx1112basic_stringIcSt11char_traitsIcESaIcEE4sizeEv@PLT
	movq	-8(%rbp), %rdx
	movq	%rax, 8(%rdx)
	nop
	leave
	.cfi_def_cfa 7, 8
	ret
	.cfi_endproc
.LFE8684:
	.size	_ZN3fmt2v617basic_string_viewIcEC2ISt11char_traitsIcESaIcEEERKNSt7__cxx1112basic_stringIcT_T0_EE, .-_ZN3fmt2v617basic_string_viewIcEC2ISt11char_traitsIcESaIcEEERKNSt7__cxx1112basic_stringIcT_T0_EE
	.weak	_ZN3fmt2v617basic_string_viewIcEC1ISt11char_traitsIcESaIcEEERKNSt7__cxx1112basic_stringIcT_T0_EE
	.set	_ZN3fmt2v617basic_string_viewIcEC1ISt11char_traitsIcESaIcEEERKNSt7__cxx1112basic_stringIcT_T0_EE,_ZN3fmt2v617basic_string_viewIcEC2ISt11char_traitsIcESaIcEEERKNSt7__cxx1112basic_stringIcT_T0_EE
	.section	.text._ZNSt12__shared_ptrI20RIOTFrameworkContextLN9__gnu_cxx12_Lock_policyE2EEC2EOS3_,"axG",@progbits,_ZNSt12__shared_ptrI20RIOTFrameworkContextLN9__gnu_cxx12_Lock_policyE2EEC5EOS3_,comdat
	.align 2
	.weak	_ZNSt12__shared_ptrI20RIOTFrameworkContextLN9__gnu_cxx12_Lock_policyE2EEC2EOS3_
	.type	_ZNSt12__shared_ptrI20RIOTFrameworkContextLN9__gnu_cxx12_Lock_policyE2EEC2EOS3_, @function
_ZNSt12__shared_ptrI20RIOTFrameworkContextLN9__gnu_cxx12_Lock_policyE2EEC2EOS3_:
.LFB8687:
	.cfi_startproc
	endbr64
	pushq	%rbp
	.cfi_def_cfa_offset 16
	.cfi_offset 6, -16
	movq	%rsp, %rbp
	.cfi_def_cfa_register 6
	subq	$16, %rsp
	movq	%rdi, -8(%rbp)
	movq	%rsi, -16(%rbp)
	movq	-16(%rbp), %rax
	movq	(%rax), %rdx
	movq	-8(%rbp), %rax
	movq	%rdx, (%rax)
	movq	-8(%rbp), %rax
	addq	$8, %rax
	movq	%rax, %rdi
	call	_ZNSt14__shared_countILN9__gnu_cxx12_Lock_policyE2EEC1Ev@PLT
	movq	-8(%rbp), %rax
	addq	$8, %rax
	movq	-16(%rbp), %rdx
	addq	$8, %rdx
	movq	%rdx, %rsi
	movq	%rax, %rdi
	call	_ZNSt14__shared_countILN9__gnu_cxx12_Lock_policyE2EE7_M_swapERS2_@PLT
	movq	-16(%rbp), %rax
	movq	$0, (%rax)
	nop
	leave
	.cfi_def_cfa 7, 8
	ret
	.cfi_endproc
.LFE8687:
	.size	_ZNSt12__shared_ptrI20RIOTFrameworkContextLN9__gnu_cxx12_Lock_policyE2EEC2EOS3_, .-_ZNSt12__shared_ptrI20RIOTFrameworkContextLN9__gnu_cxx12_Lock_policyE2EEC2EOS3_
	.weak	_ZNSt12__shared_ptrI20RIOTFrameworkContextLN9__gnu_cxx12_Lock_policyE2EEC1EOS3_
	.set	_ZNSt12__shared_ptrI20RIOTFrameworkContextLN9__gnu_cxx12_Lock_policyE2EEC1EOS3_,_ZNSt12__shared_ptrI20RIOTFrameworkContextLN9__gnu_cxx12_Lock_policyE2EEC2EOS3_
	.section	.text._ZNSt16_Sp_counted_baseILN9__gnu_cxx12_Lock_policyE2EE15_M_add_ref_copyEv,"axG",@progbits,_ZNSt16_Sp_counted_baseILN9__gnu_cxx12_Lock_policyE2EE15_M_add_ref_copyEv,comdat
	.align 2
	.weak	_ZNSt16_Sp_counted_baseILN9__gnu_cxx12_Lock_policyE2EE15_M_add_ref_copyEv
	.type	_ZNSt16_Sp_counted_baseILN9__gnu_cxx12_Lock_policyE2EE15_M_add_ref_copyEv, @function
_ZNSt16_Sp_counted_baseILN9__gnu_cxx12_Lock_policyE2EE15_M_add_ref_copyEv:
.LFB8689:
	.cfi_startproc
	endbr64
	pushq	%rbp
	.cfi_def_cfa_offset 16
	.cfi_offset 6, -16
	movq	%rsp, %rbp
	.cfi_def_cfa_register 6
	subq	$8, %rsp
	movq	%rdi, -8(%rbp)
	movq	-8(%rbp), %rax
	addq	$8, %rax
	movl	$1, %esi
	movq	%rax, %rdi
	call	_ZN9__gnu_cxxL21__atomic_add_dispatchEPii
	nop
	leave
	.cfi_def_cfa 7, 8
	ret
	.cfi_endproc
.LFE8689:
	.size	_ZNSt16_Sp_counted_baseILN9__gnu_cxx12_Lock_policyE2EE15_M_add_ref_copyEv, .-_ZNSt16_Sp_counted_baseILN9__gnu_cxx12_Lock_policyE2EE15_M_add_ref_copyEv
	.section	.text._ZNSt15__uniq_ptr_implINSt10filesystem7__cxx114path5_List5_ImplENS3_13_Impl_deleterEE6_M_ptrEv,"axG",@progbits,_ZNSt15__uniq_ptr_implINSt10filesystem7__cxx114path5_List5_ImplENS3_13_Impl_deleterEE6_M_ptrEv,comdat
	.align 2
	.weak	_ZNSt15__uniq_ptr_implINSt10filesystem7__cxx114path5_List5_ImplENS3_13_Impl_deleterEE6_M_ptrEv
	.type	_ZNSt15__uniq_ptr_implINSt10filesystem7__cxx114path5_List5_ImplENS3_13_Impl_deleterEE6_M_ptrEv, @function
_ZNSt15__uniq_ptr_implINSt10filesystem7__cxx114path5_List5_ImplENS3_13_Impl_deleterEE6_M_ptrEv:
.LFB8698:
	.cfi_startproc
	endbr64
	pushq	%rbp
	.cfi_def_cfa_offset 16
	.cfi_offset 6, -16
	movq	%rsp, %rbp
	.cfi_def_cfa_register 6
	subq	$16, %rsp
	movq	%rdi, -8(%rbp)
	movq	-8(%rbp), %rax
	movq	%rax, %rdi
	call	_ZSt3getILm0EJPNSt10filesystem7__cxx114path5_List5_ImplENS3_13_Impl_deleterEEERNSt13tuple_elementIXT_ESt5tupleIJDpT0_EEE4typeERSB_@PLT
	leave
	.cfi_def_cfa 7, 8
	ret
	.cfi_endproc
.LFE8698:
	.size	_ZNSt15__uniq_ptr_implINSt10filesystem7__cxx114path5_List5_ImplENS3_13_Impl_deleterEE6_M_ptrEv, .-_ZNSt15__uniq_ptr_implINSt10filesystem7__cxx114path5_List5_ImplENS3_13_Impl_deleterEE6_M_ptrEv
	.section	.text._ZNSt10unique_ptrINSt10filesystem7__cxx114path5_List5_ImplENS3_13_Impl_deleterEE11get_deleterEv,"axG",@progbits,_ZNSt10unique_ptrINSt10filesystem7__cxx114path5_List5_ImplENS3_13_Impl_deleterEE11get_deleterEv,comdat
	.align 2
	.weak	_ZNSt10unique_ptrINSt10filesystem7__cxx114path5_List5_ImplENS3_13_Impl_deleterEE11get_deleterEv
	.type	_ZNSt10unique_ptrINSt10filesystem7__cxx114path5_List5_ImplENS3_13_Impl_deleterEE11get_deleterEv, @function
_ZNSt10unique_ptrINSt10filesystem7__cxx114path5_List5_ImplENS3_13_Impl_deleterEE11get_deleterEv:
.LFB8699:
	.cfi_startproc
	endbr64
	pushq	%rbp
	.cfi_def_cfa_offset 16
	.cfi_offset 6, -16
	movq	%rsp, %rbp
	.cfi_def_cfa_register 6
	subq	$16, %rsp
	movq	%rdi, -8(%rbp)
	movq	-8(%rbp), %rax
	movq	%rax, %rdi
	call	_ZNSt15__uniq_ptr_implINSt10filesystem7__cxx114path5_List5_ImplENS3_13_Impl_deleterEE10_M_deleterEv@PLT
	leave
	.cfi_def_cfa 7, 8
	ret
	.cfi_endproc
.LFE8699:
	.size	_ZNSt10unique_ptrINSt10filesystem7__cxx114path5_List5_ImplENS3_13_Impl_deleterEE11get_deleterEv, .-_ZNSt10unique_ptrINSt10filesystem7__cxx114path5_List5_ImplENS3_13_Impl_deleterEE11get_deleterEv
	.section	.text._ZSt4moveIRPNSt10filesystem7__cxx114path5_List5_ImplEEONSt16remove_referenceIT_E4typeEOS8_,"axG",@progbits,_ZSt4moveIRPNSt10filesystem7__cxx114path5_List5_ImplEEONSt16remove_referenceIT_E4typeEOS8_,comdat
	.weak	_ZSt4moveIRPNSt10filesystem7__cxx114path5_List5_ImplEEONSt16remove_referenceIT_E4typeEOS8_
	.type	_ZSt4moveIRPNSt10filesystem7__cxx114path5_List5_ImplEEONSt16remove_referenceIT_E4typeEOS8_, @function
_ZSt4moveIRPNSt10filesystem7__cxx114path5_List5_ImplEEONSt16remove_referenceIT_E4typeEOS8_:
.LFB8700:
	.cfi_startproc
	endbr64
	pushq	%rbp
	.cfi_def_cfa_offset 16
	.cfi_offset 6, -16
	movq	%rsp, %rbp
	.cfi_def_cfa_register 6
	movq	%rdi, -8(%rbp)
	movq	-8(%rbp), %rax
	popq	%rbp
	.cfi_def_cfa 7, 8
	ret
	.cfi_endproc
.LFE8700:
	.size	_ZSt4moveIRPNSt10filesystem7__cxx114path5_List5_ImplEEONSt16remove_referenceIT_E4typeEOS8_, .-_ZSt4moveIRPNSt10filesystem7__cxx114path5_List5_ImplEEONSt16remove_referenceIT_E4typeEOS8_
	.section	.text._ZNSt14__shared_countILN9__gnu_cxx12_Lock_policyE2EE7_M_swapERS2_,"axG",@progbits,_ZNSt14__shared_countILN9__gnu_cxx12_Lock_policyE2EE7_M_swapERS2_,comdat
	.align 2
	.weak	_ZNSt14__shared_countILN9__gnu_cxx12_Lock_policyE2EE7_M_swapERS2_
	.type	_ZNSt14__shared_countILN9__gnu_cxx12_Lock_policyE2EE7_M_swapERS2_, @function
_ZNSt14__shared_countILN9__gnu_cxx12_Lock_policyE2EE7_M_swapERS2_:
.LFB8764:
	.cfi_startproc
	endbr64
	pushq	%rbp
	.cfi_def_cfa_offset 16
	.cfi_offset 6, -16
	movq	%rsp, %rbp
	.cfi_def_cfa_register 6
	movq	%rdi, -24(%rbp)
	movq	%rsi, -32(%rbp)
	movq	-32(%rbp), %rax
	movq	(%rax), %rax
	movq	%rax, -8(%rbp)
	movq	-24(%rbp), %rax
	movq	(%rax), %rdx
	movq	-32(%rbp), %rax
	movq	%rdx, (%rax)
	movq	-24(%rbp), %rax
	movq	-8(%rbp), %rdx
	movq	%rdx, (%rax)
	nop
	popq	%rbp
	.cfi_def_cfa 7, 8
	ret
	.cfi_endproc
.LFE8764:
	.size	_ZNSt14__shared_countILN9__gnu_cxx12_Lock_policyE2EE7_M_swapERS2_, .-_ZNSt14__shared_countILN9__gnu_cxx12_Lock_policyE2EE7_M_swapERS2_
	.section	.text._ZNSaISt10unique_ptrI19InspectionSubServerSt14default_deleteIS0_EEEC2Ev,"axG",@progbits,_ZNSaISt10unique_ptrI19InspectionSubServerSt14default_deleteIS0_EEEC5Ev,comdat
	.align 2
