	.file	"InspectionSubServer.cpp"
	.text
	.weak	_ZSt19piecewise_construct
	.section	.rodata._ZSt19piecewise_construct,"aG",@progbits,_ZSt19piecewise_construct,comdat
	.type	_ZSt19piecewise_construct, @gnu_unique_object
	.size	_ZSt19piecewise_construct, 1
_ZSt19piecewise_construct:
	.zero	1
	.section	.text._ZNSt11char_traitsIcE2ltERKcS2_,"axG",@progbits,_ZNSt11char_traitsIcE2ltERKcS2_,comdat
	.weak	_ZNSt11char_traitsIcE2ltERKcS2_
	.type	_ZNSt11char_traitsIcE2ltERKcS2_, @function
_ZNSt11char_traitsIcE2ltERKcS2_:
.LFB344:
	.cfi_startproc
	endbr64
	pushq	%rbp
	.cfi_def_cfa_offset 16
	.cfi_offset 6, -16
	movq	%rsp, %rbp
	.cfi_def_cfa_register 6
	movq	%rdi, -8(%rbp)
	movq	%rsi, -16(%rbp)
	movq	-8(%rbp), %rax
	movzbl	(%rax), %eax
	movl	%eax, %edx
	movq	-16(%rbp), %rax
	movzbl	(%rax), %eax
	cmpb	%al, %dl
	setb	%al
	popq	%rbp
	.cfi_def_cfa 7, 8
	ret
	.cfi_endproc
.LFE344:
	.size	_ZNSt11char_traitsIcE2ltERKcS2_, .-_ZNSt11char_traitsIcE2ltERKcS2_
	.section	.text._ZNSt11char_traitsIcE7compareEPKcS2_m,"axG",@progbits,_ZNSt11char_traitsIcE7compareEPKcS2_m,comdat
	.weak	_ZNSt11char_traitsIcE7compareEPKcS2_m
	.type	_ZNSt11char_traitsIcE7compareEPKcS2_m, @function
_ZNSt11char_traitsIcE7compareEPKcS2_m:
.LFB345:
	.cfi_startproc
	endbr64
	pushq	%rbp
	.cfi_def_cfa_offset 16
	.cfi_offset 6, -16
	movq	%rsp, %rbp
	.cfi_def_cfa_register 6
	subq	$48, %rsp
	movq	%rdi, -24(%rbp)
	movq	%rsi, -32(%rbp)
	movq	%rdx, -40(%rbp)
	cmpq	$0, -40(%rbp)
	jne	.L4
	movl	$0, %eax
	jmp	.L5
.L4:
	movl	$0, %eax
	testb	%al, %al
	je	.L6
	movq	$0, -8(%rbp)
.L10:
	movq	-8(%rbp), %rax
	cmpq	-40(%rbp), %rax
	jnb	.L7
	movq	-32(%rbp), %rdx
	movq	-8(%rbp), %rax
	addq	%rax, %rdx
	movq	-24(%rbp), %rcx
	movq	-8(%rbp), %rax
	addq	%rcx, %rax
	movq	%rdx, %rsi
	movq	%rax, %rdi
	call	_ZNSt11char_traitsIcE2ltERKcS2_@PLT
	testb	%al, %al
	je	.L8
	movl	$-1, %eax
	jmp	.L5
.L8:
	movq	-24(%rbp), %rdx
	movq	-8(%rbp), %rax
	addq	%rax, %rdx
	movq	-32(%rbp), %rcx
	movq	-8(%rbp), %rax
	addq	%rcx, %rax
	movq	%rdx, %rsi
	movq	%rax, %rdi
	call	_ZNSt11char_traitsIcE2ltERKcS2_@PLT
	testb	%al, %al
	je	.L9
	movl	$1, %eax
	jmp	.L5
.L9:
	addq	$1, -8(%rbp)
	jmp	.L10
.L7:
	movl	$0, %eax
	jmp	.L5
.L6:
	movq	-40(%rbp), %rdx
	movq	-32(%rbp), %rcx
	movq	-24(%rbp), %rax
	movq	%rcx, %rsi
	movq	%rax, %rdi
	call	memcmp@PLT
	nop
.L5:
	leave
	.cfi_def_cfa 7, 8
	ret
	.cfi_endproc
.LFE345:
	.size	_ZNSt11char_traitsIcE7compareEPKcS2_m, .-_ZNSt11char_traitsIcE7compareEPKcS2_m
	.section	.text._ZNSt11char_traitsIcE6lengthEPKc,"axG",@progbits,_ZNSt11char_traitsIcE6lengthEPKc,comdat
	.weak	_ZNSt11char_traitsIcE6lengthEPKc
	.type	_ZNSt11char_traitsIcE6lengthEPKc, @function
_ZNSt11char_traitsIcE6lengthEPKc:
.LFB347:
	.cfi_startproc
	endbr64
	pushq	%rbp
	.cfi_def_cfa_offset 16
	.cfi_offset 6, -16
	movq	%rsp, %rbp
	.cfi_def_cfa_register 6
	subq	$32, %rsp
	movq	%rdi, -24(%rbp)
	movq	-24(%rbp), %rax
	movq	%rax, -8(%rbp)
	movl	$0, %eax
	testb	%al, %al
	je	.L13
	movq	-24(%rbp), %rax
	movq	%rax, %rdi
	call	_ZN9__gnu_cxx11char_traitsIcE6lengthEPKc@PLT
	jmp	.L14
.L13:
	movq	-24(%rbp), %rax
	movq	$-1, %rcx
	movq	%rax, %rdx
	movl	$0, %eax
	movq	%rdx, %rdi
	repnz scasb
	movq	%rcx, %rax
	notq	%rax
	subq	$1, %rax
	nop
.L14:
	leave
	.cfi_def_cfa 7, 8
	ret
	.cfi_endproc
.LFE347:
	.size	_ZNSt11char_traitsIcE6lengthEPKc, .-_ZNSt11char_traitsIcE6lengthEPKc
	.section	.text._ZnwmPv,"axG",@progbits,_ZnwmPv,comdat
	.weak	_ZnwmPv
	.type	_ZnwmPv, @function
_ZnwmPv:
.LFB452:
	.cfi_startproc
	endbr64
	pushq	%rbp
	.cfi_def_cfa_offset 16
	.cfi_offset 6, -16
	movq	%rsp, %rbp
	.cfi_def_cfa_register 6
	movq	%rdi, -8(%rbp)
	movq	%rsi, -16(%rbp)
	movq	-16(%rbp), %rax
	popq	%rbp
	.cfi_def_cfa 7, 8
	ret
	.cfi_endproc
.LFE452:
	.size	_ZnwmPv, .-_ZnwmPv
	.section	.text._ZdlPvS_,"axG",@progbits,_ZdlPvS_,comdat
	.weak	_ZdlPvS_
	.type	_ZdlPvS_, @function
_ZdlPvS_:
.LFB454:
	.cfi_startproc
	endbr64
	pushq	%rbp
	.cfi_def_cfa_offset 16
	.cfi_offset 6, -16
	movq	%rsp, %rbp
	.cfi_def_cfa_register 6
	movq	%rdi, -8(%rbp)
	movq	%rsi, -16(%rbp)
	nop
	popq	%rbp
	.cfi_def_cfa 7, 8
	ret
	.cfi_endproc
.LFE454:
	.size	_ZdlPvS_, .-_ZdlPvS_
	.section	.text._ZNSt10_Hash_impl4hashEPKvmm,"axG",@progbits,_ZNSt10_Hash_impl4hashEPKvmm,comdat
	.weak	_ZNSt10_Hash_impl4hashEPKvmm
	.type	_ZNSt10_Hash_impl4hashEPKvmm, @function
_ZNSt10_Hash_impl4hashEPKvmm:
.LFB930:
	.cfi_startproc
	endbr64
	pushq	%rbp
	.cfi_def_cfa_offset 16
	.cfi_offset 6, -16
	movq	%rsp, %rbp
	.cfi_def_cfa_register 6
	subq	$32, %rsp
	movq	%rdi, -8(%rbp)
	movq	%rsi, -16(%rbp)
	movq	%rdx, -24(%rbp)
	movq	-24(%rbp), %rdx
	movq	-16(%rbp), %rcx
	movq	-8(%rbp), %rax
	movq	%rcx, %rsi
	movq	%rax, %rdi
	call	_ZSt11_Hash_bytesPKvmm@PLT
	leave
	.cfi_def_cfa 7, 8
	ret
	.cfi_endproc
.LFE930:
	.size	_ZNSt10_Hash_impl4hashEPKvmm, .-_ZNSt10_Hash_impl4hashEPKvmm
	.section	.text._ZNKSt4hashINSt7__cxx1112basic_stringIcSt11char_traitsIcESaIcEEEEclERKS5_,"axG",@progbits,_ZNKSt4hashINSt7__cxx1112basic_stringIcSt11char_traitsIcESaIcEEEEclERKS5_,comdat
	.align 2
	.weak	_ZNKSt4hashINSt7__cxx1112basic_stringIcSt11char_traitsIcESaIcEEEEclERKS5_
	.type	_ZNKSt4hashINSt7__cxx1112basic_stringIcSt11char_traitsIcESaIcEEEEclERKS5_, @function
_ZNKSt4hashINSt7__cxx1112basic_stringIcSt11char_traitsIcESaIcEEEEclERKS5_:
.LFB1290:
	.cfi_startproc
	.cfi_personality 0x9b,DW.ref.__gxx_personality_v0
	.cfi_lsda 0x1b,.LLSDA1290
	endbr64
	pushq	%rbp
	.cfi_def_cfa_offset 16
	.cfi_offset 6, -16
	movq	%rsp, %rbp
	.cfi_def_cfa_register 6
	pushq	%rbx
	subq	$24, %rsp
	.cfi_offset 3, -24
	movq	%rdi, -24(%rbp)
	movq	%rsi, -32(%rbp)
	movq	-32(%rbp), %rax
	movq	%rax, %rdi
	call	_ZNKSt7__cxx1112basic_stringIcSt11char_traitsIcESaIcEE6lengthEv@PLT
	movq	%rax, %rbx
	movq	-32(%rbp), %rax
	movq	%rax, %rdi
	call	_ZNKSt7__cxx1112basic_stringIcSt11char_traitsIcESaIcEE4dataEv@PLT
	movl	$3339675911, %edx
	movq	%rbx, %rsi
	movq	%rax, %rdi
	call	_ZNSt10_Hash_impl4hashEPKvmm@PLT
	addq	$24, %rsp
	popq	%rbx
	popq	%rbp
	.cfi_def_cfa 7, 8
	ret
	.cfi_endproc
.LFE1290:
	.globl	__gxx_personality_v0
	.section	.gcc_except_table._ZNKSt4hashINSt7__cxx1112basic_stringIcSt11char_traitsIcESaIcEEEEclERKS5_,"aG",@progbits,_ZNKSt4hashINSt7__cxx1112basic_stringIcSt11char_traitsIcESaIcEEEEclERKS5_,comdat
.LLSDA1290:
	.byte	0xff
	.byte	0xff
	.byte	0x1
	.uleb128 .LLSDACSE1290-.LLSDACSB1290
.LLSDACSB1290:
.LLSDACSE1290:
	.section	.text._ZNKSt4hashINSt7__cxx1112basic_stringIcSt11char_traitsIcESaIcEEEEclERKS5_,"axG",@progbits,_ZNKSt4hashINSt7__cxx1112basic_stringIcSt11char_traitsIcESaIcEEEEclERKS5_,comdat
	.size	_ZNKSt4hashINSt7__cxx1112basic_stringIcSt11char_traitsIcESaIcEEEEclERKS5_, .-_ZNKSt4hashINSt7__cxx1112basic_stringIcSt11char_traitsIcESaIcEEEEclERKS5_
	.section	.rodata
	.align 4
	.type	_ZN9__gnu_cxxL21__default_lock_policyE, @object
	.size	_ZN9__gnu_cxxL21__default_lock_policyE, 4
_ZN9__gnu_cxxL21__default_lock_policyE:
	.long	2
	.type	_ZN6__pstl9execution2v1L3seqE, @object
	.size	_ZN6__pstl9execution2v1L3seqE, 1
_ZN6__pstl9execution2v1L3seqE:
	.zero	1
	.type	_ZN6__pstl9execution2v1L3parE, @object
	.size	_ZN6__pstl9execution2v1L3parE, 1
_ZN6__pstl9execution2v1L3parE:
	.zero	1
	.type	_ZN6__pstl9execution2v1L9par_unseqE, @object
	.size	_ZN6__pstl9execution2v1L9par_unseqE, 1
_ZN6__pstl9execution2v1L9par_unseqE:
	.zero	1
	.type	_ZN6__pstl9execution2v1L5unseqE, @object
	.size	_ZN6__pstl9execution2v1L5unseqE, 1
_ZN6__pstl9execution2v1L5unseqE:
	.zero	1
	.section	.text._ZNSt14_Function_baseC2Ev,"axG",@progbits,_ZNSt14_Function_baseC5Ev,comdat
	.align 2
	.weak	_ZNSt14_Function_baseC2Ev
	.type	_ZNSt14_Function_baseC2Ev, @function
_ZNSt14_Function_baseC2Ev:
.LFB2263:
	.cfi_startproc
	endbr64
	pushq	%rbp
	.cfi_def_cfa_offset 16
	.cfi_offset 6, -16
	movq	%rsp, %rbp
	.cfi_def_cfa_register 6
	movq	%rdi, -8(%rbp)
	movq	-8(%rbp), %rax
	movq	$0, 16(%rax)
	nop
	popq	%rbp
	.cfi_def_cfa 7, 8
	ret
	.cfi_endproc
.LFE2263:
	.size	_ZNSt14_Function_baseC2Ev, .-_ZNSt14_Function_baseC2Ev
	.weak	_ZNSt14_Function_baseC1Ev
	.set	_ZNSt14_Function_baseC1Ev,_ZNSt14_Function_baseC2Ev
	.section	.text._ZNSt14_Function_baseD2Ev,"axG",@progbits,_ZNSt14_Function_baseD5Ev,comdat
	.align 2
	.weak	_ZNSt14_Function_baseD2Ev
	.type	_ZNSt14_Function_baseD2Ev, @function
_ZNSt14_Function_baseD2Ev:
.LFB2266:
	.cfi_startproc
	.cfi_personality 0x9b,DW.ref.__gxx_personality_v0
	.cfi_lsda 0x1b,.LLSDA2266
	endbr64
	pushq	%rbp
	.cfi_def_cfa_offset 16
	.cfi_offset 6, -16
	movq	%rsp, %rbp
	.cfi_def_cfa_register 6
	subq	$16, %rsp
	movq	%rdi, -8(%rbp)
	movq	-8(%rbp), %rax
	movq	16(%rax), %rax
	testq	%rax, %rax
	je	.L25
	movq	-8(%rbp), %rax
	movq	16(%rax), %r8
	movq	-8(%rbp), %rcx
	movq	-8(%rbp), %rax
	movl	$3, %edx
	movq	%rcx, %rsi
	movq	%rax, %rdi
	call	*%r8
.L25:
	nop
	leave
	.cfi_def_cfa 7, 8
	ret
	.cfi_endproc
.LFE2266:
	.section	.gcc_except_table._ZNSt14_Function_baseD2Ev,"aG",@progbits,_ZNSt14_Function_baseD5Ev,comdat
.LLSDA2266:
	.byte	0xff
	.byte	0xff
	.byte	0x1
	.uleb128 .LLSDACSE2266-.LLSDACSB2266
.LLSDACSB2266:
.LLSDACSE2266:
	.section	.text._ZNSt14_Function_baseD2Ev,"axG",@progbits,_ZNSt14_Function_baseD5Ev,comdat
	.size	_ZNSt14_Function_baseD2Ev, .-_ZNSt14_Function_baseD2Ev
	.weak	_ZNSt14_Function_baseD1Ev
	.set	_ZNSt14_Function_baseD1Ev,_ZNSt14_Function_baseD2Ev
	.section	.text._ZNKSt14_Function_base8_M_emptyEv,"axG",@progbits,_ZNKSt14_Function_base8_M_emptyEv,comdat
	.align 2
	.weak	_ZNKSt14_Function_base8_M_emptyEv
	.type	_ZNKSt14_Function_base8_M_emptyEv, @function
_ZNKSt14_Function_base8_M_emptyEv:
.LFB2268:
	.cfi_startproc
	endbr64
	pushq	%rbp
	.cfi_def_cfa_offset 16
	.cfi_offset 6, -16
	movq	%rsp, %rbp
	.cfi_def_cfa_register 6
	movq	%rdi, -8(%rbp)
	movq	-8(%rbp), %rax
	movq	16(%rax), %rax
	testq	%rax, %rax
	sete	%al
	popq	%rbp
	.cfi_def_cfa 7, 8
	ret
	.cfi_endproc
.LFE2268:
	.size	_ZNKSt14_Function_base8_M_emptyEv, .-_ZNKSt14_Function_base8_M_emptyEv
	.section	.text._ZNSt8__detail15_Hash_node_baseC2Ev,"axG",@progbits,_ZNSt8__detail15_Hash_node_baseC5Ev,comdat
	.align 2
	.weak	_ZNSt8__detail15_Hash_node_baseC2Ev
	.type	_ZNSt8__detail15_Hash_node_baseC2Ev, @function
_ZNSt8__detail15_Hash_node_baseC2Ev:
.LFB2306:
	.cfi_startproc
	endbr64
	pushq	%rbp
	.cfi_def_cfa_offset 16
	.cfi_offset 6, -16
	movq	%rsp, %rbp
	.cfi_def_cfa_register 6
	movq	%rdi, -8(%rbp)
	movq	-8(%rbp), %rax
	movq	$0, (%rax)
	nop
	popq	%rbp
	.cfi_def_cfa 7, 8
	ret
	.cfi_endproc
.LFE2306:
	.size	_ZNSt8__detail15_Hash_node_baseC2Ev, .-_ZNSt8__detail15_Hash_node_baseC2Ev
	.weak	_ZNSt8__detail15_Hash_node_baseC1Ev
	.set	_ZNSt8__detail15_Hash_node_baseC1Ev,_ZNSt8__detail15_Hash_node_baseC2Ev
	.section	.text._ZNKSt8__detail18_Mod_range_hashingclEmm,"axG",@progbits,_ZNKSt8__detail18_Mod_range_hashingclEmm,comdat
	.align 2
	.weak	_ZNKSt8__detail18_Mod_range_hashingclEmm
	.type	_ZNKSt8__detail18_Mod_range_hashingclEmm, @function
_ZNKSt8__detail18_Mod_range_hashingclEmm:
.LFB2334:
	.cfi_startproc
	endbr64
	pushq	%rbp
	.cfi_def_cfa_offset 16
	.cfi_offset 6, -16
	movq	%rsp, %rbp
	.cfi_def_cfa_register 6
	movq	%rdi, -8(%rbp)
	movq	%rsi, -16(%rbp)
	movq	%rdx, -24(%rbp)
	movq	-16(%rbp), %rax
	movl	$0, %edx
	divq	-24(%rbp)
	movq	%rdx, %rax
	popq	%rbp
	.cfi_def_cfa 7, 8
	ret
	.cfi_endproc
.LFE2334:
	.size	_ZNKSt8__detail18_Mod_range_hashingclEmm, .-_ZNKSt8__detail18_Mod_range_hashingclEmm
	.section	.text._ZNSt8__detail20_Prime_rehash_policyC2Ef,"axG",@progbits,_ZNSt8__detail20_Prime_rehash_policyC5Ef,comdat
	.align 2
	.weak	_ZNSt8__detail20_Prime_rehash_policyC2Ef
	.type	_ZNSt8__detail20_Prime_rehash_policyC2Ef, @function
_ZNSt8__detail20_Prime_rehash_policyC2Ef:
.LFB2336:
	.cfi_startproc
	endbr64
	pushq	%rbp
	.cfi_def_cfa_offset 16
	.cfi_offset 6, -16
	movq	%rsp, %rbp
	.cfi_def_cfa_register 6
	movq	%rdi, -8(%rbp)
	movss	%xmm0, -12(%rbp)
	movq	-8(%rbp), %rax
	movss	-12(%rbp), %xmm0
	movss	%xmm0, (%rax)
	movq	-8(%rbp), %rax
	movq	$0, 8(%rax)
	nop
	popq	%rbp
	.cfi_def_cfa 7, 8
	ret
	.cfi_endproc
.LFE2336:
	.size	_ZNSt8__detail20_Prime_rehash_policyC2Ef, .-_ZNSt8__detail20_Prime_rehash_policyC2Ef
	.weak	_ZNSt8__detail20_Prime_rehash_policyC1Ef
	.set	_ZNSt8__detail20_Prime_rehash_policyC1Ef,_ZNSt8__detail20_Prime_rehash_policyC2Ef
	.section	.text._ZNKSt8__detail20_Prime_rehash_policy8_M_stateEv,"axG",@progbits,_ZNKSt8__detail20_Prime_rehash_policy8_M_stateEv,comdat
	.align 2
	.weak	_ZNKSt8__detail20_Prime_rehash_policy8_M_stateEv
	.type	_ZNKSt8__detail20_Prime_rehash_policy8_M_stateEv, @function
_ZNKSt8__detail20_Prime_rehash_policy8_M_stateEv:
.LFB2340:
	.cfi_startproc
	endbr64
	pushq	%rbp
	.cfi_def_cfa_offset 16
	.cfi_offset 6, -16
	movq	%rsp, %rbp
	.cfi_def_cfa_register 6
	movq	%rdi, -8(%rbp)
	movq	-8(%rbp), %rax
	movq	8(%rax), %rax
	popq	%rbp
	.cfi_def_cfa 7, 8
	ret
	.cfi_endproc
.LFE2340:
	.size	_ZNKSt8__detail20_Prime_rehash_policy8_M_stateEv, .-_ZNKSt8__detail20_Prime_rehash_policy8_M_stateEv
	.section	.text._ZNSt8__detail20_Prime_rehash_policy8_M_resetEm,"axG",@progbits,_ZNSt8__detail20_Prime_rehash_policy8_M_resetEm,comdat
	.align 2
	.weak	_ZNSt8__detail20_Prime_rehash_policy8_M_resetEm
	.type	_ZNSt8__detail20_Prime_rehash_policy8_M_resetEm, @function
_ZNSt8__detail20_Prime_rehash_policy8_M_resetEm:
.LFB2342:
	.cfi_startproc
	endbr64
	pushq	%rbp
	.cfi_def_cfa_offset 16
	.cfi_offset 6, -16
	movq	%rsp, %rbp
	.cfi_def_cfa_register 6
	movq	%rdi, -8(%rbp)
	movq	%rsi, -16(%rbp)
	movq	-8(%rbp), %rax
	movq	-16(%rbp), %rdx
	movq	%rdx, 8(%rax)
	nop
	popq	%rbp
	.cfi_def_cfa 7, 8
	ret
	.cfi_endproc
.LFE2342:
	.size	_ZNSt8__detail20_Prime_rehash_policy8_M_resetEm, .-_ZNSt8__detail20_Prime_rehash_policy8_M_resetEm
	.section	.text._ZSt3minImERKT_S2_S2_,"axG",@progbits,_ZSt3minImERKT_S2_S2_,comdat
	.weak	_ZSt3minImERKT_S2_S2_
	.type	_ZSt3minImERKT_S2_S2_, @function
_ZSt3minImERKT_S2_S2_:
.LFB2350:
	.cfi_startproc
	endbr64
	pushq	%rbp
	.cfi_def_cfa_offset 16
	.cfi_offset 6, -16
	movq	%rsp, %rbp
	.cfi_def_cfa_register 6
	movq	%rdi, -8(%rbp)
	movq	%rsi, -16(%rbp)
	movq	-16(%rbp), %rax
	movq	(%rax), %rdx
	movq	-8(%rbp), %rax
	movq	(%rax), %rax
	cmpq	%rax, %rdx
	jnb	.L36
	movq	-16(%rbp), %rax
	jmp	.L37
.L36:
	movq	-8(%rbp), %rax
.L37:
	popq	%rbp
	.cfi_def_cfa 7, 8
	ret
	.cfi_endproc
.LFE2350:
	.size	_ZSt3minImERKT_S2_S2_, .-_ZSt3minImERKT_S2_S2_
	.section	.text._ZNKSt10error_code5valueEv,"axG",@progbits,_ZNKSt10error_code5valueEv,comdat
	.align 2
	.weak	_ZNKSt10error_code5valueEv
	.type	_ZNKSt10error_code5valueEv, @function
_ZNKSt10error_code5valueEv:
.LFB3489:
	.cfi_startproc
	endbr64
	pushq	%rbp
	.cfi_def_cfa_offset 16
	.cfi_offset 6, -16
	movq	%rsp, %rbp
	.cfi_def_cfa_register 6
	movq	%rdi, -8(%rbp)
	movq	-8(%rbp), %rax
	movl	(%rax), %eax
	popq	%rbp
	.cfi_def_cfa 7, 8
	ret
	.cfi_endproc
.LFE3489:
	.size	_ZNKSt10error_code5valueEv, .-_ZNKSt10error_code5valueEv
	.section	.text._ZNKSt10error_code8categoryEv,"axG",@progbits,_ZNKSt10error_code8categoryEv,comdat
	.align 2
	.weak	_ZNKSt10error_code8categoryEv
	.type	_ZNKSt10error_code8categoryEv, @function
_ZNKSt10error_code8categoryEv:
.LFB3490:
	.cfi_startproc
	endbr64
	pushq	%rbp
	.cfi_def_cfa_offset 16
	.cfi_offset 6, -16
	movq	%rsp, %rbp
	.cfi_def_cfa_register 6
	movq	%rdi, -8(%rbp)
	movq	-8(%rbp), %rax
	movq	8(%rax), %rax
	popq	%rbp
	.cfi_def_cfa 7, 8
	ret
	.cfi_endproc
.LFE3490:
	.size	_ZNKSt10error_code8categoryEv, .-_ZNKSt10error_code8categoryEv
	.section	.text._ZNK5boost6system14error_category6failedEi,"axG",@progbits,_ZNK5boost6system14error_category6failedEi,comdat
	.align 2
	.weak	_ZNK5boost6system14error_category6failedEi
	.type	_ZNK5boost6system14error_category6failedEi, @function
_ZNK5boost6system14error_category6failedEi:
.LFB3725:
	.cfi_startproc
	endbr64
	pushq	%rbp
	.cfi_def_cfa_offset 16
	.cfi_offset 6, -16
	movq	%rsp, %rbp
	.cfi_def_cfa_register 6
	movq	%rdi, -8(%rbp)
	movl	%esi, -12(%rbp)
	cmpl	$0, -12(%rbp)
	setne	%al
	popq	%rbp
	.cfi_def_cfa 7, 8
	ret
	.cfi_endproc
.LFE3725:
	.size	_ZNK5boost6system14error_category6failedEi, .-_ZNK5boost6system14error_category6failedEi
	.section	.text._ZN5boost6systemeqERKNS0_14error_categoryES3_,"axG",@progbits,_ZN5boost6systemeqERKNS0_14error_categoryES3_,comdat
	.weak	_ZN5boost6systemeqERKNS0_14error_categoryES3_
	.type	_ZN5boost6systemeqERKNS0_14error_categoryES3_, @function
_ZN5boost6systemeqERKNS0_14error_categoryES3_:
.LFB3726:
	.cfi_startproc
	endbr64
	pushq	%rbp
	.cfi_def_cfa_offset 16
	.cfi_offset 6, -16
	movq	%rsp, %rbp
	.cfi_def_cfa_register 6
	movq	%rdi, -8(%rbp)
	movq	%rsi, -16(%rbp)
	movq	-16(%rbp), %rax
	movq	8(%rax), %rax
	testq	%rax, %rax
	jne	.L45
	movq	-8(%rbp), %rax
	cmpq	-16(%rbp), %rax
	sete	%al
	jmp	.L47
.L45:
	movq	-8(%rbp), %rax
	movq	8(%rax), %rdx
	movq	-16(%rbp), %rax
	movq	8(%rax), %rax
	cmpq	%rax, %rdx
	sete	%al
.L47:
	popq	%rbp
	.cfi_def_cfa 7, 8
	ret
	.cfi_endproc
.LFE3726:
	.size	_ZN5boost6systemeqERKNS0_14error_categoryES3_, .-_ZN5boost6systemeqERKNS0_14error_categoryES3_
	.section	.rodata
	.align 8
	.type	_ZN5boost6system6detailL19generic_category_idE, @object
	.size	_ZN5boost6system6detailL19generic_category_idE, 8
_ZN5boost6system6detailL19generic_category_idE:
	.quad	-5572340897628102704
	.align 8
	.type	_ZN5boost6system6detailL18system_category_idE, @object
	.size	_ZN5boost6system6detailL18system_category_idE, 8
_ZN5boost6system6detailL18system_category_idE:
	.quad	-5572340897628102703
	.align 8
	.type	_ZN5boost6system6detailL19interop_category_idE, @object
	.size	_ZN5boost6system6detailL19interop_category_idE, 8
_ZN5boost6system6detailL19interop_category_idE:
	.quad	-5572340897628102702
	.section	.text._ZN5boost6system6detail17strerror_r_helperEPKcS3_,"axG",@progbits,_ZN5boost6system6detail17strerror_r_helperEPKcS3_,comdat
	.weak	_ZN5boost6system6detail17strerror_r_helperEPKcS3_
	.type	_ZN5boost6system6detail17strerror_r_helperEPKcS3_, @function
_ZN5boost6system6detail17strerror_r_helperEPKcS3_:
.LFB3730:
	.cfi_startproc
	endbr64
	pushq	%rbp
	.cfi_def_cfa_offset 16
	.cfi_offset 6, -16
	movq	%rsp, %rbp
	.cfi_def_cfa_register 6
	movq	%rdi, -8(%rbp)
	movq	%rsi, -16(%rbp)
	movq	-8(%rbp), %rax
	popq	%rbp
	.cfi_def_cfa 7, 8
	ret
	.cfi_endproc
.LFE3730:
	.size	_ZN5boost6system6detail17strerror_r_helperEPKcS3_, .-_ZN5boost6system6detail17strerror_r_helperEPKcS3_
	.section	.text._ZN5boost6system6detail30generic_error_category_messageEiPcm,"axG",@progbits,_ZN5boost6system6detail30generic_error_category_messageEiPcm,comdat
	.weak	_ZN5boost6system6detail30generic_error_category_messageEiPcm
	.type	_ZN5boost6system6detail30generic_error_category_messageEiPcm, @function
_ZN5boost6system6detail30generic_error_category_messageEiPcm:
.LFB3732:
	.cfi_startproc
	endbr64
	pushq	%rbp
	.cfi_def_cfa_offset 16
	.cfi_offset 6, -16
	movq	%rsp, %rbp
	.cfi_def_cfa_register 6
	subq	$32, %rsp
	movl	%edi, -4(%rbp)
	movq	%rsi, -16(%rbp)
	movq	%rdx, -24(%rbp)
	movq	-24(%rbp), %rdx
	movq	-16(%rbp), %rcx
	movl	-4(%rbp), %eax
	movq	%rcx, %rsi
	movl	%eax, %edi
	call	strerror_r@PLT
	movq	%rax, %rdx
	movq	-16(%rbp), %rax
	movq	%rax, %rsi
	movq	%rdx, %rdi
	call	_ZN5boost6system6detail17strerror_r_helperEPKcS3_@PLT
	leave
	.cfi_def_cfa 7, 8
	ret
	.cfi_endproc
.LFE3732:
	.size	_ZN5boost6system6detail30generic_error_category_messageEiPcm, .-_ZN5boost6system6detail30generic_error_category_messageEiPcm
	.section	.text._ZN5boost6system6detail30generic_error_category_messageB5cxx11Ei,"axG",@progbits,_ZN5boost6system6detail30generic_error_category_messageB5cxx11Ei,comdat
	.weak	_ZN5boost6system6detail30generic_error_category_messageB5cxx11Ei
	.type	_ZN5boost6system6detail30generic_error_category_messageB5cxx11Ei, @function
_ZN5boost6system6detail30generic_error_category_messageB5cxx11Ei:
.LFB3733:
	.cfi_startproc
	.cfi_personality 0x9b,DW.ref.__gxx_personality_v0
	.cfi_lsda 0x1b,.LLSDA3733
	endbr64
	pushq	%rbp
	.cfi_def_cfa_offset 16
	.cfi_offset 6, -16
	movq	%rsp, %rbp
	.cfi_def_cfa_register 6
	pushq	%rbx
	subq	$184, %rsp
	.cfi_offset 3, -24
	movq	%rdi, -184(%rbp)
	movl	%esi, -188(%rbp)
	movq	%fs:40, %rax
	movq	%rax, -24(%rbp)
	xorl	%eax, %eax
	leaq	-161(%rbp), %rax
	movq	%rax, %rdi
	call	_ZNSaIcEC1Ev@PLT
	leaq	-160(%rbp), %rcx
	movl	-188(%rbp), %eax
	movl	$128, %edx
	movq	%rcx, %rsi
	movl	%eax, %edi
	call	_ZN5boost6system6detail30generic_error_category_messageEiPcm@PLT
	movq	%rax, %rcx
	leaq	-161(%rbp), %rdx
	movq	-184(%rbp), %rax
	movq	%rcx, %rsi
	movq	%rax, %rdi
.LEHB0:
	call	_ZNSt7__cxx1112basic_stringIcSt11char_traitsIcESaIcEEC1IS3_EEPKcRKS3_@PLT
.LEHE0:
	leaq	-161(%rbp), %rax
	movq	%rax, %rdi
	call	_ZNSaIcED1Ev@PLT
	movq	-24(%rbp), %rax
	xorq	%fs:40, %rax
	je	.L55
	jmp	.L57
.L56:
	endbr64
	movq	%rax, %rbx
	leaq	-161(%rbp), %rax
	movq	%rax, %rdi
	call	_ZNSaIcED1Ev@PLT
	movq	%rbx, %rax
	movq	%rax, %rdi
.LEHB1:
	call	_Unwind_Resume@PLT
.LEHE1:
.L57:
	call	__stack_chk_fail@PLT
.L55:
	movq	-184(%rbp), %rax
	addq	$184, %rsp
	popq	%rbx
	popq	%rbp
	.cfi_def_cfa 7, 8
	ret
	.cfi_endproc
.LFE3733:
	.section	.gcc_except_table._ZN5boost6system6detail30generic_error_category_messageB5cxx11Ei,"aG",@progbits,_ZN5boost6system6detail30generic_error_category_messageB5cxx11Ei,comdat
.LLSDA3733:
	.byte	0xff
	.byte	0xff
	.byte	0x1
	.uleb128 .LLSDACSE3733-.LLSDACSB3733
.LLSDACSB3733:
	.uleb128 .LEHB0-.LFB3733
	.uleb128 .LEHE0-.LEHB0
	.uleb128 .L56-.LFB3733
	.uleb128 0
	.uleb128 .LEHB1-.LFB3733
	.uleb128 .LEHE1-.LEHB1
	.uleb128 0
	.uleb128 0
.LLSDACSE3733:
	.section	.text._ZN5boost6system6detail30generic_error_category_messageB5cxx11Ei,"axG",@progbits,_ZN5boost6system6detail30generic_error_category_messageB5cxx11Ei,comdat
	.size	_ZN5boost6system6detail30generic_error_category_messageB5cxx11Ei, .-_ZN5boost6system6detail30generic_error_category_messageB5cxx11Ei
	.section	.rodata
.LC0:
	.string	"generic"
	.section	.text._ZNK5boost6system6detail22generic_error_category4nameEv,"axG",@progbits,_ZNK5boost6system6detail22generic_error_category4nameEv,comdat
	.align 2
	.weak	_ZNK5boost6system6detail22generic_error_category4nameEv
	.type	_ZNK5boost6system6detail22generic_error_category4nameEv, @function
_ZNK5boost6system6detail22generic_error_category4nameEv:
.LFB3737:
	.cfi_startproc
	endbr64
	pushq	%rbp
	.cfi_def_cfa_offset 16
	.cfi_offset 6, -16
	movq	%rsp, %rbp
	.cfi_def_cfa_register 6
	movq	%rdi, -8(%rbp)
	leaq	.LC0(%rip), %rax
	popq	%rbp
	.cfi_def_cfa 7, 8
	ret
	.cfi_endproc
.LFE3737:
	.size	_ZNK5boost6system6detail22generic_error_category4nameEv, .-_ZNK5boost6system6detail22generic_error_category4nameEv
	.section	.text._ZNK5boost6system6detail22generic_error_category7messageEiPcm,"axG",@progbits,_ZNK5boost6system6detail22generic_error_category7messageEiPcm,comdat
	.align 2
	.weak	_ZNK5boost6system6detail22generic_error_category7messageEiPcm
	.type	_ZNK5boost6system6detail22generic_error_category7messageEiPcm, @function
_ZNK5boost6system6detail22generic_error_category7messageEiPcm:
.LFB3738:
	.cfi_startproc
	endbr64
	pushq	%rbp
	.cfi_def_cfa_offset 16
	.cfi_offset 6, -16
	movq	%rsp, %rbp
	.cfi_def_cfa_register 6
	subq	$32, %rsp
	movq	%rdi, -8(%rbp)
	movl	%esi, -12(%rbp)
	movq	%rdx, -24(%rbp)
	movq	%rcx, -32(%rbp)
	movq	-32(%rbp), %rdx
	movq	-24(%rbp), %rcx
	movl	-12(%rbp), %eax
	movq	%rcx, %rsi
	movl	%eax, %edi
	call	_ZN5boost6system6detail30generic_error_category_messageEiPcm@PLT
	leave
	.cfi_def_cfa 7, 8
	ret
	.cfi_endproc
.LFE3738:
	.size	_ZNK5boost6system6detail22generic_error_category7messageEiPcm, .-_ZNK5boost6system6detail22generic_error_category7messageEiPcm
	.section	.text._ZNK5boost6system6detail22generic_error_category7messageB5cxx11Ei,"axG",@progbits,_ZNK5boost6system6detail22generic_error_category7messageB5cxx11Ei,comdat
	.align 2
	.weak	_ZNK5boost6system6detail22generic_error_category7messageB5cxx11Ei
	.type	_ZNK5boost6system6detail22generic_error_category7messageB5cxx11Ei, @function
_ZNK5boost6system6detail22generic_error_category7messageB5cxx11Ei:
.LFB3739:
	.cfi_startproc
	endbr64
	pushq	%rbp
	.cfi_def_cfa_offset 16
	.cfi_offset 6, -16
	movq	%rsp, %rbp
	.cfi_def_cfa_register 6
	subq	$48, %rsp
	movq	%rdi, -24(%rbp)
	movq	%rsi, -32(%rbp)
	movl	%edx, -36(%rbp)
	movq	%fs:40, %rax
	movq	%rax, -8(%rbp)
	xorl	%eax, %eax
	movq	-24(%rbp), %rax
	movl	-36(%rbp), %edx
	movl	%edx, %esi
	movq	%rax, %rdi
	call	_ZN5boost6system6detail30generic_error_category_messageB5cxx11Ei@PLT
	movq	-8(%rbp), %rax
	xorq	%fs:40, %rax
	je	.L64
	call	__stack_chk_fail@PLT
.L64:
	movq	-24(%rbp), %rax
	leave
	.cfi_def_cfa 7, 8
	ret
	.cfi_endproc
.LFE3739:
	.size	_ZNK5boost6system6detail22generic_error_category7messageB5cxx11Ei, .-_ZNK5boost6system6detail22generic_error_category7messageB5cxx11Ei
	.section	.text._ZN5boost6system6detail8snprintfEPcmPKcz,"axG",@progbits,_ZN5boost6system6detail8snprintfEPcmPKcz,comdat
	.weak	_ZN5boost6system6detail8snprintfEPcmPKcz
	.type	_ZN5boost6system6detail8snprintfEPcmPKcz, @function
_ZN5boost6system6detail8snprintfEPcmPKcz:
.LFB3741:
	.cfi_startproc
	endbr64
	pushq	%rbp
	.cfi_def_cfa_offset 16
	.cfi_offset 6, -16
	movq	%rsp, %rbp
	.cfi_def_cfa_register 6
	subq	$240, %rsp
	movq	%rdi, -216(%rbp)
	movq	%rsi, -224(%rbp)
	movq	%rdx, -232(%rbp)
	movq	%rcx, -152(%rbp)
	movq	%r8, -144(%rbp)
	movq	%r9, -136(%rbp)
	testb	%al, %al
	je	.L66
	movaps	%xmm0, -128(%rbp)
	movaps	%xmm1, -112(%rbp)
	movaps	%xmm2, -96(%rbp)
	movaps	%xmm3, -80(%rbp)
	movaps	%xmm4, -64(%rbp)
	movaps	%xmm5, -48(%rbp)
	movaps	%xmm6, -32(%rbp)
	movaps	%xmm7, -16(%rbp)
.L66:
	movq	%fs:40, %rax
	movq	%rax, -184(%rbp)
	xorl	%eax, %eax
	movl	$24, -208(%rbp)
	movl	$48, -204(%rbp)
	leaq	16(%rbp), %rax
	movq	%rax, -200(%rbp)
	leaq	-176(%rbp), %rax
	movq	%rax, -192(%rbp)
	leaq	-208(%rbp), %rcx
	movq	-232(%rbp), %rdx
	movq	-224(%rbp), %rsi
	movq	-216(%rbp), %rax
	movq	%rax, %rdi
	call	vsnprintf@PLT
	nop
	movq	-184(%rbp), %rax
	xorq	%fs:40, %rax
	je	.L67
	call	__stack_chk_fail@PLT
.L67:
	leave
	.cfi_def_cfa 7, 8
	ret
	.cfi_endproc
.LFE3741:
	.size	_ZN5boost6system6detail8snprintfEPcmPKcz, .-_ZN5boost6system6detail8snprintfEPcmPKcz
	.section	.text._ZN5boost6system6detail17generic_value_tagC2Ei,"axG",@progbits,_ZN5boost6system6detail17generic_value_tagC5Ei,comdat
	.align 2
	.weak	_ZN5boost6system6detail17generic_value_tagC2Ei
	.type	_ZN5boost6system6detail17generic_value_tagC2Ei, @function
_ZN5boost6system6detail17generic_value_tagC2Ei:
.LFB3744:
	.cfi_startproc
	endbr64
	pushq	%rbp
	.cfi_def_cfa_offset 16
	.cfi_offset 6, -16
	movq	%rsp, %rbp
	.cfi_def_cfa_register 6
	movq	%rdi, -8(%rbp)
	movl	%esi, -12(%rbp)
	movq	-8(%rbp), %rax
	movl	-12(%rbp), %edx
	movl	%edx, (%rax)
	nop
	popq	%rbp
	.cfi_def_cfa 7, 8
	ret
	.cfi_endproc
.LFE3744:
	.size	_ZN5boost6system6detail17generic_value_tagC2Ei, .-_ZN5boost6system6detail17generic_value_tagC2Ei
	.weak	_ZN5boost6system6detail17generic_value_tagC1Ei
	.set	_ZN5boost6system6detail17generic_value_tagC1Ei,_ZN5boost6system6detail17generic_value_tagC2Ei
	.section	.text._ZNK5boost6system15error_condition6cat_idEv,"axG",@progbits,_ZNK5boost6system15error_condition6cat_idEv,comdat
	.align 2
	.weak	_ZNK5boost6system15error_condition6cat_idEv
	.type	_ZNK5boost6system15error_condition6cat_idEv, @function
_ZNK5boost6system15error_condition6cat_idEv:
.LFB3746:
	.cfi_startproc
	endbr64
	pushq	%rbp
	.cfi_def_cfa_offset 16
	.cfi_offset 6, -16
	movq	%rsp, %rbp
	.cfi_def_cfa_register 6
	movq	%rdi, -8(%rbp)
	movq	-8(%rbp), %rax
	movq	8(%rax), %rax
	testq	%rax, %rax
	je	.L70
	movq	-8(%rbp), %rax
	movq	8(%rax), %rax
	movq	8(%rax), %rax
	jmp	.L72
.L70:
	movabsq	$-5572340897628102704, %rax
.L72:
	popq	%rbp
	.cfi_def_cfa 7, 8
	ret
	.cfi_endproc
.LFE3746:
	.size	_ZNK5boost6system15error_condition6cat_idEv, .-_ZNK5boost6system15error_condition6cat_idEv
	.section	.text._ZN5boost6system15error_conditionC2EiRKNS0_14error_categoryE,"axG",@progbits,_ZN5boost6system15error_conditionC5EiRKNS0_14error_categoryE,comdat
	.align 2
	.weak	_ZN5boost6system15error_conditionC2EiRKNS0_14error_categoryE
	.type	_ZN5boost6system15error_conditionC2EiRKNS0_14error_categoryE, @function
_ZN5boost6system15error_conditionC2EiRKNS0_14error_categoryE:
.LFB3751:
	.cfi_startproc
	endbr64
	pushq	%rbp
	.cfi_def_cfa_offset 16
	.cfi_offset 6, -16
	movq	%rsp, %rbp
	.cfi_def_cfa_register 6
	movq	%rdi, -8(%rbp)
	movl	%esi, -12(%rbp)
	movq	%rdx, -24(%rbp)
	movq	-8(%rbp), %rax
	movl	-12(%rbp), %edx
	movl	%edx, (%rax)
	movq	-8(%rbp), %rax
	movq	-24(%rbp), %rdx
	movq	%rdx, 8(%rax)
	nop
	popq	%rbp
	.cfi_def_cfa 7, 8
	ret
	.cfi_endproc
.LFE3751:
	.size	_ZN5boost6system15error_conditionC2EiRKNS0_14error_categoryE, .-_ZN5boost6system15error_conditionC2EiRKNS0_14error_categoryE
	.weak	_ZN5boost6system15error_conditionC1EiRKNS0_14error_categoryE
	.set	_ZN5boost6system15error_conditionC1EiRKNS0_14error_categoryE,_ZN5boost6system15error_conditionC2EiRKNS0_14error_categoryE
	.section	.text._ZN5boost6system15error_conditionC2ENS0_6detail17generic_value_tagE,"axG",@progbits,_ZN5boost6system15error_conditionC5ENS0_6detail17generic_value_tagE,comdat
	.align 2
	.weak	_ZN5boost6system15error_conditionC2ENS0_6detail17generic_value_tagE
	.type	_ZN5boost6system15error_conditionC2ENS0_6detail17generic_value_tagE, @function
_ZN5boost6system15error_conditionC2ENS0_6detail17generic_value_tagE:
.LFB3754:
	.cfi_startproc
	endbr64
	pushq	%rbp
	.cfi_def_cfa_offset 16
	.cfi_offset 6, -16
	movq	%rsp, %rbp
	.cfi_def_cfa_register 6
	movq	%rdi, -8(%rbp)
	movl	%esi, -12(%rbp)
	movl	-12(%rbp), %edx
	movq	-8(%rbp), %rax
	movl	%edx, (%rax)
	movq	-8(%rbp), %rax
	movq	$0, 8(%rax)
	nop
	popq	%rbp
	.cfi_def_cfa 7, 8
	ret
	.cfi_endproc
.LFE3754:
	.size	_ZN5boost6system15error_conditionC2ENS0_6detail17generic_value_tagE, .-_ZN5boost6system15error_conditionC2ENS0_6detail17generic_value_tagE
	.weak	_ZN5boost6system15error_conditionC1ENS0_6detail17generic_value_tagE
	.set	_ZN5boost6system15error_conditionC1ENS0_6detail17generic_value_tagE,_ZN5boost6system15error_conditionC2ENS0_6detail17generic_value_tagE
	.section	.text._ZN5boost6systemeqERKNS0_15error_conditionES3_,"axG",@progbits,_ZN5boost6systemeqERKNS0_15error_conditionES3_,comdat
	.weak	_ZN5boost6systemeqERKNS0_15error_conditionES3_
	.type	_ZN5boost6systemeqERKNS0_15error_conditionES3_, @function
_ZN5boost6systemeqERKNS0_15error_conditionES3_:
.LFB3767:
	.cfi_startproc
	endbr64
	pushq	%rbp
	.cfi_def_cfa_offset 16
	.cfi_offset 6, -16
	movq	%rsp, %rbp
	.cfi_def_cfa_register 6
	subq	$16, %rsp
	movq	%rdi, -8(%rbp)
	movq	%rsi, -16(%rbp)
	movq	-8(%rbp), %rax
	movl	(%rax), %edx
	movq	-16(%rbp), %rax
	movl	(%rax), %eax
	cmpl	%eax, %edx
	je	.L76
	movl	$0, %eax
	jmp	.L77
.L76:
	movq	-8(%rbp), %rax
	movq	8(%rax), %rax
	testq	%rax, %rax
	jne	.L78
	movq	-16(%rbp), %rax
	movq	%rax, %rdi
	call	_ZNK5boost6system15error_condition6cat_idEv@PLT
	movabsq	$-5572340897628102704, %rdx
	cmpq	%rdx, %rax
	sete	%al
	jmp	.L77
.L78:
	movq	-16(%rbp), %rax
	movq	8(%rax), %rax
	testq	%rax, %rax
	jne	.L79
	movq	-8(%rbp), %rax
	movq	%rax, %rdi
	call	_ZNK5boost6system15error_condition6cat_idEv@PLT
	movabsq	$-5572340897628102704, %rdx
	cmpq	%rdx, %rax
	sete	%al
	jmp	.L77
.L79:
	movq	-16(%rbp), %rax
	movq	8(%rax), %rdx
	movq	-8(%rbp), %rax
	movq	8(%rax), %rax
	movq	%rdx, %rsi
	movq	%rax, %rdi
	call	_ZN5boost6systemeqERKNS0_14error_categoryES3_@PLT
	nop
.L77:
	leave
	.cfi_def_cfa 7, 8
	ret
	.cfi_endproc
.LFE3767:
	.size	_ZN5boost6systemeqERKNS0_15error_conditionES3_, .-_ZN5boost6systemeqERKNS0_15error_conditionES3_
	.section	.rodata
.LC1:
	.string	"system"
	.section	.text._ZNK5boost6system6detail21system_error_category4nameEv,"axG",@progbits,_ZNK5boost6system6detail21system_error_category4nameEv,comdat
	.align 2
	.weak	_ZNK5boost6system6detail21system_error_category4nameEv
	.type	_ZNK5boost6system6detail21system_error_category4nameEv, @function
_ZNK5boost6system6detail21system_error_category4nameEv:
.LFB3780:
	.cfi_startproc
	endbr64
	pushq	%rbp
	.cfi_def_cfa_offset 16
	.cfi_offset 6, -16
	movq	%rsp, %rbp
	.cfi_def_cfa_register 6
	movq	%rdi, -8(%rbp)
	leaq	.LC1(%rip), %rax
	popq	%rbp
	.cfi_def_cfa 7, 8
	ret
	.cfi_endproc
.LFE3780:
	.size	_ZNK5boost6system6detail21system_error_category4nameEv, .-_ZNK5boost6system6detail21system_error_category4nameEv
	.section	.text._ZN5boost6system6detail29system_error_category_messageB5cxx11Ei,"axG",@progbits,_ZN5boost6system6detail29system_error_category_messageB5cxx11Ei,comdat
	.weak	_ZN5boost6system6detail29system_error_category_messageB5cxx11Ei
	.type	_ZN5boost6system6detail29system_error_category_messageB5cxx11Ei, @function
_ZN5boost6system6detail29system_error_category_messageB5cxx11Ei:
.LFB3782:
	.cfi_startproc
	endbr64
	pushq	%rbp
	.cfi_def_cfa_offset 16
	.cfi_offset 6, -16
	movq	%rsp, %rbp
	.cfi_def_cfa_register 6
	subq	$32, %rsp
	movq	%rdi, -24(%rbp)
	movl	%esi, -28(%rbp)
	movq	%fs:40, %rax
	movq	%rax, -8(%rbp)
	xorl	%eax, %eax
	movq	-24(%rbp), %rax
	movl	-28(%rbp), %edx
	movl	%edx, %esi
	movq	%rax, %rdi
	call	_ZN5boost6system6detail30generic_error_category_messageB5cxx11Ei@PLT
	movq	-8(%rbp), %rax
	xorq	%fs:40, %rax
	je	.L84
	call	__stack_chk_fail@PLT
.L84:
	movq	-24(%rbp), %rax
	leave
	.cfi_def_cfa 7, 8
	ret
	.cfi_endproc
.LFE3782:
	.size	_ZN5boost6system6detail29system_error_category_messageB5cxx11Ei, .-_ZN5boost6system6detail29system_error_category_messageB5cxx11Ei
	.section	.text._ZN5boost6system6detail29system_error_category_messageEiPcm,"axG",@progbits,_ZN5boost6system6detail29system_error_category_messageEiPcm,comdat
	.weak	_ZN5boost6system6detail29system_error_category_messageEiPcm
	.type	_ZN5boost6system6detail29system_error_category_messageEiPcm, @function
_ZN5boost6system6detail29system_error_category_messageEiPcm:
.LFB3783:
	.cfi_startproc
	endbr64
	pushq	%rbp
	.cfi_def_cfa_offset 16
	.cfi_offset 6, -16
	movq	%rsp, %rbp
	.cfi_def_cfa_register 6
	subq	$32, %rsp
	movl	%edi, -4(%rbp)
	movq	%rsi, -16(%rbp)
	movq	%rdx, -24(%rbp)
	movq	-24(%rbp), %rdx
	movq	-16(%rbp), %rcx
	movl	-4(%rbp), %eax
	movq	%rcx, %rsi
	movl	%eax, %edi
	call	_ZN5boost6system6detail30generic_error_category_messageEiPcm@PLT
	leave
	.cfi_def_cfa 7, 8
	ret
	.cfi_endproc
.LFE3783:
	.size	_ZN5boost6system6detail29system_error_category_messageEiPcm, .-_ZN5boost6system6detail29system_error_category_messageEiPcm
	.section	.text._ZNK5boost6system6detail21system_error_category23default_error_conditionEi,"axG",@progbits,_ZNK5boost6system6detail21system_error_category23default_error_conditionEi,comdat
	.align 2
	.weak	_ZNK5boost6system6detail21system_error_category23default_error_conditionEi
	.type	_ZNK5boost6system6detail21system_error_category23default_error_conditionEi, @function
_ZNK5boost6system6detail21system_error_category23default_error_conditionEi:
.LFB3784:
	.cfi_startproc
	endbr64
	pushq	%rbp
	.cfi_def_cfa_offset 16
	.cfi_offset 6, -16
	movq	%rsp, %rbp
	.cfi_def_cfa_register 6
	pushq	%rbx
	subq	$72, %rsp
	.cfi_offset 3, -24
	movq	%rdi, -72(%rbp)
	movl	%esi, -76(%rbp)
	movq	%fs:40, %rax
	movq	%rax, -24(%rbp)
	xorl	%eax, %eax
	movl	-76(%rbp), %edx
	leaq	-52(%rbp), %rax
	movl	%edx, %esi
	movq	%rax, %rdi
	call	_ZN5boost6system6detail17generic_value_tagC1Ei@PLT
	movl	-52(%rbp), %edx
	leaq	-48(%rbp), %rax
	movl	%edx, %esi
	movq	%rax, %rdi
	call	_ZN5boost6system15error_conditionC1ENS0_6detail17generic_value_tagE@PLT
	movq	-48(%rbp), %rax
	movq	-40(%rbp), %rdx
	movq	%rax, %rcx
	movq	%rdx, %rbx
	movq	-24(%rbp), %rax
	xorq	%fs:40, %rax
	je	.L89
	call	__stack_chk_fail@PLT
.L89:
	movl	%ecx, %eax
	addq	$72, %rsp
	popq	%rbx
	popq	%rbp
	.cfi_def_cfa 7, 8
	ret
	.cfi_endproc
.LFE3784:
	.size	_ZNK5boost6system6detail21system_error_category23default_error_conditionEi, .-_ZNK5boost6system6detail21system_error_category23default_error_conditionEi
	.section	.text._ZNK5boost6system6detail21system_error_category7messageB5cxx11Ei,"axG",@progbits,_ZNK5boost6system6detail21system_error_category7messageB5cxx11Ei,comdat
	.align 2
	.weak	_ZNK5boost6system6detail21system_error_category7messageB5cxx11Ei
	.type	_ZNK5boost6system6detail21system_error_category7messageB5cxx11Ei, @function
_ZNK5boost6system6detail21system_error_category7messageB5cxx11Ei:
.LFB3785:
	.cfi_startproc
	endbr64
	pushq	%rbp
	.cfi_def_cfa_offset 16
	.cfi_offset 6, -16
	movq	%rsp, %rbp
	.cfi_def_cfa_register 6
	subq	$48, %rsp
	movq	%rdi, -24(%rbp)
	movq	%rsi, -32(%rbp)
	movl	%edx, -36(%rbp)
	movq	%fs:40, %rax
	movq	%rax, -8(%rbp)
	xorl	%eax, %eax
	movq	-24(%rbp), %rax
	movl	-36(%rbp), %edx
	movl	%edx, %esi
	movq	%rax, %rdi
	call	_ZN5boost6system6detail29system_error_category_messageB5cxx11Ei@PLT
	movq	-8(%rbp), %rax
	xorq	%fs:40, %rax
	je	.L92
	call	__stack_chk_fail@PLT
.L92:
	movq	-24(%rbp), %rax
	leave
	.cfi_def_cfa 7, 8
	ret
	.cfi_endproc
.LFE3785:
	.size	_ZNK5boost6system6detail21system_error_category7messageB5cxx11Ei, .-_ZNK5boost6system6detail21system_error_category7messageB5cxx11Ei
	.section	.text._ZNK5boost6system6detail21system_error_category7messageEiPcm,"axG",@progbits,_ZNK5boost6system6detail21system_error_category7messageEiPcm,comdat
	.align 2
	.weak	_ZNK5boost6system6detail21system_error_category7messageEiPcm
	.type	_ZNK5boost6system6detail21system_error_category7messageEiPcm, @function
_ZNK5boost6system6detail21system_error_category7messageEiPcm:
.LFB3786:
	.cfi_startproc
	endbr64
	pushq	%rbp
	.cfi_def_cfa_offset 16
	.cfi_offset 6, -16
	movq	%rsp, %rbp
	.cfi_def_cfa_register 6
	subq	$32, %rsp
	movq	%rdi, -8(%rbp)
	movl	%esi, -12(%rbp)
	movq	%rdx, -24(%rbp)
	movq	%rcx, -32(%rbp)
	movq	-32(%rbp), %rdx
	movq	-24(%rbp), %rcx
	movl	-12(%rbp), %eax
	movq	%rcx, %rsi
	movl	%eax, %edi
	call	_ZN5boost6system6detail29system_error_category_messageEiPcm@PLT
	leave
	.cfi_def_cfa 7, 8
	ret
	.cfi_endproc
.LFE3786:
	.size	_ZNK5boost6system6detail21system_error_category7messageEiPcm, .-_ZNK5boost6system6detail21system_error_category7messageEiPcm
	.section	.rodata
.LC2:
	.string	"std:unknown"
	.section	.text._ZNK5boost6system6detail22interop_error_category4nameEv,"axG",@progbits,_ZNK5boost6system6detail22interop_error_category4nameEv,comdat
	.align 2
	.weak	_ZNK5boost6system6detail22interop_error_category4nameEv
	.type	_ZNK5boost6system6detail22interop_error_category4nameEv, @function
_ZNK5boost6system6detail22interop_error_category4nameEv:
.LFB3790:
	.cfi_startproc
	endbr64
	pushq	%rbp
	.cfi_def_cfa_offset 16
	.cfi_offset 6, -16
	movq	%rsp, %rbp
	.cfi_def_cfa_register 6
	movq	%rdi, -8(%rbp)
	leaq	.LC2(%rip), %rax
	popq	%rbp
	.cfi_def_cfa 7, 8
	ret
	.cfi_endproc
.LFE3790:
	.size	_ZNK5boost6system6detail22interop_error_category4nameEv, .-_ZNK5boost6system6detail22interop_error_category4nameEv
	.section	.rodata
.LC3:
	.string	"Unknown interop error %d"
	.section	.text._ZNK5boost6system6detail22interop_error_category7messageEiPcm,"axG",@progbits,_ZNK5boost6system6detail22interop_error_category7messageEiPcm,comdat
	.align 2
	.weak	_ZNK5boost6system6detail22interop_error_category7messageEiPcm
	.type	_ZNK5boost6system6detail22interop_error_category7messageEiPcm, @function
_ZNK5boost6system6detail22interop_error_category7messageEiPcm:
.LFB3791:
	.cfi_startproc
	endbr64
	pushq	%rbp
	.cfi_def_cfa_offset 16
	.cfi_offset 6, -16
	movq	%rsp, %rbp
	.cfi_def_cfa_register 6
	subq	$32, %rsp
	movq	%rdi, -8(%rbp)
	movl	%esi, -12(%rbp)
	movq	%rdx, -24(%rbp)
	movq	%rcx, -32(%rbp)
	movl	-12(%rbp), %edx
	movq	-32(%rbp), %rsi
	movq	-24(%rbp), %rax
	movl	%edx, %ecx
	leaq	.LC3(%rip), %rdx
	movq	%rax, %rdi
	movl	$0, %eax
	call	_ZN5boost6system6detail8snprintfEPcmPKcz@PLT
	movq	-24(%rbp), %rax
	leave
	.cfi_def_cfa 7, 8
	ret
	.cfi_endproc
.LFE3791:
	.size	_ZNK5boost6system6detail22interop_error_category7messageEiPcm, .-_ZNK5boost6system6detail22interop_error_category7messageEiPcm
	.section	.text._ZNK5boost6system6detail22interop_error_category7messageB5cxx11Ei,"axG",@progbits,_ZNK5boost6system6detail22interop_error_category7messageB5cxx11Ei,comdat
	.align 2
	.weak	_ZNK5boost6system6detail22interop_error_category7messageB5cxx11Ei
	.type	_ZNK5boost6system6detail22interop_error_category7messageB5cxx11Ei, @function
_ZNK5boost6system6detail22interop_error_category7messageB5cxx11Ei:
.LFB3792:
	.cfi_startproc
	.cfi_personality 0x9b,DW.ref.__gxx_personality_v0
	.cfi_lsda 0x1b,.LLSDA3792
	endbr64
	pushq	%rbp
	.cfi_def_cfa_offset 16
	.cfi_offset 6, -16
	movq	%rsp, %rbp
	.cfi_def_cfa_register 6
	pushq	%rbx
	subq	$120, %rsp
	.cfi_offset 3, -24
	movq	%rdi, -104(%rbp)
	movq	%rsi, -112(%rbp)
	movl	%edx, -116(%rbp)
	movq	%fs:40, %rax
	movq	%rax, -24(%rbp)
	xorl	%eax, %eax
	leaq	-81(%rbp), %rax
	movq	%rax, %rdi
	call	_ZNSaIcEC1Ev@PLT
	movq	-112(%rbp), %rax
	movq	(%rax), %rax
	addq	$40, %rax
	movq	(%rax), %r8
	leaq	-80(%rbp), %rdx
	movl	-116(%rbp), %esi
	movq	-112(%rbp), %rax
	movl	$48, %ecx
	movq	%rax, %rdi
	call	*%r8
	movq	%rax, %rcx
	leaq	-81(%rbp), %rdx
	movq	-104(%rbp), %rax
	movq	%rcx, %rsi
	movq	%rax, %rdi
.LEHB2:
	call	_ZNSt7__cxx1112basic_stringIcSt11char_traitsIcESaIcEEC1IS3_EEPKcRKS3_@PLT
.LEHE2:
	leaq	-81(%rbp), %rax
	movq	%rax, %rdi
	call	_ZNSaIcED1Ev@PLT
	movq	-24(%rbp), %rax
	xorq	%fs:40, %rax
	je	.L102
	jmp	.L104
.L103:
	endbr64
	movq	%rax, %rbx
	leaq	-81(%rbp), %rax
	movq	%rax, %rdi
	call	_ZNSaIcED1Ev@PLT
	movq	%rbx, %rax
	movq	%rax, %rdi
.LEHB3:
	call	_Unwind_Resume@PLT
.LEHE3:
.L104:
	call	__stack_chk_fail@PLT
.L102:
	movq	-104(%rbp), %rax
	addq	$120, %rsp
	popq	%rbx
	popq	%rbp
	.cfi_def_cfa 7, 8
	ret
	.cfi_endproc
.LFE3792:
	.section	.gcc_except_table._ZNK5boost6system6detail22interop_error_category7messageB5cxx11Ei,"aG",@progbits,_ZNK5boost6system6detail22interop_error_category7messageB5cxx11Ei,comdat
.LLSDA3792:
	.byte	0xff
	.byte	0xff
	.byte	0x1
	.uleb128 .LLSDACSE3792-.LLSDACSB3792
.LLSDACSB3792:
	.uleb128 .LEHB2-.LFB3792
	.uleb128 .LEHE2-.LEHB2
	.uleb128 .L103-.LFB3792
	.uleb128 0
	.uleb128 .LEHB3-.LFB3792
	.uleb128 .LEHE3-.LEHB3
	.uleb128 0
	.uleb128 0
.LLSDACSE3792:
	.section	.text._ZNK5boost6system6detail22interop_error_category7messageB5cxx11Ei,"axG",@progbits,_ZNK5boost6system6detail22interop_error_category7messageB5cxx11Ei,comdat
	.size	_ZNK5boost6system6detail22interop_error_category7messageB5cxx11Ei, .-_ZNK5boost6system6detail22interop_error_category7messageB5cxx11Ei
	.section	.text._ZNK5boost6system10error_code5valueEv,"axG",@progbits,_ZNK5boost6system10error_code5valueEv,comdat
	.align 2
	.weak	_ZNK5boost6system10error_code5valueEv
	.type	_ZNK5boost6system10error_code5valueEv, @function
_ZNK5boost6system10error_code5valueEv:
.LFB4227:
	.cfi_startproc
	endbr64
	pushq	%rbp
	.cfi_def_cfa_offset 16
	.cfi_offset 6, -16
	movq	%rsp, %rbp
	.cfi_def_cfa_register 6
	subq	$32, %rsp
	movq	%rdi, -24(%rbp)
	movq	-24(%rbp), %rax
	movq	16(%rax), %rax
	cmpq	$1, %rax
	je	.L106
	movq	-24(%rbp), %rax
	movl	(%rax), %eax
	jmp	.L107
.L106:
	movq	-24(%rbp), %rax
	movq	%rax, -8(%rbp)
	movq	-8(%rbp), %rax
	movq	%rax, %rdi
	call	_ZNKSt10error_code5valueEv@PLT
	movl	%eax, -16(%rbp)
	movq	-8(%rbp), %rax
	movq	%rax, %rdi
	call	_ZNKSt10error_code8categoryEv@PLT
	movq	%rax, %rcx
	movabsq	$79165176939955, %rdx
	movq	%rcx, %rax
	mulq	%rdx
	movq	%rcx, %rax
	subq	%rdx, %rax
	shrq	%rax
	addq	%rdx, %rax
	shrq	$20, %rax
	imulq	$2097143, %rax, %rax
	subq	%rax, %rcx
	movq	%rcx, %rax
	movl	%eax, -12(%rbp)
	movl	-12(%rbp), %eax
	imull	$1000, %eax, %edx
	movl	-16(%rbp), %eax
	addl	%edx, %eax
.L107:
	leave
	.cfi_def_cfa 7, 8
	ret
	.cfi_endproc
.LFE4227:
	.size	_ZNK5boost6system10error_code5valueEv, .-_ZNK5boost6system10error_code5valueEv
	.section	.text._ZNK5boost6system10error_code6equalsEiRKNS0_14error_categoryE,"axG",@progbits,_ZNK5boost6system10error_code6equalsEiRKNS0_14error_categoryE,comdat
	.align 2
	.weak	_ZNK5boost6system10error_code6equalsEiRKNS0_14error_categoryE
	.type	_ZNK5boost6system10error_code6equalsEiRKNS0_14error_categoryE, @function
_ZNK5boost6system10error_code6equalsEiRKNS0_14error_categoryE:
.LFB4236:
	.cfi_startproc
	endbr64
	pushq	%rbp
	.cfi_def_cfa_offset 16
	.cfi_offset 6, -16
	movq	%rsp, %rbp
	.cfi_def_cfa_register 6
	subq	$32, %rsp
	movq	%rdi, -8(%rbp)
	movl	%esi, -12(%rbp)
	movq	%rdx, -24(%rbp)
	movq	-8(%rbp), %rax
	movq	16(%rax), %rax
	testq	%rax, %rax
	jne	.L109
	cmpl	$0, -12(%rbp)
	jne	.L110
	movq	-24(%rbp), %rax
	movq	8(%rax), %rax
	movabsq	$-5572340897628102703, %rdx
	cmpq	%rdx, %rax
	jne	.L110
	movl	$1, %eax
	jmp	.L112
.L110:
	movl	$0, %eax
	jmp	.L112
.L109:
	movq	-8(%rbp), %rax
	movq	16(%rax), %rax
	cmpq	$1, %rax
	jne	.L113
	movq	-24(%rbp), %rax
	movq	8(%rax), %rax
	movabsq	$-5572340897628102702, %rdx
	cmpq	%rdx, %rax
	jne	.L114
	movq	-8(%rbp), %rax
	movq	%rax, %rdi
	call	_ZNK5boost6system10error_code5valueEv@PLT
	cmpl	%eax, -12(%rbp)
	jne	.L114
	movl	$1, %eax
	jmp	.L112
.L114:
	movl	$0, %eax
	jmp	.L112
.L113:
	movq	-8(%rbp), %rax
	movl	(%rax), %eax
	cmpl	%eax, -12(%rbp)
	jne	.L116
	movq	-8(%rbp), %rax
	movq	8(%rax), %rdx
	movq	-24(%rbp), %rax
	movq	%rdx, %rsi
	movq	%rax, %rdi
	call	_ZN5boost6systemeqERKNS0_14error_categoryES3_@PLT
	testb	%al, %al
	je	.L116
	movl	$1, %eax
	jmp	.L118
.L116:
	movl	$0, %eax
.L118:
	nop
.L112:
	leave
	.cfi_def_cfa 7, 8
	ret
	.cfi_endproc
.LFE4236:
	.size	_ZNK5boost6system10error_code6equalsEiRKNS0_14error_categoryE, .-_ZNK5boost6system10error_code6equalsEiRKNS0_14error_categoryE
	.section	.text._ZNK5boost6system14error_category23default_error_conditionEi,"axG",@progbits,_ZNK5boost6system14error_category23default_error_conditionEi,comdat
	.align 2
	.weak	_ZNK5boost6system14error_category23default_error_conditionEi
	.type	_ZNK5boost6system14error_category23default_error_conditionEi, @function
_ZNK5boost6system14error_category23default_error_conditionEi:
.LFB4263:
	.cfi_startproc
	endbr64
	pushq	%rbp
	.cfi_def_cfa_offset 16
	.cfi_offset 6, -16
	movq	%rsp, %rbp
	.cfi_def_cfa_register 6
	pushq	%rbx
	subq	$56, %rsp
	.cfi_offset 3, -24
	movq	%rdi, -56(%rbp)
	movl	%esi, -60(%rbp)
	movq	%fs:40, %rax
	movq	%rax, -24(%rbp)
	xorl	%eax, %eax
	movq	-56(%rbp), %rdx
	movl	-60(%rbp), %ecx
	leaq	-48(%rbp), %rax
	movl	%ecx, %esi
	movq	%rax, %rdi
	call	_ZN5boost6system15error_conditionC1EiRKNS0_14error_categoryE@PLT
	movq	-48(%rbp), %rax
	movq	-40(%rbp), %rdx
	movq	%rax, %rcx
	movq	%rdx, %rbx
	movq	-24(%rbp), %rax
	xorq	%fs:40, %rax
	je	.L121
	call	__stack_chk_fail@PLT
.L121:
	movl	%ecx, %eax
	addq	$56, %rsp
	popq	%rbx
	popq	%rbp
	.cfi_def_cfa 7, 8
	ret
	.cfi_endproc
.LFE4263:
	.size	_ZNK5boost6system14error_category23default_error_conditionEi, .-_ZNK5boost6system14error_category23default_error_conditionEi
	.section	.text._ZNK5boost6system14error_category10equivalentEiRKNS0_15error_conditionE,"axG",@progbits,_ZNK5boost6system14error_category10equivalentEiRKNS0_15error_conditionE,comdat
	.align 2
	.weak	_ZNK5boost6system14error_category10equivalentEiRKNS0_15error_conditionE
	.type	_ZNK5boost6system14error_category10equivalentEiRKNS0_15error_conditionE, @function
_ZNK5boost6system14error_category10equivalentEiRKNS0_15error_conditionE:
.LFB4264:
	.cfi_startproc
	endbr64
	pushq	%rbp
	.cfi_def_cfa_offset 16
	.cfi_offset 6, -16
	movq	%rsp, %rbp
	.cfi_def_cfa_register 6
	subq	$64, %rsp
	movq	%rdi, -40(%rbp)
	movl	%esi, -44(%rbp)
	movq	%rdx, -56(%rbp)
	movq	%fs:40, %rax
	movq	%rax, -8(%rbp)
	xorl	%eax, %eax
	movq	-40(%rbp), %rax
	movq	(%rax), %rax
	addq	$8, %rax
	movq	(%rax), %rcx
	movl	-44(%rbp), %edx
	movq	-40(%rbp), %rax
	movl	%edx, %esi
	movq	%rax, %rdi
	call	*%rcx
	movl	%eax, %ecx
	movq	%rdx, %rax
	movl	%ecx, -32(%rbp)
	movq	%rax, -24(%rbp)
	movq	-56(%rbp), %rdx
	leaq	-32(%rbp), %rax
	movq	%rdx, %rsi
	movq	%rax, %rdi
	call	_ZN5boost6systemeqERKNS0_15error_conditionES3_@PLT
	movq	-8(%rbp), %rsi
	xorq	%fs:40, %rsi
	je	.L124
	call	__stack_chk_fail@PLT
.L124:
	leave
	.cfi_def_cfa 7, 8
	ret
	.cfi_endproc
.LFE4264:
	.size	_ZNK5boost6system14error_category10equivalentEiRKNS0_15error_conditionE, .-_ZNK5boost6system14error_category10equivalentEiRKNS0_15error_conditionE
	.section	.text._ZNK5boost6system14error_category10equivalentERKNS0_10error_codeEi,"axG",@progbits,_ZNK5boost6system14error_category10equivalentERKNS0_10error_codeEi,comdat
	.align 2
	.weak	_ZNK5boost6system14error_category10equivalentERKNS0_10error_codeEi
	.type	_ZNK5boost6system14error_category10equivalentERKNS0_10error_codeEi, @function
_ZNK5boost6system14error_category10equivalentERKNS0_10error_codeEi:
.LFB4265:
	.cfi_startproc
	endbr64
	pushq	%rbp
	.cfi_def_cfa_offset 16
	.cfi_offset 6, -16
	movq	%rsp, %rbp
	.cfi_def_cfa_register 6
	subq	$32, %rsp
	movq	%rdi, -8(%rbp)
	movq	%rsi, -16(%rbp)
	movl	%edx, -20(%rbp)
	movq	-8(%rbp), %rdx
	movl	-20(%rbp), %ecx
	movq	-16(%rbp), %rax
	movl	%ecx, %esi
	movq	%rax, %rdi
	call	_ZNK5boost6system10error_code6equalsEiRKNS0_14error_categoryE@PLT
	leave
	.cfi_def_cfa 7, 8
	ret
	.cfi_endproc
.LFE4265:
	.size	_ZNK5boost6system14error_category10equivalentERKNS0_10error_codeEi, .-_ZNK5boost6system14error_category10equivalentERKNS0_10error_codeEi
	.section	.rodata
	.align 8
.LC4:
	.string	"No message text available for error %d"
	.section	.text._ZNK5boost6system14error_category7messageEiPcm,"axG",@progbits,_ZNK5boost6system14error_category7messageEiPcm,comdat
	.align 2
	.weak	_ZNK5boost6system14error_category7messageEiPcm
	.type	_ZNK5boost6system14error_category7messageEiPcm, @function
_ZNK5boost6system14error_category7messageEiPcm:
.LFB4266:
	.cfi_startproc
	.cfi_personality 0x9b,DW.ref.__gxx_personality_v0
	.cfi_lsda 0x1b,.LLSDA4266
	endbr64
	pushq	%rbp
	.cfi_def_cfa_offset 16
	.cfi_offset 6, -16
	movq	%rsp, %rbp
	.cfi_def_cfa_register 6
	pushq	%rbx
	subq	$88, %rsp
	.cfi_offset 3, -24
	movq	%rdi, -72(%rbp)
	movl	%esi, -76(%rbp)
	movq	%rdx, -88(%rbp)
	movq	%rcx, -96(%rbp)
	movq	%fs:40, %rax
	movq	%rax, -24(%rbp)
	xorl	%eax, %eax
	cmpq	$0, -96(%rbp)
	jne	.L128
	movq	-88(%rbp), %rbx
	jmp	.L129
.L128:
	cmpq	$1, -96(%rbp)
	jne	.L130
	movq	-88(%rbp), %rax
	movb	$0, (%rax)
	movq	-88(%rbp), %rbx
	jmp	.L129
.L130:
	movq	-72(%rbp), %rax
	movq	(%rax), %rax
	addq	$32, %rax
	movq	(%rax), %r8
	leaq	-64(%rbp), %rax
	movl	-76(%rbp), %edx
	movq	-72(%rbp), %rcx
	movq	%rcx, %rsi
	movq	%rax, %rdi
.LEHB4:
	call	*%r8
.LEHE4:
	movq	-96(%rbp), %rax
	leaq	-1(%rax), %rbx
	leaq	-64(%rbp), %rax
	movq	%rax, %rdi
	call	_ZNKSt7__cxx1112basic_stringIcSt11char_traitsIcESaIcEE5c_strEv@PLT
	movq	%rax, %rcx
	movq	-88(%rbp), %rax
	movq	%rbx, %rdx
	movq	%rcx, %rsi
	movq	%rax, %rdi
	call	strncpy@PLT
	movq	-96(%rbp), %rax
	leaq	-1(%rax), %rdx
	movq	-88(%rbp), %rax
	addq	%rdx, %rax
	movb	$0, (%rax)
	movq	-88(%rbp), %rbx
	leaq	-64(%rbp), %rax
	movq	%rax, %rdi
	call	_ZNSt7__cxx1112basic_stringIcSt11char_traitsIcESaIcEED1Ev@PLT
.L129:
	movq	%rbx, %rax
	movq	-24(%rbp), %rcx
	xorq	%fs:40, %rcx
	je	.L132
	jmp	.L134
.L133:
	endbr64
	movq	%rax, %rdi
	call	__cxa_begin_catch@PLT
	movl	-76(%rbp), %edx
	movq	-96(%rbp), %rsi
	movq	-88(%rbp), %rax
	movl	%edx, %ecx
	leaq	.LC4(%rip), %rdx
	movq	%rax, %rdi
	movl	$0, %eax
	call	_ZN5boost6system6detail8snprintfEPcmPKcz@PLT
	movq	-88(%rbp), %rbx
	call	__cxa_end_catch@PLT
	jmp	.L129
.L134:
	call	__stack_chk_fail@PLT
.L132:
	addq	$88, %rsp
	popq	%rbx
	popq	%rbp
	.cfi_def_cfa 7, 8
	ret
	.cfi_endproc
.LFE4266:
	.section	.gcc_except_table._ZNK5boost6system14error_category7messageEiPcm,"aG",@progbits,_ZNK5boost6system14error_category7messageEiPcm,comdat
	.align 4
.LLSDA4266:
	.byte	0xff
	.byte	0x9b
	.uleb128 .LLSDATT4266-.LLSDATTD4266
.LLSDATTD4266:
	.byte	0x1
	.uleb128 .LLSDACSE4266-.LLSDACSB4266
.LLSDACSB4266:
	.uleb128 .LEHB4-.LFB4266
	.uleb128 .LEHE4-.LEHB4
	.uleb128 .L133-.LFB4266
	.uleb128 0x1
.LLSDACSE4266:
	.byte	0x1
	.byte	0
	.align 4
	.long	0

.LLSDATT4266:
	.section	.text._ZNK5boost6system14error_category7messageEiPcm,"axG",@progbits,_ZNK5boost6system14error_category7messageEiPcm,comdat
	.size	_ZNK5boost6system14error_category7messageEiPcm, .-_ZNK5boost6system14error_category7messageEiPcm
	.local	_ZZL20static_subserver_mapvE3map
	.comm	_ZZL20static_subserver_mapvE3map,56,32
	.section	.text._ZNSt8__detail21_Hashtable_ebo_helperILi0ESaINS_10_Hash_nodeISt4pairIKNSt7__cxx1112basic_stringIcSt11char_traitsIcESaIcEEESt8functionIFSt10unique_ptrI19InspectionSubServerSt14default_deleteISC_EEvEEELb1EEEELb1EEC2Ev,"axG",@progbits,_ZNSt8__detail21_Hashtable_ebo_helperILi0ESaINS_10_Hash_nodeISt4pairIKNSt7__cxx1112basic_stringIcSt11char_traitsIcESaIcEEESt8functionIFSt10unique_ptrI19InspectionSubServerSt14default_deleteISC_EEvEEELb1EEEELb1EEC5Ev,comdat
	.align 2
	.weak	_ZNSt8__detail21_Hashtable_ebo_helperILi0ESaINS_10_Hash_nodeISt4pairIKNSt7__cxx1112basic_stringIcSt11char_traitsIcESaIcEEESt8functionIFSt10unique_ptrI19InspectionSubServerSt14default_deleteISC_EEvEEELb1EEEELb1EEC2Ev
	.type	_ZNSt8__detail21_Hashtable_ebo_helperILi0ESaINS_10_Hash_nodeISt4pairIKNSt7__cxx1112basic_stringIcSt11char_traitsIcESaIcEEESt8functionIFSt10unique_ptrI19InspectionSubServerSt14default_deleteISC_EEvEEELb1EEEELb1EEC2Ev, @function
_ZNSt8__detail21_Hashtable_ebo_helperILi0ESaINS_10_Hash_nodeISt4pairIKNSt7__cxx1112basic_stringIcSt11char_traitsIcESaIcEEESt8functionIFSt10unique_ptrI19InspectionSubServerSt14default_deleteISC_EEvEEELb1EEEELb1EEC2Ev:
.LFB5694:
	.cfi_startproc
	endbr64
	pushq	%rbp
	.cfi_def_cfa_offset 16
	.cfi_offset 6, -16
	movq	%rsp, %rbp
	.cfi_def_cfa_register 6
	subq	$16, %rsp
	movq	%rdi, -8(%rbp)
	movq	-8(%rbp), %rax
	movq	%rax, %rdi
	call	_ZNSaINSt8__detail10_Hash_nodeISt4pairIKNSt7__cxx1112basic_stringIcSt11char_traitsIcESaIcEEESt8functionIFSt10unique_ptrI19InspectionSubServerSt14default_deleteISB_EEvEEELb1EEEEC2Ev@PLT
	nop
	leave
	.cfi_def_cfa 7, 8
	ret
	.cfi_endproc
.LFE5694:
	.size	_ZNSt8__detail21_Hashtable_ebo_helperILi0ESaINS_10_Hash_nodeISt4pairIKNSt7__cxx1112basic_stringIcSt11char_traitsIcESaIcEEESt8functionIFSt10unique_ptrI19InspectionSubServerSt14default_deleteISC_EEvEEELb1EEEELb1EEC2Ev, .-_ZNSt8__detail21_Hashtable_ebo_helperILi0ESaINS_10_Hash_nodeISt4pairIKNSt7__cxx1112basic_stringIcSt11char_traitsIcESaIcEEESt8functionIFSt10unique_ptrI19InspectionSubServerSt14default_deleteISC_EEvEEELb1EEEELb1EEC2Ev
	.weak	_ZNSt8__detail21_Hashtable_ebo_helperILi0ESaINS_10_Hash_nodeISt4pairIKNSt7__cxx1112basic_stringIcSt11char_traitsIcESaIcEEESt8functionIFSt10unique_ptrI19InspectionSubServerSt14default_deleteISC_EEvEEELb1EEEELb1EEC1Ev
	.set	_ZNSt8__detail21_Hashtable_ebo_helperILi0ESaINS_10_Hash_nodeISt4pairIKNSt7__cxx1112basic_stringIcSt11char_traitsIcESaIcEEESt8functionIFSt10unique_ptrI19InspectionSubServerSt14default_deleteISC_EEvEEELb1EEEELb1EEC1Ev,_ZNSt8__detail21_Hashtable_ebo_helperILi0ESaINS_10_Hash_nodeISt4pairIKNSt7__cxx1112basic_stringIcSt11char_traitsIcESaIcEEESt8functionIFSt10unique_ptrI19InspectionSubServerSt14default_deleteISC_EEvEEELb1EEEELb1EEC2Ev
	.section	.text._ZNSt8__detail21_Hashtable_ebo_helperILi0ESaINS_10_Hash_nodeISt4pairIKNSt7__cxx1112basic_stringIcSt11char_traitsIcESaIcEEESt8functionIFSt10unique_ptrI19InspectionSubServerSt14default_deleteISC_EEvEEELb1EEEELb1EED2Ev,"axG",@progbits,_ZNSt8__detail21_Hashtable_ebo_helperILi0ESaINS_10_Hash_nodeISt4pairIKNSt7__cxx1112basic_stringIcSt11char_traitsIcESaIcEEESt8functionIFSt10unique_ptrI19InspectionSubServerSt14default_deleteISC_EEvEEELb1EEEELb1EED5Ev,comdat
	.align 2
	.weak	_ZNSt8__detail21_Hashtable_ebo_helperILi0ESaINS_10_Hash_nodeISt4pairIKNSt7__cxx1112basic_stringIcSt11char_traitsIcESaIcEEESt8functionIFSt10unique_ptrI19InspectionSubServerSt14default_deleteISC_EEvEEELb1EEEELb1EED2Ev
	.type	_ZNSt8__detail21_Hashtable_ebo_helperILi0ESaINS_10_Hash_nodeISt4pairIKNSt7__cxx1112basic_stringIcSt11char_traitsIcESaIcEEESt8functionIFSt10unique_ptrI19InspectionSubServerSt14default_deleteISC_EEvEEELb1EEEELb1EED2Ev, @function
_ZNSt8__detail21_Hashtable_ebo_helperILi0ESaINS_10_Hash_nodeISt4pairIKNSt7__cxx1112basic_stringIcSt11char_traitsIcESaIcEEESt8functionIFSt10unique_ptrI19InspectionSubServerSt14default_deleteISC_EEvEEELb1EEEELb1EED2Ev:
.LFB5697:
	.cfi_startproc
	endbr64
	pushq	%rbp
	.cfi_def_cfa_offset 16
	.cfi_offset 6, -16
	movq	%rsp, %rbp
	.cfi_def_cfa_register 6
	subq	$16, %rsp
	movq	%rdi, -8(%rbp)
	movq	-8(%rbp), %rax
	movq	%rax, %rdi
	call	_ZNSaINSt8__detail10_Hash_nodeISt4pairIKNSt7__cxx1112basic_stringIcSt11char_traitsIcESaIcEEESt8functionIFSt10unique_ptrI19InspectionSubServerSt14default_deleteISB_EEvEEELb1EEEED2Ev@PLT
	nop
	leave
	.cfi_def_cfa 7, 8
	ret
	.cfi_endproc
.LFE5697:
	.size	_ZNSt8__detail21_Hashtable_ebo_helperILi0ESaINS_10_Hash_nodeISt4pairIKNSt7__cxx1112basic_stringIcSt11char_traitsIcESaIcEEESt8functionIFSt10unique_ptrI19InspectionSubServerSt14default_deleteISC_EEvEEELb1EEEELb1EED2Ev, .-_ZNSt8__detail21_Hashtable_ebo_helperILi0ESaINS_10_Hash_nodeISt4pairIKNSt7__cxx1112basic_stringIcSt11char_traitsIcESaIcEEESt8functionIFSt10unique_ptrI19InspectionSubServerSt14default_deleteISC_EEvEEELb1EEEELb1EED2Ev
	.weak	_ZNSt8__detail21_Hashtable_ebo_helperILi0ESaINS_10_Hash_nodeISt4pairIKNSt7__cxx1112basic_stringIcSt11char_traitsIcESaIcEEESt8functionIFSt10unique_ptrI19InspectionSubServerSt14default_deleteISC_EEvEEELb1EEEELb1EED1Ev
	.set	_ZNSt8__detail21_Hashtable_ebo_helperILi0ESaINS_10_Hash_nodeISt4pairIKNSt7__cxx1112basic_stringIcSt11char_traitsIcESaIcEEESt8functionIFSt10unique_ptrI19InspectionSubServerSt14default_deleteISC_EEvEEELb1EEEELb1EED1Ev,_ZNSt8__detail21_Hashtable_ebo_helperILi0ESaINS_10_Hash_nodeISt4pairIKNSt7__cxx1112basic_stringIcSt11char_traitsIcESaIcEEESt8functionIFSt10unique_ptrI19InspectionSubServerSt14default_deleteISC_EEvEEELb1EEEELb1EED2Ev
	.section	.text._ZNSt8__detail16_Hashtable_allocISaINS_10_Hash_nodeISt4pairIKNSt7__cxx1112basic_stringIcSt11char_traitsIcESaIcEEESt8functionIFSt10unique_ptrI19InspectionSubServerSt14default_deleteISC_EEvEEELb1EEEEEC2Ev,"axG",@progbits,_ZNSt8__detail16_Hashtable_allocISaINS_10_Hash_nodeISt4pairIKNSt7__cxx1112basic_stringIcSt11char_traitsIcESaIcEEESt8functionIFSt10unique_ptrI19InspectionSubServerSt14default_deleteISC_EEvEEELb1EEEEEC5Ev,comdat
	.align 2
	.weak	_ZNSt8__detail16_Hashtable_allocISaINS_10_Hash_nodeISt4pairIKNSt7__cxx1112basic_stringIcSt11char_traitsIcESaIcEEESt8functionIFSt10unique_ptrI19InspectionSubServerSt14default_deleteISC_EEvEEELb1EEEEEC2Ev
	.type	_ZNSt8__detail16_Hashtable_allocISaINS_10_Hash_nodeISt4pairIKNSt7__cxx1112basic_stringIcSt11char_traitsIcESaIcEEESt8functionIFSt10unique_ptrI19InspectionSubServerSt14default_deleteISC_EEvEEELb1EEEEEC2Ev, @function
_ZNSt8__detail16_Hashtable_allocISaINS_10_Hash_nodeISt4pairIKNSt7__cxx1112basic_stringIcSt11char_traitsIcESaIcEEESt8functionIFSt10unique_ptrI19InspectionSubServerSt14default_deleteISC_EEvEEELb1EEEEEC2Ev:
.LFB5699:
	.cfi_startproc
	endbr64
	pushq	%rbp
	.cfi_def_cfa_offset 16
	.cfi_offset 6, -16
	movq	%rsp, %rbp
	.cfi_def_cfa_register 6
	subq	$16, %rsp
	movq	%rdi, -8(%rbp)
	movq	-8(%rbp), %rax
	movq	%rax, %rdi
	call	_ZNSt8__detail21_Hashtable_ebo_helperILi0ESaINS_10_Hash_nodeISt4pairIKNSt7__cxx1112basic_stringIcSt11char_traitsIcESaIcEEESt8functionIFSt10unique_ptrI19InspectionSubServerSt14default_deleteISC_EEvEEELb1EEEELb1EEC2Ev@PLT
	nop
	leave
	.cfi_def_cfa 7, 8
	ret
	.cfi_endproc
.LFE5699:
	.size	_ZNSt8__detail16_Hashtable_allocISaINS_10_Hash_nodeISt4pairIKNSt7__cxx1112basic_stringIcSt11char_traitsIcESaIcEEESt8functionIFSt10unique_ptrI19InspectionSubServerSt14default_deleteISC_EEvEEELb1EEEEEC2Ev, .-_ZNSt8__detail16_Hashtable_allocISaINS_10_Hash_nodeISt4pairIKNSt7__cxx1112basic_stringIcSt11char_traitsIcESaIcEEESt8functionIFSt10unique_ptrI19InspectionSubServerSt14default_deleteISC_EEvEEELb1EEEEEC2Ev
	.weak	_ZNSt8__detail16_Hashtable_allocISaINS_10_Hash_nodeISt4pairIKNSt7__cxx1112basic_stringIcSt11char_traitsIcESaIcEEESt8functionIFSt10unique_ptrI19InspectionSubServerSt14default_deleteISC_EEvEEELb1EEEEEC1Ev
	.set	_ZNSt8__detail16_Hashtable_allocISaINS_10_Hash_nodeISt4pairIKNSt7__cxx1112basic_stringIcSt11char_traitsIcESaIcEEESt8functionIFSt10unique_ptrI19InspectionSubServerSt14default_deleteISC_EEvEEELb1EEEEEC1Ev,_ZNSt8__detail16_Hashtable_allocISaINS_10_Hash_nodeISt4pairIKNSt7__cxx1112basic_stringIcSt11char_traitsIcESaIcEEESt8functionIFSt10unique_ptrI19InspectionSubServerSt14default_deleteISC_EEvEEELb1EEEEEC2Ev
	.section	.text._ZNSt8__detail16_Hashtable_allocISaINS_10_Hash_nodeISt4pairIKNSt7__cxx1112basic_stringIcSt11char_traitsIcESaIcEEESt8functionIFSt10unique_ptrI19InspectionSubServerSt14default_deleteISC_EEvEEELb1EEEEED2Ev,"axG",@progbits,_ZNSt8__detail16_Hashtable_allocISaINS_10_Hash_nodeISt4pairIKNSt7__cxx1112basic_stringIcSt11char_traitsIcESaIcEEESt8functionIFSt10unique_ptrI19InspectionSubServerSt14default_deleteISC_EEvEEELb1EEEEED5Ev,comdat
	.align 2
	.weak	_ZNSt8__detail16_Hashtable_allocISaINS_10_Hash_nodeISt4pairIKNSt7__cxx1112basic_stringIcSt11char_traitsIcESaIcEEESt8functionIFSt10unique_ptrI19InspectionSubServerSt14default_deleteISC_EEvEEELb1EEEEED2Ev
	.type	_ZNSt8__detail16_Hashtable_allocISaINS_10_Hash_nodeISt4pairIKNSt7__cxx1112basic_stringIcSt11char_traitsIcESaIcEEESt8functionIFSt10unique_ptrI19InspectionSubServerSt14default_deleteISC_EEvEEELb1EEEEED2Ev, @function
_ZNSt8__detail16_Hashtable_allocISaINS_10_Hash_nodeISt4pairIKNSt7__cxx1112basic_stringIcSt11char_traitsIcESaIcEEESt8functionIFSt10unique_ptrI19InspectionSubServerSt14default_deleteISC_EEvEEELb1EEEEED2Ev:
.LFB5702:
	.cfi_startproc
	endbr64
	pushq	%rbp
	.cfi_def_cfa_offset 16
	.cfi_offset 6, -16
	movq	%rsp, %rbp
	.cfi_def_cfa_register 6
	subq	$16, %rsp
	movq	%rdi, -8(%rbp)
	movq	-8(%rbp), %rax
	movq	%rax, %rdi
	call	_ZNSt8__detail21_Hashtable_ebo_helperILi0ESaINS_10_Hash_nodeISt4pairIKNSt7__cxx1112basic_stringIcSt11char_traitsIcESaIcEEESt8functionIFSt10unique_ptrI19InspectionSubServerSt14default_deleteISC_EEvEEELb1EEEELb1EED2Ev@PLT
	nop
	leave
	.cfi_def_cfa 7, 8
	ret
	.cfi_endproc
.LFE5702:
	.size	_ZNSt8__detail16_Hashtable_allocISaINS_10_Hash_nodeISt4pairIKNSt7__cxx1112basic_stringIcSt11char_traitsIcESaIcEEESt8functionIFSt10unique_ptrI19InspectionSubServerSt14default_deleteISC_EEvEEELb1EEEEED2Ev, .-_ZNSt8__detail16_Hashtable_allocISaINS_10_Hash_nodeISt4pairIKNSt7__cxx1112basic_stringIcSt11char_traitsIcESaIcEEESt8functionIFSt10unique_ptrI19InspectionSubServerSt14default_deleteISC_EEvEEELb1EEEEED2Ev
	.weak	_ZNSt8__detail16_Hashtable_allocISaINS_10_Hash_nodeISt4pairIKNSt7__cxx1112basic_stringIcSt11char_traitsIcESaIcEEESt8functionIFSt10unique_ptrI19InspectionSubServerSt14default_deleteISC_EEvEEELb1EEEEED1Ev
	.set	_ZNSt8__detail16_Hashtable_allocISaINS_10_Hash_nodeISt4pairIKNSt7__cxx1112basic_stringIcSt11char_traitsIcESaIcEEESt8functionIFSt10unique_ptrI19InspectionSubServerSt14default_deleteISC_EEvEEELb1EEEEED1Ev,_ZNSt8__detail16_Hashtable_allocISaINS_10_Hash_nodeISt4pairIKNSt7__cxx1112basic_stringIcSt11char_traitsIcESaIcEEESt8functionIFSt10unique_ptrI19InspectionSubServerSt14default_deleteISC_EEvEEELb1EEEEED2Ev
	.section	.text._ZNSt10_HashtableINSt7__cxx1112basic_stringIcSt11char_traitsIcESaIcEEESt4pairIKS5_St8functionIFSt10unique_ptrI19InspectionSubServerSt14default_deleteISA_EEvEEESaISG_ENSt8__detail10_Select1stESt8equal_toIS5_ESt4hashIS5_ENSI_18_Mod_range_hashingENSI_20_Default_ranged_hashENSI_20_Prime_rehash_policyENSI_17_Hashtable_traitsILb1ELb0ELb1EEEEC2Ev,"axG",@progbits,_ZNSt10_HashtableINSt7__cxx1112basic_stringIcSt11char_traitsIcESaIcEEESt4pairIKS5_St8functionIFSt10unique_ptrI19InspectionSubServerSt14default_deleteISA_EEvEEESaISG_ENSt8__detail10_Select1stESt8equal_toIS5_ESt4hashIS5_ENSI_18_Mod_range_hashingENSI_20_Default_ranged_hashENSI_20_Prime_rehash_policyENSI_17_Hashtable_traitsILb1ELb0ELb1EEEEC5Ev,comdat
	.align 2
	.weak	_ZNSt10_HashtableINSt7__cxx1112basic_stringIcSt11char_traitsIcESaIcEEESt4pairIKS5_St8functionIFSt10unique_ptrI19InspectionSubServerSt14default_deleteISA_EEvEEESaISG_ENSt8__detail10_Select1stESt8equal_toIS5_ESt4hashIS5_ENSI_18_Mod_range_hashingENSI_20_Default_ranged_hashENSI_20_Prime_rehash_policyENSI_17_Hashtable_traitsILb1ELb0ELb1EEEEC2Ev
	.type	_ZNSt10_HashtableINSt7__cxx1112basic_stringIcSt11char_traitsIcESaIcEEESt4pairIKS5_St8functionIFSt10unique_ptrI19InspectionSubServerSt14default_deleteISA_EEvEEESaISG_ENSt8__detail10_Select1stESt8equal_toIS5_ESt4hashIS5_ENSI_18_Mod_range_hashingENSI_20_Default_ranged_hashENSI_20_Prime_rehash_policyENSI_17_Hashtable_traitsILb1ELb0ELb1EEEEC2Ev, @function
_ZNSt10_HashtableINSt7__cxx1112basic_stringIcSt11char_traitsIcESaIcEEESt4pairIKS5_St8functionIFSt10unique_ptrI19InspectionSubServerSt14default_deleteISA_EEvEEESaISG_ENSt8__detail10_Select1stESt8equal_toIS5_ESt4hashIS5_ENSI_18_Mod_range_hashingENSI_20_Default_ranged_hashENSI_20_Prime_rehash_policyENSI_17_Hashtable_traitsILb1ELb0ELb1EEEEC2Ev:
.LFB5704:
	.cfi_startproc
	endbr64
	pushq	%rbp
	.cfi_def_cfa_offset 16
	.cfi_offset 6, -16
	movq	%rsp, %rbp
	.cfi_def_cfa_register 6
	subq	$16, %rsp
	movq	%rdi, -8(%rbp)
	movq	-8(%rbp), %rax
	movq	%rax, %rdi
	call	_ZNSt8__detail16_Hashtable_allocISaINS_10_Hash_nodeISt4pairIKNSt7__cxx1112basic_stringIcSt11char_traitsIcESaIcEEESt8functionIFSt10unique_ptrI19InspectionSubServerSt14default_deleteISC_EEvEEELb1EEEEEC2Ev@PLT
	movq	-8(%rbp), %rax
	leaq	48(%rax), %rdx
	movq	-8(%rbp), %rax
	movq	%rdx, (%rax)
	movq	-8(%rbp), %rax
	movq	$1, 8(%rax)
	movq	-8(%rbp), %rax
	addq	$16, %rax
	movq	%rax, %rdi
	call	_ZNSt8__detail15_Hash_node_baseC1Ev@PLT
	movq	-8(%rbp), %rax
	movq	$0, 24(%rax)
	movq	-8(%rbp), %rax
	addq	$32, %rax
	movss	.LC5(%rip), %xmm0
	movq	%rax, %rdi
	call	_ZNSt8__detail20_Prime_rehash_policyC1Ef@PLT
	movq	-8(%rbp), %rax
	movq	$0, 48(%rax)
	nop
	leave
	.cfi_def_cfa 7, 8
	ret
	.cfi_endproc
.LFE5704:
	.size	_ZNSt10_HashtableINSt7__cxx1112basic_stringIcSt11char_traitsIcESaIcEEESt4pairIKS5_St8functionIFSt10unique_ptrI19InspectionSubServerSt14default_deleteISA_EEvEEESaISG_ENSt8__detail10_Select1stESt8equal_toIS5_ESt4hashIS5_ENSI_18_Mod_range_hashingENSI_20_Default_ranged_hashENSI_20_Prime_rehash_policyENSI_17_Hashtable_traitsILb1ELb0ELb1EEEEC2Ev, .-_ZNSt10_HashtableINSt7__cxx1112basic_stringIcSt11char_traitsIcESaIcEEESt4pairIKS5_St8functionIFSt10unique_ptrI19InspectionSubServerSt14default_deleteISA_EEvEEESaISG_ENSt8__detail10_Select1stESt8equal_toIS5_ESt4hashIS5_ENSI_18_Mod_range_hashingENSI_20_Default_ranged_hashENSI_20_Prime_rehash_policyENSI_17_Hashtable_traitsILb1ELb0ELb1EEEEC2Ev
	.weak	_ZNSt10_HashtableINSt7__cxx1112basic_stringIcSt11char_traitsIcESaIcEEESt4pairIKS5_St8functionIFSt10unique_ptrI19InspectionSubServerSt14default_deleteISA_EEvEEESaISG_ENSt8__detail10_Select1stESt8equal_toIS5_ESt4hashIS5_ENSI_18_Mod_range_hashingENSI_20_Default_ranged_hashENSI_20_Prime_rehash_policyENSI_17_Hashtable_traitsILb1ELb0ELb1EEEEC1Ev
	.set	_ZNSt10_HashtableINSt7__cxx1112basic_stringIcSt11char_traitsIcESaIcEEESt4pairIKS5_St8functionIFSt10unique_ptrI19InspectionSubServerSt14default_deleteISA_EEvEEESaISG_ENSt8__detail10_Select1stESt8equal_toIS5_ESt4hashIS5_ENSI_18_Mod_range_hashingENSI_20_Default_ranged_hashENSI_20_Prime_rehash_policyENSI_17_Hashtable_traitsILb1ELb0ELb1EEEEC1Ev,_ZNSt10_HashtableINSt7__cxx1112basic_stringIcSt11char_traitsIcESaIcEEESt4pairIKS5_St8functionIFSt10unique_ptrI19InspectionSubServerSt14default_deleteISA_EEvEEESaISG_ENSt8__detail10_Select1stESt8equal_toIS5_ESt4hashIS5_ENSI_18_Mod_range_hashingENSI_20_Default_ranged_hashENSI_20_Prime_rehash_policyENSI_17_Hashtable_traitsILb1ELb0ELb1EEEEC2Ev
	.section	.text._ZNSt13unordered_mapINSt7__cxx1112basic_stringIcSt11char_traitsIcESaIcEEESt8functionIFSt10unique_ptrI19InspectionSubServerSt14default_deleteIS8_EEvEESt4hashIS5_ESt8equal_toIS5_ESaISt4pairIKS5_SD_EEEC2Ev,"axG",@progbits,_ZNSt13unordered_mapINSt7__cxx1112basic_stringIcSt11char_traitsIcESaIcEEESt8functionIFSt10unique_ptrI19InspectionSubServerSt14default_deleteIS8_EEvEESt4hashIS5_ESt8equal_toIS5_ESaISt4pairIKS5_SD_EEEC5Ev,comdat
	.align 2
	.weak	_ZNSt13unordered_mapINSt7__cxx1112basic_stringIcSt11char_traitsIcESaIcEEESt8functionIFSt10unique_ptrI19InspectionSubServerSt14default_deleteIS8_EEvEESt4hashIS5_ESt8equal_toIS5_ESaISt4pairIKS5_SD_EEEC2Ev
	.type	_ZNSt13unordered_mapINSt7__cxx1112basic_stringIcSt11char_traitsIcESaIcEEESt8functionIFSt10unique_ptrI19InspectionSubServerSt14default_deleteIS8_EEvEESt4hashIS5_ESt8equal_toIS5_ESaISt4pairIKS5_SD_EEEC2Ev, @function
_ZNSt13unordered_mapINSt7__cxx1112basic_stringIcSt11char_traitsIcESaIcEEESt8functionIFSt10unique_ptrI19InspectionSubServerSt14default_deleteIS8_EEvEESt4hashIS5_ESt8equal_toIS5_ESaISt4pairIKS5_SD_EEEC2Ev:
.LFB5706:
	.cfi_startproc
	endbr64
	pushq	%rbp
	.cfi_def_cfa_offset 16
	.cfi_offset 6, -16
	movq	%rsp, %rbp
	.cfi_def_cfa_register 6
	subq	$16, %rsp
	movq	%rdi, -8(%rbp)
	movq	-8(%rbp), %rax
	movq	%rax, %rdi
	call	_ZNSt10_HashtableINSt7__cxx1112basic_stringIcSt11char_traitsIcESaIcEEESt4pairIKS5_St8functionIFSt10unique_ptrI19InspectionSubServerSt14default_deleteISA_EEvEEESaISG_ENSt8__detail10_Select1stESt8equal_toIS5_ESt4hashIS5_ENSI_18_Mod_range_hashingENSI_20_Default_ranged_hashENSI_20_Prime_rehash_policyENSI_17_Hashtable_traitsILb1ELb0ELb1EEEEC1Ev@PLT
	nop
	leave
	.cfi_def_cfa 7, 8
	ret
	.cfi_endproc
.LFE5706:
	.size	_ZNSt13unordered_mapINSt7__cxx1112basic_stringIcSt11char_traitsIcESaIcEEESt8functionIFSt10unique_ptrI19InspectionSubServerSt14default_deleteIS8_EEvEESt4hashIS5_ESt8equal_toIS5_ESaISt4pairIKS5_SD_EEEC2Ev, .-_ZNSt13unordered_mapINSt7__cxx1112basic_stringIcSt11char_traitsIcESaIcEEESt8functionIFSt10unique_ptrI19InspectionSubServerSt14default_deleteIS8_EEvEESt4hashIS5_ESt8equal_toIS5_ESaISt4pairIKS5_SD_EEEC2Ev
	.weak	_ZNSt13unordered_mapINSt7__cxx1112basic_stringIcSt11char_traitsIcESaIcEEESt8functionIFSt10unique_ptrI19InspectionSubServerSt14default_deleteIS8_EEvEESt4hashIS5_ESt8equal_toIS5_ESaISt4pairIKS5_SD_EEEC1Ev
	.set	_ZNSt13unordered_mapINSt7__cxx1112basic_stringIcSt11char_traitsIcESaIcEEESt8functionIFSt10unique_ptrI19InspectionSubServerSt14default_deleteIS8_EEvEESt4hashIS5_ESt8equal_toIS5_ESaISt4pairIKS5_SD_EEEC1Ev,_ZNSt13unordered_mapINSt7__cxx1112basic_stringIcSt11char_traitsIcESaIcEEESt8functionIFSt10unique_ptrI19InspectionSubServerSt14default_deleteIS8_EEvEESt4hashIS5_ESt8equal_toIS5_ESaISt4pairIKS5_SD_EEEC2Ev
	.local	_ZGVZL20static_subserver_mapvE3map
	.comm	_ZGVZL20static_subserver_mapvE3map,8,8
	.section	.text._ZNSt13unordered_mapINSt7__cxx1112basic_stringIcSt11char_traitsIcESaIcEEESt8functionIFSt10unique_ptrI19InspectionSubServerSt14default_deleteIS8_EEvEESt4hashIS5_ESt8equal_toIS5_ESaISt4pairIKS5_SD_EEED2Ev,"axG",@progbits,_ZNSt13unordered_mapINSt7__cxx1112basic_stringIcSt11char_traitsIcESaIcEEESt8functionIFSt10unique_ptrI19InspectionSubServerSt14default_deleteIS8_EEvEESt4hashIS5_ESt8equal_toIS5_ESaISt4pairIKS5_SD_EEED5Ev,comdat
	.align 2
	.weak	_ZNSt13unordered_mapINSt7__cxx1112basic_stringIcSt11char_traitsIcESaIcEEESt8functionIFSt10unique_ptrI19InspectionSubServerSt14default_deleteIS8_EEvEESt4hashIS5_ESt8equal_toIS5_ESaISt4pairIKS5_SD_EEED2Ev
	.type	_ZNSt13unordered_mapINSt7__cxx1112basic_stringIcSt11char_traitsIcESaIcEEESt8functionIFSt10unique_ptrI19InspectionSubServerSt14default_deleteIS8_EEvEESt4hashIS5_ESt8equal_toIS5_ESaISt4pairIKS5_SD_EEED2Ev, @function
_ZNSt13unordered_mapINSt7__cxx1112basic_stringIcSt11char_traitsIcESaIcEEESt8functionIFSt10unique_ptrI19InspectionSubServerSt14default_deleteIS8_EEvEESt4hashIS5_ESt8equal_toIS5_ESaISt4pairIKS5_SD_EEED2Ev:
.LFB5709:
	.cfi_startproc
	endbr64
	pushq	%rbp
	.cfi_def_cfa_offset 16
	.cfi_offset 6, -16
	movq	%rsp, %rbp
	.cfi_def_cfa_register 6
	subq	$16, %rsp
	movq	%rdi, -8(%rbp)
	movq	-8(%rbp), %rax
	movq	%rax, %rdi
	call	_ZNSt10_HashtableINSt7__cxx1112basic_stringIcSt11char_traitsIcESaIcEEESt4pairIKS5_St8functionIFSt10unique_ptrI19InspectionSubServerSt14default_deleteISA_EEvEEESaISG_ENSt8__detail10_Select1stESt8equal_toIS5_ESt4hashIS5_ENSI_18_Mod_range_hashingENSI_20_Default_ranged_hashENSI_20_Prime_rehash_policyENSI_17_Hashtable_traitsILb1ELb0ELb1EEEED1Ev@PLT
	nop
	leave
	.cfi_def_cfa 7, 8
	ret
	.cfi_endproc
.LFE5709:
	.size	_ZNSt13unordered_mapINSt7__cxx1112basic_stringIcSt11char_traitsIcESaIcEEESt8functionIFSt10unique_ptrI19InspectionSubServerSt14default_deleteIS8_EEvEESt4hashIS5_ESt8equal_toIS5_ESaISt4pairIKS5_SD_EEED2Ev, .-_ZNSt13unordered_mapINSt7__cxx1112basic_stringIcSt11char_traitsIcESaIcEEESt8functionIFSt10unique_ptrI19InspectionSubServerSt14default_deleteIS8_EEvEESt4hashIS5_ESt8equal_toIS5_ESaISt4pairIKS5_SD_EEED2Ev
	.weak	_ZNSt13unordered_mapINSt7__cxx1112basic_stringIcSt11char_traitsIcESaIcEEESt8functionIFSt10unique_ptrI19InspectionSubServerSt14default_deleteIS8_EEvEESt4hashIS5_ESt8equal_toIS5_ESaISt4pairIKS5_SD_EEED1Ev
	.set	_ZNSt13unordered_mapINSt7__cxx1112basic_stringIcSt11char_traitsIcESaIcEEESt8functionIFSt10unique_ptrI19InspectionSubServerSt14default_deleteIS8_EEvEESt4hashIS5_ESt8equal_toIS5_ESaISt4pairIKS5_SD_EEED1Ev,_ZNSt13unordered_mapINSt7__cxx1112basic_stringIcSt11char_traitsIcESaIcEEESt8functionIFSt10unique_ptrI19InspectionSubServerSt14default_deleteIS8_EEvEESt4hashIS5_ESt8equal_toIS5_ESaISt4pairIKS5_SD_EEED2Ev
	.text
	.type	_ZL20static_subserver_mapv, @function
_ZL20static_subserver_mapv:
.LFB5689:
	.cfi_startproc
	endbr64
	pushq	%rbp
	.cfi_def_cfa_offset 16
	.cfi_offset 6, -16
	movq	%rsp, %rbp
	.cfi_def_cfa_register 6
	movzbl	_ZGVZL20static_subserver_mapvE3map(%rip), %eax
	testb	%al, %al
	sete	%al
	testb	%al, %al
	je	.L143
	leaq	_ZGVZL20static_subserver_mapvE3map(%rip), %rdi
	call	__cxa_guard_acquire@PLT
	testl	%eax, %eax
	setne	%al
	testb	%al, %al
	je	.L143
	movq	$0, _ZZL20static_subserver_mapvE3map(%rip)
	movq	$0, 8+_ZZL20static_subserver_mapvE3map(%rip)
	movq	$0, 16+_ZZL20static_subserver_mapvE3map(%rip)
	movq	$0, 24+_ZZL20static_subserver_mapvE3map(%rip)
	movq	$0, 32+_ZZL20static_subserver_mapvE3map(%rip)
	movq	$0, 40+_ZZL20static_subserver_mapvE3map(%rip)
	movq	$0, 48+_ZZL20static_subserver_mapvE3map(%rip)
	leaq	_ZZL20static_subserver_mapvE3map(%rip), %rdi
	call	_ZNSt13unordered_mapINSt7__cxx1112basic_stringIcSt11char_traitsIcESaIcEEESt8functionIFSt10unique_ptrI19InspectionSubServerSt14default_deleteIS8_EEvEESt4hashIS5_ESt8equal_toIS5_ESaISt4pairIKS5_SD_EEEC1Ev@PLT
	leaq	__dso_handle(%rip), %rdx
	leaq	_ZZL20static_subserver_mapvE3map(%rip), %rsi
	movq	_ZNSt13unordered_mapINSt7__cxx1112basic_stringIcSt11char_traitsIcESaIcEEESt8functionIFSt10unique_ptrI19InspectionSubServerSt14default_deleteIS8_EEvEESt4hashIS5_ESt8equal_toIS5_ESaISt4pairIKS5_SD_EEED1Ev@GOTPCREL(%rip), %rax
	movq	%rax, %rdi
	call	__cxa_atexit@PLT
	leaq	_ZGVZL20static_subserver_mapvE3map(%rip), %rdi
	call	__cxa_guard_release@PLT
.L143:
	leaq	_ZZL20static_subserver_mapvE3map(%rip), %rax
	popq	%rbp
	.cfi_def_cfa 7, 8
	ret
	.cfi_endproc
.LFE5689:
	.size	_ZL20static_subserver_mapv, .-_ZL20static_subserver_mapv
	.align 2
	.globl	_ZN17SubServerRegister6registERKNSt7__cxx1112basic_stringIcSt11char_traitsIcESaIcEEERKSt8functionIFSt10unique_ptrI19InspectionSubServerSt14default_deleteISA_EEvEE
	.type	_ZN17SubServerRegister6registERKNSt7__cxx1112basic_stringIcSt11char_traitsIcESaIcEEERKSt8functionIFSt10unique_ptrI19InspectionSubServerSt14default_deleteISA_EEvEE, @function
_ZN17SubServerRegister6registERKNSt7__cxx1112basic_stringIcSt11char_traitsIcESaIcEEERKSt8functionIFSt10unique_ptrI19InspectionSubServerSt14default_deleteISA_EEvEE:
.LFB5711:
	.cfi_startproc
	endbr64
	pushq	%rbp
	.cfi_def_cfa_offset 16
	.cfi_offset 6, -16
	movq	%rsp, %rbp
	.cfi_def_cfa_register 6
	subq	$32, %rsp
	movq	%rdi, -24(%rbp)
	movq	%rsi, -32(%rbp)
	call	_ZL20static_subserver_mapv
	movq	%rax, -8(%rbp)
	movq	-24(%rbp), %rdx
	movq	-8(%rbp), %rax
	movq	%rdx, %rsi
	movq	%rax, %rdi
	call	_ZNKSt13unordered_mapINSt7__cxx1112basic_stringIcSt11char_traitsIcESaIcEEESt8functionIFSt10unique_ptrI19InspectionSubServerSt14default_deleteIS8_EEvEESt4hashIS5_ESt8equal_toIS5_ESaISt4pairIKS5_SD_EEE5countERSJ_@PLT
	testq	%rax, %rax
	sete	%al
	testb	%al, %al
	je	.L147
	movq	-24(%rbp), %rdx
	movq	-8(%rbp), %rax
	movq	%rdx, %rsi
	movq	%rax, %rdi
	call	_ZNSt13unordered_mapINSt7__cxx1112basic_stringIcSt11char_traitsIcESaIcEEESt8functionIFSt10unique_ptrI19InspectionSubServerSt14default_deleteIS8_EEvEESt4hashIS5_ESt8equal_toIS5_ESaISt4pairIKS5_SD_EEEixERSJ_@PLT
	movq	%rax, %rdx
	movq	-32(%rbp), %rax
	movq	%rax, %rsi
	movq	%rdx, %rdi
	call	_ZNSt8functionIFSt10unique_ptrI19InspectionSubServerSt14default_deleteIS1_EEvEEaSERKS6_@PLT
.L147:
	nop
	leave
	.cfi_def_cfa 7, 8
	ret
	.cfi_endproc
.LFE5711:
	.size	_ZN17SubServerRegister6registERKNSt7__cxx1112basic_stringIcSt11char_traitsIcESaIcEEERKSt8functionIFSt10unique_ptrI19InspectionSubServerSt14default_deleteISA_EEvEE, .-_ZN17SubServerRegister6registERKNSt7__cxx1112basic_stringIcSt11char_traitsIcESaIcEEERKSt8functionIFSt10unique_ptrI19InspectionSubServerSt14default_deleteISA_EEvEE
	.section	.text._ZNSt12_Vector_baseISt4pairINSt7__cxx1112basic_stringIcSt11char_traitsIcESaIcEEESt8functionIFSt10unique_ptrI19InspectionSubServerSt14default_deleteIS9_EEvEEESaISF_EE12_Vector_implD2Ev,"axG",@progbits,_ZNSt12_Vector_baseISt4pairINSt7__cxx1112basic_stringIcSt11char_traitsIcESaIcEEESt8functionIFSt10unique_ptrI19InspectionSubServerSt14default_deleteIS9_EEvEEESaISF_EE12_Vector_implD5Ev,comdat
	.align 2
	.weak	_ZNSt12_Vector_baseISt4pairINSt7__cxx1112basic_stringIcSt11char_traitsIcESaIcEEESt8functionIFSt10unique_ptrI19InspectionSubServerSt14default_deleteIS9_EEvEEESaISF_EE12_Vector_implD2Ev
	.type	_ZNSt12_Vector_baseISt4pairINSt7__cxx1112basic_stringIcSt11char_traitsIcESaIcEEESt8functionIFSt10unique_ptrI19InspectionSubServerSt14default_deleteIS9_EEvEEESaISF_EE12_Vector_implD2Ev, @function
_ZNSt12_Vector_baseISt4pairINSt7__cxx1112basic_stringIcSt11char_traitsIcESaIcEEESt8functionIFSt10unique_ptrI19InspectionSubServerSt14default_deleteIS9_EEvEEESaISF_EE12_Vector_implD2Ev:
.LFB5716:
	.cfi_startproc
	endbr64
	pushq	%rbp
	.cfi_def_cfa_offset 16
	.cfi_offset 6, -16
	movq	%rsp, %rbp
	.cfi_def_cfa_register 6
	subq	$16, %rsp
	movq	%rdi, -8(%rbp)
	movq	-8(%rbp), %rax
	movq	%rax, %rdi
	call	_ZNSaISt4pairINSt7__cxx1112basic_stringIcSt11char_traitsIcESaIcEEESt8functionIFSt10unique_ptrI19InspectionSubServerSt14default_deleteIS8_EEvEEEED2Ev@PLT
	nop
	leave
	.cfi_def_cfa 7, 8
	ret
	.cfi_endproc
.LFE5716:
	.size	_ZNSt12_Vector_baseISt4pairINSt7__cxx1112basic_stringIcSt11char_traitsIcESaIcEEESt8functionIFSt10unique_ptrI19InspectionSubServerSt14default_deleteIS9_EEvEEESaISF_EE12_Vector_implD2Ev, .-_ZNSt12_Vector_baseISt4pairINSt7__cxx1112basic_stringIcSt11char_traitsIcESaIcEEESt8functionIFSt10unique_ptrI19InspectionSubServerSt14default_deleteIS9_EEvEEESaISF_EE12_Vector_implD2Ev
	.weak	_ZNSt12_Vector_baseISt4pairINSt7__cxx1112basic_stringIcSt11char_traitsIcESaIcEEESt8functionIFSt10unique_ptrI19InspectionSubServerSt14default_deleteIS9_EEvEEESaISF_EE12_Vector_implD1Ev
	.set	_ZNSt12_Vector_baseISt4pairINSt7__cxx1112basic_stringIcSt11char_traitsIcESaIcEEESt8functionIFSt10unique_ptrI19InspectionSubServerSt14default_deleteIS9_EEvEEESaISF_EE12_Vector_implD1Ev,_ZNSt12_Vector_baseISt4pairINSt7__cxx1112basic_stringIcSt11char_traitsIcESaIcEEESt8functionIFSt10unique_ptrI19InspectionSubServerSt14default_deleteIS9_EEvEEESaISF_EE12_Vector_implD2Ev
	.section	.text._ZNSt12_Vector_baseISt4pairINSt7__cxx1112basic_stringIcSt11char_traitsIcESaIcEEESt8functionIFSt10unique_ptrI19InspectionSubServerSt14default_deleteIS9_EEvEEESaISF_EEC2Ev,"axG",@progbits,_ZNSt12_Vector_baseISt4pairINSt7__cxx1112basic_stringIcSt11char_traitsIcESaIcEEESt8functionIFSt10unique_ptrI19InspectionSubServerSt14default_deleteIS9_EEvEEESaISF_EEC5Ev,comdat
	.align 2
	.weak	_ZNSt12_Vector_baseISt4pairINSt7__cxx1112basic_stringIcSt11char_traitsIcESaIcEEESt8functionIFSt10unique_ptrI19InspectionSubServerSt14default_deleteIS9_EEvEEESaISF_EEC2Ev
	.type	_ZNSt12_Vector_baseISt4pairINSt7__cxx1112basic_stringIcSt11char_traitsIcESaIcEEESt8functionIFSt10unique_ptrI19InspectionSubServerSt14default_deleteIS9_EEvEEESaISF_EEC2Ev, @function
_ZNSt12_Vector_baseISt4pairINSt7__cxx1112basic_stringIcSt11char_traitsIcESaIcEEESt8functionIFSt10unique_ptrI19InspectionSubServerSt14default_deleteIS9_EEvEEESaISF_EEC2Ev:
.LFB5718:
	.cfi_startproc
	endbr64
	pushq	%rbp
	.cfi_def_cfa_offset 16
	.cfi_offset 6, -16
	movq	%rsp, %rbp
	.cfi_def_cfa_register 6
	subq	$16, %rsp
	movq	%rdi, -8(%rbp)
	movq	-8(%rbp), %rax
	movq	%rax, %rdi
	call	_ZNSt12_Vector_baseISt4pairINSt7__cxx1112basic_stringIcSt11char_traitsIcESaIcEEESt8functionIFSt10unique_ptrI19InspectionSubServerSt14default_deleteIS9_EEvEEESaISF_EE12_Vector_implC1Ev@PLT
	nop
	leave
	.cfi_def_cfa 7, 8
	ret
	.cfi_endproc
.LFE5718:
	.size	_ZNSt12_Vector_baseISt4pairINSt7__cxx1112basic_stringIcSt11char_traitsIcESaIcEEESt8functionIFSt10unique_ptrI19InspectionSubServerSt14default_deleteIS9_EEvEEESaISF_EEC2Ev, .-_ZNSt12_Vector_baseISt4pairINSt7__cxx1112basic_stringIcSt11char_traitsIcESaIcEEESt8functionIFSt10unique_ptrI19InspectionSubServerSt14default_deleteIS9_EEvEEESaISF_EEC2Ev
	.weak	_ZNSt12_Vector_baseISt4pairINSt7__cxx1112basic_stringIcSt11char_traitsIcESaIcEEESt8functionIFSt10unique_ptrI19InspectionSubServerSt14default_deleteIS9_EEvEEESaISF_EEC1Ev
	.set	_ZNSt12_Vector_baseISt4pairINSt7__cxx1112basic_stringIcSt11char_traitsIcESaIcEEESt8functionIFSt10unique_ptrI19InspectionSubServerSt14default_deleteIS9_EEvEEESaISF_EEC1Ev,_ZNSt12_Vector_baseISt4pairINSt7__cxx1112basic_stringIcSt11char_traitsIcESaIcEEESt8functionIFSt10unique_ptrI19InspectionSubServerSt14default_deleteIS9_EEvEEESaISF_EEC2Ev
	.section	.text._ZNSt6vectorISt4pairINSt7__cxx1112basic_stringIcSt11char_traitsIcESaIcEEESt8functionIFSt10unique_ptrI19InspectionSubServerSt14default_deleteIS9_EEvEEESaISF_EEC2Ev,"axG",@progbits,_ZNSt6vectorISt4pairINSt7__cxx1112basic_stringIcSt11char_traitsIcESaIcEEESt8functionIFSt10unique_ptrI19InspectionSubServerSt14default_deleteIS9_EEvEEESaISF_EEC5Ev,comdat
	.align 2
	.weak	_ZNSt6vectorISt4pairINSt7__cxx1112basic_stringIcSt11char_traitsIcESaIcEEESt8functionIFSt10unique_ptrI19InspectionSubServerSt14default_deleteIS9_EEvEEESaISF_EEC2Ev
	.type	_ZNSt6vectorISt4pairINSt7__cxx1112basic_stringIcSt11char_traitsIcESaIcEEESt8functionIFSt10unique_ptrI19InspectionSubServerSt14default_deleteIS9_EEvEEESaISF_EEC2Ev, @function
_ZNSt6vectorISt4pairINSt7__cxx1112basic_stringIcSt11char_traitsIcESaIcEEESt8functionIFSt10unique_ptrI19InspectionSubServerSt14default_deleteIS9_EEvEEESaISF_EEC2Ev:
.LFB5720:
	.cfi_startproc
	endbr64
	pushq	%rbp
	.cfi_def_cfa_offset 16
	.cfi_offset 6, -16
	movq	%rsp, %rbp
	.cfi_def_cfa_register 6
	subq	$16, %rsp
	movq	%rdi, -8(%rbp)
	movq	-8(%rbp), %rax
	movq	%rax, %rdi
	call	_ZNSt12_Vector_baseISt4pairINSt7__cxx1112basic_stringIcSt11char_traitsIcESaIcEEESt8functionIFSt10unique_ptrI19InspectionSubServerSt14default_deleteIS9_EEvEEESaISF_EEC2Ev@PLT
	nop
	leave
	.cfi_def_cfa 7, 8
	ret
	.cfi_endproc
.LFE5720:
	.size	_ZNSt6vectorISt4pairINSt7__cxx1112basic_stringIcSt11char_traitsIcESaIcEEESt8functionIFSt10unique_ptrI19InspectionSubServerSt14default_deleteIS9_EEvEEESaISF_EEC2Ev, .-_ZNSt6vectorISt4pairINSt7__cxx1112basic_stringIcSt11char_traitsIcESaIcEEESt8functionIFSt10unique_ptrI19InspectionSubServerSt14default_deleteIS9_EEvEEESaISF_EEC2Ev
	.weak	_ZNSt6vectorISt4pairINSt7__cxx1112basic_stringIcSt11char_traitsIcESaIcEEESt8functionIFSt10unique_ptrI19InspectionSubServerSt14default_deleteIS9_EEvEEESaISF_EEC1Ev
	.set	_ZNSt6vectorISt4pairINSt7__cxx1112basic_stringIcSt11char_traitsIcESaIcEEESt8functionIFSt10unique_ptrI19InspectionSubServerSt14default_deleteIS9_EEvEEESaISF_EEC1Ev,_ZNSt6vectorISt4pairINSt7__cxx1112basic_stringIcSt11char_traitsIcESaIcEEESt8functionIFSt10unique_ptrI19InspectionSubServerSt14default_deleteIS9_EEvEEESaISF_EEC2Ev
	.section	.text._ZNSt8functionIFSt10unique_ptrI19InspectionSubServerSt14default_deleteIS1_EEvEED2Ev,"axG",@progbits,_ZNSt8functionIFSt10unique_ptrI19InspectionSubServerSt14default_deleteIS1_EEvEED5Ev,comdat
	.align 2
	.weak	_ZNSt8functionIFSt10unique_ptrI19InspectionSubServerSt14default_deleteIS1_EEvEED2Ev
	.type	_ZNSt8functionIFSt10unique_ptrI19InspectionSubServerSt14default_deleteIS1_EEvEED2Ev, @function
_ZNSt8functionIFSt10unique_ptrI19InspectionSubServerSt14default_deleteIS1_EEvEED2Ev:
.LFB5726:
	.cfi_startproc
	endbr64
	pushq	%rbp
	.cfi_def_cfa_offset 16
	.cfi_offset 6, -16
	movq	%rsp, %rbp
	.cfi_def_cfa_register 6
	subq	$16, %rsp
	movq	%rdi, -8(%rbp)
	movq	-8(%rbp), %rax
	movq	%rax, %rdi
	call	_ZNSt14_Function_baseD2Ev@PLT
	nop
	leave
	.cfi_def_cfa 7, 8
	ret
	.cfi_endproc
.LFE5726:
	.size	_ZNSt8functionIFSt10unique_ptrI19InspectionSubServerSt14default_deleteIS1_EEvEED2Ev, .-_ZNSt8functionIFSt10unique_ptrI19InspectionSubServerSt14default_deleteIS1_EEvEED2Ev
	.weak	_ZNSt8functionIFSt10unique_ptrI19InspectionSubServerSt14default_deleteIS1_EEvEED1Ev
	.set	_ZNSt8functionIFSt10unique_ptrI19InspectionSubServerSt14default_deleteIS1_EEvEED1Ev,_ZNSt8functionIFSt10unique_ptrI19InspectionSubServerSt14default_deleteIS1_EEvEED2Ev
	.section	.text._ZNSt4pairINSt7__cxx1112basic_stringIcSt11char_traitsIcESaIcEEESt8functionIFSt10unique_ptrI19InspectionSubServerSt14default_deleteIS8_EEvEEED2Ev,"axG",@progbits,_ZNSt4pairINSt7__cxx1112basic_stringIcSt11char_traitsIcESaIcEEESt8functionIFSt10unique_ptrI19InspectionSubServerSt14default_deleteIS8_EEvEEED5Ev,comdat
	.align 2
	.weak	_ZNSt4pairINSt7__cxx1112basic_stringIcSt11char_traitsIcESaIcEEESt8functionIFSt10unique_ptrI19InspectionSubServerSt14default_deleteIS8_EEvEEED2Ev
	.type	_ZNSt4pairINSt7__cxx1112basic_stringIcSt11char_traitsIcESaIcEEESt8functionIFSt10unique_ptrI19InspectionSubServerSt14default_deleteIS8_EEvEEED2Ev, @function
_ZNSt4pairINSt7__cxx1112basic_stringIcSt11char_traitsIcESaIcEEESt8functionIFSt10unique_ptrI19InspectionSubServerSt14default_deleteIS8_EEvEEED2Ev:
.LFB5728:
	.cfi_startproc
	endbr64
	pushq	%rbp
	.cfi_def_cfa_offset 16
	.cfi_offset 6, -16
	movq	%rsp, %rbp
	.cfi_def_cfa_register 6
	subq	$16, %rsp
	movq	%rdi, -8(%rbp)
	movq	-8(%rbp), %rax
	addq	$32, %rax
	movq	%rax, %rdi
	call	_ZNSt8functionIFSt10unique_ptrI19InspectionSubServerSt14default_deleteIS1_EEvEED1Ev@PLT
	movq	-8(%rbp), %rax
	movq	%rax, %rdi
	call	_ZNSt7__cxx1112basic_stringIcSt11char_traitsIcESaIcEED1Ev@PLT
	nop
	leave
	.cfi_def_cfa 7, 8
	ret
	.cfi_endproc
.LFE5728:
	.size	_ZNSt4pairINSt7__cxx1112basic_stringIcSt11char_traitsIcESaIcEEESt8functionIFSt10unique_ptrI19InspectionSubServerSt14default_deleteIS8_EEvEEED2Ev, .-_ZNSt4pairINSt7__cxx1112basic_stringIcSt11char_traitsIcESaIcEEESt8functionIFSt10unique_ptrI19InspectionSubServerSt14default_deleteIS8_EEvEEED2Ev
	.weak	_ZNSt4pairINSt7__cxx1112basic_stringIcSt11char_traitsIcESaIcEEESt8functionIFSt10unique_ptrI19InspectionSubServerSt14default_deleteIS8_EEvEEED1Ev
	.set	_ZNSt4pairINSt7__cxx1112basic_stringIcSt11char_traitsIcESaIcEEESt8functionIFSt10unique_ptrI19InspectionSubServerSt14default_deleteIS8_EEvEEED1Ev,_ZNSt4pairINSt7__cxx1112basic_stringIcSt11char_traitsIcESaIcEEESt8functionIFSt10unique_ptrI19InspectionSubServerSt14default_deleteIS8_EEvEEED2Ev
	.text
	.align 2
	.globl	_ZN17SubServerRegister17registedSubServerB5cxx11Ev
	.type	_ZN17SubServerRegister17registedSubServerB5cxx11Ev, @function
_ZN17SubServerRegister17registedSubServerB5cxx11Ev:
.LFB5712:
	.cfi_startproc
	.cfi_personality 0x9b,DW.ref.__gxx_personality_v0
	.cfi_lsda 0x1b,.LLSDA5712
	endbr64
	pushq	%rbp
	.cfi_def_cfa_offset 16
	.cfi_offset 6, -16
	movq	%rsp, %rbp
	.cfi_def_cfa_register 6
	pushq	%rbx
	subq	$136, %rsp
	.cfi_offset 3, -24
	movq	%rdi, -136(%rbp)
	movq	%fs:40, %rax
	movq	%rax, -24(%rbp)
	xorl	%eax, %eax
	movq	-136(%rbp), %rax
	movq	%rax, %rdi
	call	_ZNSt6vectorISt4pairINSt7__cxx1112basic_stringIcSt11char_traitsIcESaIcEEESt8functionIFSt10unique_ptrI19InspectionSubServerSt14default_deleteIS9_EEvEEESaISF_EEC1Ev@PLT
	call	_ZL20static_subserver_mapv
	movq	%rax, -112(%rbp)
	movq	-112(%rbp), %rax
	movq	%rax, %rdi
	call	_ZNSt13unordered_mapINSt7__cxx1112basic_stringIcSt11char_traitsIcESaIcEEESt8functionIFSt10unique_ptrI19InspectionSubServerSt14default_deleteIS8_EEvEESt4hashIS5_ESt8equal_toIS5_ESaISt4pairIKS5_SD_EEE5beginEv@PLT
	movq	%rax, -128(%rbp)
	movq	-112(%rbp), %rax
	movq	%rax, %rdi
	call	_ZNSt13unordered_mapINSt7__cxx1112basic_stringIcSt11char_traitsIcESaIcEEESt8functionIFSt10unique_ptrI19InspectionSubServerSt14default_deleteIS8_EEvEESt4hashIS5_ESt8equal_toIS5_ESaISt4pairIKS5_SD_EEE3endEv@PLT
	movq	%rax, -120(%rbp)
.L155:
	leaq	-120(%rbp), %rdx
	leaq	-128(%rbp), %rax
	movq	%rdx, %rsi
	movq	%rax, %rdi
	call	_ZNSt8__detailneISt4pairIKNSt7__cxx1112basic_stringIcSt11char_traitsIcESaIcEEESt8functionIFSt10unique_ptrI19InspectionSubServerSt14default_deleteISB_EEvEEELb1EEEbRKNS_19_Node_iterator_baseIT_XT0_EEESM_@PLT
	testb	%al, %al
	je	.L162
	leaq	-128(%rbp), %rax
	movq	%rax, %rdi
	call	_ZNKSt8__detail14_Node_iteratorISt4pairIKNSt7__cxx1112basic_stringIcSt11char_traitsIcESaIcEEESt8functionIFSt10unique_ptrI19InspectionSubServerSt14default_deleteISB_EEvEEELb0ELb1EEdeEv@PLT
	movq	%rax, -104(%rbp)
	movq	-104(%rbp), %rdx
	leaq	-96(%rbp), %rax
	movq	%rdx, %rsi
	movq	%rax, %rdi
.LEHB5:
	call	_ZNSt4pairINSt7__cxx1112basic_stringIcSt11char_traitsIcESaIcEEESt8functionIFSt10unique_ptrI19InspectionSubServerSt14default_deleteIS8_EEvEEEC1IKS5_SD_Lb1EEERKS_IT_T0_E@PLT
.LEHE5:
	leaq	-96(%rbp), %rdx
	movq	-136(%rbp), %rax
	movq	%rdx, %rsi
	movq	%rax, %rdi
.LEHB6:
	call	_ZNSt6vectorISt4pairINSt7__cxx1112basic_stringIcSt11char_traitsIcESaIcEEESt8functionIFSt10unique_ptrI19InspectionSubServerSt14default_deleteIS9_EEvEEESaISF_EE9push_backEOSF_@PLT
.LEHE6:
	leaq	-96(%rbp), %rax
	movq	%rax, %rdi
	call	_ZNSt4pairINSt7__cxx1112basic_stringIcSt11char_traitsIcESaIcEEESt8functionIFSt10unique_ptrI19InspectionSubServerSt14default_deleteIS8_EEvEEED1Ev@PLT
	leaq	-128(%rbp), %rax
	movq	%rax, %rdi
	call	_ZNSt8__detail14_Node_iteratorISt4pairIKNSt7__cxx1112basic_stringIcSt11char_traitsIcESaIcEEESt8functionIFSt10unique_ptrI19InspectionSubServerSt14default_deleteISB_EEvEEELb0ELb1EEppEv@PLT
	jmp	.L155
.L161:
	endbr64
	movq	%rax, %rbx
	leaq	-96(%rbp), %rax
	movq	%rax, %rdi
	call	_ZNSt4pairINSt7__cxx1112basic_stringIcSt11char_traitsIcESaIcEEESt8functionIFSt10unique_ptrI19InspectionSubServerSt14default_deleteIS8_EEvEEED1Ev@PLT
	jmp	.L158
.L160:
	endbr64
	movq	%rax, %rbx
.L158:
	movq	-136(%rbp), %rax
	movq	%rax, %rdi
	call	_ZNSt6vectorISt4pairINSt7__cxx1112basic_stringIcSt11char_traitsIcESaIcEEESt8functionIFSt10unique_ptrI19InspectionSubServerSt14default_deleteIS9_EEvEEESaISF_EED1Ev@PLT
	movq	%rbx, %rax
	movq	%rax, %rdi
.LEHB7:
	call	_Unwind_Resume@PLT
.LEHE7:
.L162:
	nop
	movq	-24(%rbp), %rax
	xorq	%fs:40, %rax
	je	.L159
	call	__stack_chk_fail@PLT
.L159:
	movq	-136(%rbp), %rax
	addq	$136, %rsp
	popq	%rbx
	popq	%rbp
	.cfi_def_cfa 7, 8
	ret
	.cfi_endproc
.LFE5712:
	.section	.gcc_except_table,"a",@progbits
.LLSDA5712:
	.byte	0xff
	.byte	0xff
	.byte	0x1
	.uleb128 .LLSDACSE5712-.LLSDACSB5712
.LLSDACSB5712:
	.uleb128 .LEHB5-.LFB5712
	.uleb128 .LEHE5-.LEHB5
	.uleb128 .L160-.LFB5712
	.uleb128 0
	.uleb128 .LEHB6-.LFB5712
	.uleb128 .LEHE6-.LEHB6
	.uleb128 .L161-.LFB5712
	.uleb128 0
	.uleb128 .LEHB7-.LFB5712
	.uleb128 .LEHE7-.LEHB7
	.uleb128 0
	.uleb128 0
.LLSDACSE5712:
	.text
	.size	_ZN17SubServerRegister17registedSubServerB5cxx11Ev, .-_ZN17SubServerRegister17registedSubServerB5cxx11Ev
	.section	.text._ZN9__gnu_cxx11char_traitsIcE2eqERKcS3_,"axG",@progbits,_ZN9__gnu_cxx11char_traitsIcE2eqERKcS3_,comdat
	.weak	_ZN9__gnu_cxx11char_traitsIcE2eqERKcS3_
	.type	_ZN9__gnu_cxx11char_traitsIcE2eqERKcS3_, @function
_ZN9__gnu_cxx11char_traitsIcE2eqERKcS3_:
.LFB5737:
	.cfi_startproc
	endbr64
	pushq	%rbp
	.cfi_def_cfa_offset 16
	.cfi_offset 6, -16
	movq	%rsp, %rbp
	.cfi_def_cfa_register 6
	movq	%rdi, -8(%rbp)
	movq	%rsi, -16(%rbp)
	movq	-8(%rbp), %rax
	movzbl	(%rax), %edx
	movq	-16(%rbp), %rax
	movzbl	(%rax), %eax
	cmpb	%al, %dl
	sete	%al
	popq	%rbp
	.cfi_def_cfa 7, 8
	ret
	.cfi_endproc
.LFE5737:
	.size	_ZN9__gnu_cxx11char_traitsIcE2eqERKcS3_, .-_ZN9__gnu_cxx11char_traitsIcE2eqERKcS3_
	.section	.text._ZN9__gnu_cxx11char_traitsIcE6lengthEPKc,"axG",@progbits,_ZN9__gnu_cxx11char_traitsIcE6lengthEPKc,comdat
	.align 2
	.weak	_ZN9__gnu_cxx11char_traitsIcE6lengthEPKc
	.type	_ZN9__gnu_cxx11char_traitsIcE6lengthEPKc, @function
_ZN9__gnu_cxx11char_traitsIcE6lengthEPKc:
.LFB5736:
	.cfi_startproc
	endbr64
	pushq	%rbp
	.cfi_def_cfa_offset 16
	.cfi_offset 6, -16
	movq	%rsp, %rbp
	.cfi_def_cfa_register 6
	subq	$48, %rsp
	movq	%rdi, -40(%rbp)
	movq	%fs:40, %rax
	movq	%rax, -8(%rbp)
	xorl	%eax, %eax
	movq	$0, -16(%rbp)
.L167:
	movb	$0, -17(%rbp)
	movq	-40(%rbp), %rdx
	movq	-16(%rbp), %rax
	addq	%rax, %rdx
	leaq	-17(%rbp), %rax
	movq	%rax, %rsi
	movq	%rdx, %rdi
	call	_ZN9__gnu_cxx11char_traitsIcE2eqERKcS3_@PLT
	xorl	$1, %eax
	testb	%al, %al
	je	.L166
	addq	$1, -16(%rbp)
	jmp	.L167
.L166:
	movq	-16(%rbp), %rax
	movq	-8(%rbp), %rcx
	xorq	%fs:40, %rcx
	je	.L169
	call	__stack_chk_fail@PLT
.L169:
	leave
	.cfi_def_cfa 7, 8
	ret
	.cfi_endproc
.LFE5736:
	.size	_ZN9__gnu_cxx11char_traitsIcE6lengthEPKc, .-_ZN9__gnu_cxx11char_traitsIcE6lengthEPKc
	.section	.text._ZNSt7__cxx1112basic_stringIcSt11char_traitsIcESaIcEE12_Alloc_hiderD2Ev,"axG",@progbits,_ZNSt7__cxx1112basic_stringIcSt11char_traitsIcESaIcEE12_Alloc_hiderD5Ev,comdat
	.align 2
	.weak	_ZNSt7__cxx1112basic_stringIcSt11char_traitsIcESaIcEE12_Alloc_hiderD2Ev
	.type	_ZNSt7__cxx1112basic_stringIcSt11char_traitsIcESaIcEE12_Alloc_hiderD2Ev, @function
_ZNSt7__cxx1112basic_stringIcSt11char_traitsIcESaIcEE12_Alloc_hiderD2Ev:
.LFB5839:
	.cfi_startproc
	endbr64
	pushq	%rbp
	.cfi_def_cfa_offset 16
	.cfi_offset 6, -16
	movq	%rsp, %rbp
	.cfi_def_cfa_register 6
	subq	$16, %rsp
	movq	%rdi, -8(%rbp)
	movq	-8(%rbp), %rax
	movq	%rax, %rdi
	call	_ZNSaIcED2Ev@PLT
	nop
	leave
	.cfi_def_cfa 7, 8
	ret
	.cfi_endproc
.LFE5839:
	.size	_ZNSt7__cxx1112basic_stringIcSt11char_traitsIcESaIcEE12_Alloc_hiderD2Ev, .-_ZNSt7__cxx1112basic_stringIcSt11char_traitsIcESaIcEE12_Alloc_hiderD2Ev
	.weak	_ZNSt7__cxx1112basic_stringIcSt11char_traitsIcESaIcEE12_Alloc_hiderD1Ev
	.set	_ZNSt7__cxx1112basic_stringIcSt11char_traitsIcESaIcEE12_Alloc_hiderD1Ev,_ZNSt7__cxx1112basic_stringIcSt11char_traitsIcESaIcEE12_Alloc_hiderD2Ev
	.section	.text._ZSt3maxImERKT_S2_S2_,"axG",@progbits,_ZSt3maxImERKT_S2_S2_,comdat
	.weak	_ZSt3maxImERKT_S2_S2_
	.type	_ZSt3maxImERKT_S2_S2_, @function
_ZSt3maxImERKT_S2_S2_:
.LFB5981:
	.cfi_startproc
	endbr64
	pushq	%rbp
	.cfi_def_cfa_offset 16
	.cfi_offset 6, -16
	movq	%rsp, %rbp
	.cfi_def_cfa_register 6
	movq	%rdi, -8(%rbp)
	movq	%rsi, -16(%rbp)
	movq	-8(%rbp), %rax
	movq	(%rax), %rdx
	movq	-16(%rbp), %rax
	movq	(%rax), %rax
	cmpq	%rax, %rdx
	jnb	.L172
	movq	-16(%rbp), %rax
	jmp	.L173
.L172:
	movq	-8(%rbp), %rax
.L173:
	popq	%rbp
	.cfi_def_cfa 7, 8
	ret
	.cfi_endproc
.LFE5981:
	.size	_ZSt3maxImERKT_S2_S2_, .-_ZSt3maxImERKT_S2_S2_
	.section	.text._ZNSt7__cxx1112basic_stringIcSt11char_traitsIcESaIcEEC2IS3_EEPKcRKS3_,"axG",@progbits,_ZNSt7__cxx1112basic_stringIcSt11char_traitsIcESaIcEEC5IS3_EEPKcRKS3_,comdat
	.align 2
	.weak	_ZNSt7__cxx1112basic_stringIcSt11char_traitsIcESaIcEEC2IS3_EEPKcRKS3_
	.type	_ZNSt7__cxx1112basic_stringIcSt11char_traitsIcESaIcEEC2IS3_EEPKcRKS3_, @function
_ZNSt7__cxx1112basic_stringIcSt11char_traitsIcESaIcEEC2IS3_EEPKcRKS3_:
.LFB6073:
	.cfi_startproc
	.cfi_personality 0x9b,DW.ref.__gxx_personality_v0
	.cfi_lsda 0x1b,.LLSDA6073
	endbr64
	pushq	%rbp
	.cfi_def_cfa_offset 16
	.cfi_offset 6, -16
	movq	%rsp, %rbp
	.cfi_def_cfa_register 6
	pushq	%rbx
	subq	$40, %rsp
	.cfi_offset 3, -24
	movq	%rdi, -24(%rbp)
	movq	%rsi, -32(%rbp)
	movq	%rdx, -40(%rbp)
	movq	-24(%rbp), %rbx
	movq	-24(%rbp), %rax
	movq	%rax, %rdi
.LEHB8:
	call	_ZNSt7__cxx1112basic_stringIcSt11char_traitsIcESaIcEE13_M_local_dataEv@PLT
	movq	%rax, %rcx
	movq	-40(%rbp), %rax
	movq	%rax, %rdx
	movq	%rcx, %rsi
	movq	%rbx, %rdi
	call	_ZNSt7__cxx1112basic_stringIcSt11char_traitsIcESaIcEE12_Alloc_hiderC1EPcRKS3_@PLT
.LEHE8:
	cmpq	$0, -32(%rbp)
	je	.L175
	movq	-32(%rbp), %rax
	movq	%rax, %rdi
.LEHB9:
	call	_ZNSt11char_traitsIcE6lengthEPKc@PLT
	movq	-32(%rbp), %rdx
	addq	%rdx, %rax
	jmp	.L176
.L175:
	movq	-32(%rbp), %rax
	subq	$1, %rax
.L176:
	movq	-32(%rbp), %rsi
	movq	-24(%rbp), %rcx
	movq	%rax, %rdx
	movq	%rcx, %rdi
	call	_ZNSt7__cxx1112basic_stringIcSt11char_traitsIcESaIcEE12_M_constructIPKcEEvT_S8_@PLT
.LEHE9:
	jmp	.L179
.L178:
	endbr64
	movq	%rax, %rbx
	movq	-24(%rbp), %rax
	movq	%rax, %rdi
	call	_ZNSt7__cxx1112basic_stringIcSt11char_traitsIcESaIcEE12_Alloc_hiderD1Ev@PLT
	movq	%rbx, %rax
	movq	%rax, %rdi
.LEHB10:
	call	_Unwind_Resume@PLT
.LEHE10:
.L179:
	addq	$40, %rsp
	popq	%rbx
	popq	%rbp
	.cfi_def_cfa 7, 8
	ret
	.cfi_endproc
.LFE6073:
	.section	.gcc_except_table
.LLSDA6073:
	.byte	0xff
	.byte	0xff
	.byte	0x1
	.uleb128 .LLSDACSE6073-.LLSDACSB6073
.LLSDACSB6073:
	.uleb128 .LEHB8-.LFB6073
	.uleb128 .LEHE8-.LEHB8
	.uleb128 0
	.uleb128 0
	.uleb128 .LEHB9-.LFB6073
	.uleb128 .LEHE9-.LEHB9
	.uleb128 .L178-.LFB6073
	.uleb128 0
	.uleb128 .LEHB10-.LFB6073
	.uleb128 .LEHE10-.LEHB10
	.uleb128 0
	.uleb128 0
.LLSDACSE6073:
	.section	.text._ZNSt7__cxx1112basic_stringIcSt11char_traitsIcESaIcEEC2IS3_EEPKcRKS3_,"axG",@progbits,_ZNSt7__cxx1112basic_stringIcSt11char_traitsIcESaIcEEC5IS3_EEPKcRKS3_,comdat
	.size	_ZNSt7__cxx1112basic_stringIcSt11char_traitsIcESaIcEEC2IS3_EEPKcRKS3_, .-_ZNSt7__cxx1112basic_stringIcSt11char_traitsIcESaIcEEC2IS3_EEPKcRKS3_
	.weak	_ZNSt7__cxx1112basic_stringIcSt11char_traitsIcESaIcEEC1IS3_EEPKcRKS3_
	.set	_ZNSt7__cxx1112basic_stringIcSt11char_traitsIcESaIcEEC1IS3_EEPKcRKS3_,_ZNSt7__cxx1112basic_stringIcSt11char_traitsIcESaIcEEC2IS3_EEPKcRKS3_
	.section	.text._ZNSaINSt8__detail10_Hash_nodeISt4pairIKNSt7__cxx1112basic_stringIcSt11char_traitsIcESaIcEEESt8functionIFSt10unique_ptrI19InspectionSubServerSt14default_deleteISB_EEvEEELb1EEEEC2Ev,"axG",@progbits,_ZNSaINSt8__detail10_Hash_nodeISt4pairIKNSt7__cxx1112basic_stringIcSt11char_traitsIcESaIcEEESt8functionIFSt10unique_ptrI19InspectionSubServerSt14default_deleteISB_EEvEEELb1EEEEC5Ev,comdat
	.align 2
	.weak	_ZNSaINSt8__detail10_Hash_nodeISt4pairIKNSt7__cxx1112basic_stringIcSt11char_traitsIcESaIcEEESt8functionIFSt10unique_ptrI19InspectionSubServerSt14default_deleteISB_EEvEEELb1EEEEC2Ev
	.type	_ZNSaINSt8__detail10_Hash_nodeISt4pairIKNSt7__cxx1112basic_stringIcSt11char_traitsIcESaIcEEESt8functionIFSt10unique_ptrI19InspectionSubServerSt14default_deleteISB_EEvEEELb1EEEEC2Ev, @function
_ZNSaINSt8__detail10_Hash_nodeISt4pairIKNSt7__cxx1112basic_stringIcSt11char_traitsIcESaIcEEESt8functionIFSt10unique_ptrI19InspectionSubServerSt14default_deleteISB_EEvEEELb1EEEEC2Ev:
.LFB6235:
	.cfi_startproc
	endbr64
	pushq	%rbp
	.cfi_def_cfa_offset 16
	.cfi_offset 6, -16
	movq	%rsp, %rbp
	.cfi_def_cfa_register 6
	subq	$16, %rsp
	movq	%rdi, -8(%rbp)
	movq	-8(%rbp), %rax
	movq	%rax, %rdi
	call	_ZN9__gnu_cxx13new_allocatorINSt8__detail10_Hash_nodeISt4pairIKNSt7__cxx1112basic_stringIcSt11char_traitsIcESaIcEEESt8functionIFSt10unique_ptrI19InspectionSubServerSt14default_deleteISD_EEvEEELb1EEEEC2Ev@PLT
	nop
	leave
	.cfi_def_cfa 7, 8
	ret
	.cfi_endproc
.LFE6235:
	.size	_ZNSaINSt8__detail10_Hash_nodeISt4pairIKNSt7__cxx1112basic_stringIcSt11char_traitsIcESaIcEEESt8functionIFSt10unique_ptrI19InspectionSubServerSt14default_deleteISB_EEvEEELb1EEEEC2Ev, .-_ZNSaINSt8__detail10_Hash_nodeISt4pairIKNSt7__cxx1112basic_stringIcSt11char_traitsIcESaIcEEESt8functionIFSt10unique_ptrI19InspectionSubServerSt14default_deleteISB_EEvEEELb1EEEEC2Ev
	.weak	_ZNSaINSt8__detail10_Hash_nodeISt4pairIKNSt7__cxx1112basic_stringIcSt11char_traitsIcESaIcEEESt8functionIFSt10unique_ptrI19InspectionSubServerSt14default_deleteISB_EEvEEELb1EEEEC1Ev
	.set	_ZNSaINSt8__detail10_Hash_nodeISt4pairIKNSt7__cxx1112basic_stringIcSt11char_traitsIcESaIcEEESt8functionIFSt10unique_ptrI19InspectionSubServerSt14default_deleteISB_EEvEEELb1EEEEC1Ev,_ZNSaINSt8__detail10_Hash_nodeISt4pairIKNSt7__cxx1112basic_stringIcSt11char_traitsIcESaIcEEESt8functionIFSt10unique_ptrI19InspectionSubServerSt14default_deleteISB_EEvEEELb1EEEEC2Ev
	.section	.text._ZNSaINSt8__detail10_Hash_nodeISt4pairIKNSt7__cxx1112basic_stringIcSt11char_traitsIcESaIcEEESt8functionIFSt10unique_ptrI19InspectionSubServerSt14default_deleteISB_EEvEEELb1EEEED2Ev,"axG",@progbits,_ZNSaINSt8__detail10_Hash_nodeISt4pairIKNSt7__cxx1112basic_stringIcSt11char_traitsIcESaIcEEESt8functionIFSt10unique_ptrI19InspectionSubServerSt14default_deleteISB_EEvEEELb1EEEED5Ev,comdat
	.align 2
	.weak	_ZNSaINSt8__detail10_Hash_nodeISt4pairIKNSt7__cxx1112basic_stringIcSt11char_traitsIcESaIcEEESt8functionIFSt10unique_ptrI19InspectionSubServerSt14default_deleteISB_EEvEEELb1EEEED2Ev
	.type	_ZNSaINSt8__detail10_Hash_nodeISt4pairIKNSt7__cxx1112basic_stringIcSt11char_traitsIcESaIcEEESt8functionIFSt10unique_ptrI19InspectionSubServerSt14default_deleteISB_EEvEEELb1EEEED2Ev, @function
_ZNSaINSt8__detail10_Hash_nodeISt4pairIKNSt7__cxx1112basic_stringIcSt11char_traitsIcESaIcEEESt8functionIFSt10unique_ptrI19InspectionSubServerSt14default_deleteISB_EEvEEELb1EEEED2Ev:
.LFB6238:
	.cfi_startproc
	endbr64
	pushq	%rbp
	.cfi_def_cfa_offset 16
	.cfi_offset 6, -16
	movq	%rsp, %rbp
	.cfi_def_cfa_register 6
	subq	$16, %rsp
	movq	%rdi, -8(%rbp)
	movq	-8(%rbp), %rax
	movq	%rax, %rdi
	call	_ZN9__gnu_cxx13new_allocatorINSt8__detail10_Hash_nodeISt4pairIKNSt7__cxx1112basic_stringIcSt11char_traitsIcESaIcEEESt8functionIFSt10unique_ptrI19InspectionSubServerSt14default_deleteISD_EEvEEELb1EEEED2Ev@PLT
	nop
	leave
	.cfi_def_cfa 7, 8
	ret
	.cfi_endproc
.LFE6238:
	.size	_ZNSaINSt8__detail10_Hash_nodeISt4pairIKNSt7__cxx1112basic_stringIcSt11char_traitsIcESaIcEEESt8functionIFSt10unique_ptrI19InspectionSubServerSt14default_deleteISB_EEvEEELb1EEEED2Ev, .-_ZNSaINSt8__detail10_Hash_nodeISt4pairIKNSt7__cxx1112basic_stringIcSt11char_traitsIcESaIcEEESt8functionIFSt10unique_ptrI19InspectionSubServerSt14default_deleteISB_EEvEEELb1EEEED2Ev
	.weak	_ZNSaINSt8__detail10_Hash_nodeISt4pairIKNSt7__cxx1112basic_stringIcSt11char_traitsIcESaIcEEESt8functionIFSt10unique_ptrI19InspectionSubServerSt14default_deleteISB_EEvEEELb1EEEED1Ev
	.set	_ZNSaINSt8__detail10_Hash_nodeISt4pairIKNSt7__cxx1112basic_stringIcSt11char_traitsIcESaIcEEESt8functionIFSt10unique_ptrI19InspectionSubServerSt14default_deleteISB_EEvEEELb1EEEED1Ev,_ZNSaINSt8__detail10_Hash_nodeISt4pairIKNSt7__cxx1112basic_stringIcSt11char_traitsIcESaIcEEESt8functionIFSt10unique_ptrI19InspectionSubServerSt14default_deleteISB_EEvEEELb1EEEED2Ev
	.section	.text._ZNSt10_HashtableINSt7__cxx1112basic_stringIcSt11char_traitsIcESaIcEEESt4pairIKS5_St8functionIFSt10unique_ptrI19InspectionSubServerSt14default_deleteISA_EEvEEESaISG_ENSt8__detail10_Select1stESt8equal_toIS5_ESt4hashIS5_ENSI_18_Mod_range_hashingENSI_20_Default_ranged_hashENSI_20_Prime_rehash_policyENSI_17_Hashtable_traitsILb1ELb0ELb1EEEED2Ev,"axG",@progbits,_ZNSt10_HashtableINSt7__cxx1112basic_stringIcSt11char_traitsIcESaIcEEESt4pairIKS5_St8functionIFSt10unique_ptrI19InspectionSubServerSt14default_deleteISA_EEvEEESaISG_ENSt8__detail10_Select1stESt8equal_toIS5_ESt4hashIS5_ENSI_18_Mod_range_hashingENSI_20_Default_ranged_hashENSI_20_Prime_rehash_policyENSI_17_Hashtable_traitsILb1ELb0ELb1EEEED5Ev,comdat
	.align 2
	.weak	_ZNSt10_HashtableINSt7__cxx1112basic_stringIcSt11char_traitsIcESaIcEEESt4pairIKS5_St8functionIFSt10unique_ptrI19InspectionSubServerSt14default_deleteISA_EEvEEESaISG_ENSt8__detail10_Select1stESt8equal_toIS5_ESt4hashIS5_ENSI_18_Mod_range_hashingENSI_20_Default_ranged_hashENSI_20_Prime_rehash_policyENSI_17_Hashtable_traitsILb1ELb0ELb1EEEED2Ev
	.type	_ZNSt10_HashtableINSt7__cxx1112basic_stringIcSt11char_traitsIcESaIcEEESt4pairIKS5_St8functionIFSt10unique_ptrI19InspectionSubServerSt14default_deleteISA_EEvEEESaISG_ENSt8__detail10_Select1stESt8equal_toIS5_ESt4hashIS5_ENSI_18_Mod_range_hashingENSI_20_Default_ranged_hashENSI_20_Prime_rehash_policyENSI_17_Hashtable_traitsILb1ELb0ELb1EEEED2Ev, @function
_ZNSt10_HashtableINSt7__cxx1112basic_stringIcSt11char_traitsIcESaIcEEESt4pairIKS5_St8functionIFSt10unique_ptrI19InspectionSubServerSt14default_deleteISA_EEvEEESaISG_ENSt8__detail10_Select1stESt8equal_toIS5_ESt4hashIS5_ENSI_18_Mod_range_hashingENSI_20_Default_ranged_hashENSI_20_Prime_rehash_policyENSI_17_Hashtable_traitsILb1ELb0ELb1EEEED2Ev:
.LFB6241:
	.cfi_startproc
	.cfi_personality 0x9b,DW.ref.__gxx_personality_v0
	.cfi_lsda 0x1b,.LLSDA6241
	endbr64
	pushq	%rbp
	.cfi_def_cfa_offset 16
	.cfi_offset 6, -16
	movq	%rsp, %rbp
	.cfi_def_cfa_register 6
	subq	$16, %rsp
	movq	%rdi, -8(%rbp)
	movq	-8(%rbp), %rax
	movq	%rax, %rdi
	call	_ZNSt10_HashtableINSt7__cxx1112basic_stringIcSt11char_traitsIcESaIcEEESt4pairIKS5_St8functionIFSt10unique_ptrI19InspectionSubServerSt14default_deleteISA_EEvEEESaISG_ENSt8__detail10_Select1stESt8equal_toIS5_ESt4hashIS5_ENSI_18_Mod_range_hashingENSI_20_Default_ranged_hashENSI_20_Prime_rehash_policyENSI_17_Hashtable_traitsILb1ELb0ELb1EEEE5clearEv@PLT
	movq	-8(%rbp), %rax
	movq	%rax, %rdi
	call	_ZNSt10_HashtableINSt7__cxx1112basic_stringIcSt11char_traitsIcESaIcEEESt4pairIKS5_St8functionIFSt10unique_ptrI19InspectionSubServerSt14default_deleteISA_EEvEEESaISG_ENSt8__detail10_Select1stESt8equal_toIS5_ESt4hashIS5_ENSI_18_Mod_range_hashingENSI_20_Default_ranged_hashENSI_20_Prime_rehash_policyENSI_17_Hashtable_traitsILb1ELb0ELb1EEEE21_M_deallocate_bucketsEv@PLT
	movq	-8(%rbp), %rax
	movq	%rax, %rdi
	call	_ZNSt8__detail16_Hashtable_allocISaINS_10_Hash_nodeISt4pairIKNSt7__cxx1112basic_stringIcSt11char_traitsIcESaIcEEESt8functionIFSt10unique_ptrI19InspectionSubServerSt14default_deleteISC_EEvEEELb1EEEEED2Ev@PLT
	nop
	leave
	.cfi_def_cfa 7, 8
	ret
	.cfi_endproc
.LFE6241:
	.section	.gcc_except_table
.LLSDA6241:
	.byte	0xff
	.byte	0xff
	.byte	0x1
	.uleb128 .LLSDACSE6241-.LLSDACSB6241
.LLSDACSB6241:
.LLSDACSE6241:
	.section	.text._ZNSt10_HashtableINSt7__cxx1112basic_stringIcSt11char_traitsIcESaIcEEESt4pairIKS5_St8functionIFSt10unique_ptrI19InspectionSubServerSt14default_deleteISA_EEvEEESaISG_ENSt8__detail10_Select1stESt8equal_toIS5_ESt4hashIS5_ENSI_18_Mod_range_hashingENSI_20_Default_ranged_hashENSI_20_Prime_rehash_policyENSI_17_Hashtable_traitsILb1ELb0ELb1EEEED2Ev,"axG",@progbits,_ZNSt10_HashtableINSt7__cxx1112basic_stringIcSt11char_traitsIcESaIcEEESt4pairIKS5_St8functionIFSt10unique_ptrI19InspectionSubServerSt14default_deleteISA_EEvEEESaISG_ENSt8__detail10_Select1stESt8equal_toIS5_ESt4hashIS5_ENSI_18_Mod_range_hashingENSI_20_Default_ranged_hashENSI_20_Prime_rehash_policyENSI_17_Hashtable_traitsILb1ELb0ELb1EEEED5Ev,comdat
	.size	_ZNSt10_HashtableINSt7__cxx1112basic_stringIcSt11char_traitsIcESaIcEEESt4pairIKS5_St8functionIFSt10unique_ptrI19InspectionSubServerSt14default_deleteISA_EEvEEESaISG_ENSt8__detail10_Select1stESt8equal_toIS5_ESt4hashIS5_ENSI_18_Mod_range_hashingENSI_20_Default_ranged_hashENSI_20_Prime_rehash_policyENSI_17_Hashtable_traitsILb1ELb0ELb1EEEED2Ev, .-_ZNSt10_HashtableINSt7__cxx1112basic_stringIcSt11char_traitsIcESaIcEEESt4pairIKS5_St8functionIFSt10unique_ptrI19InspectionSubServerSt14default_deleteISA_EEvEEESaISG_ENSt8__detail10_Select1stESt8equal_toIS5_ESt4hashIS5_ENSI_18_Mod_range_hashingENSI_20_Default_ranged_hashENSI_20_Prime_rehash_policyENSI_17_Hashtable_traitsILb1ELb0ELb1EEEED2Ev
	.weak	_ZNSt10_HashtableINSt7__cxx1112basic_stringIcSt11char_traitsIcESaIcEEESt4pairIKS5_St8functionIFSt10unique_ptrI19InspectionSubServerSt14default_deleteISA_EEvEEESaISG_ENSt8__detail10_Select1stESt8equal_toIS5_ESt4hashIS5_ENSI_18_Mod_range_hashingENSI_20_Default_ranged_hashENSI_20_Prime_rehash_policyENSI_17_Hashtable_traitsILb1ELb0ELb1EEEED1Ev
	.set	_ZNSt10_HashtableINSt7__cxx1112basic_stringIcSt11char_traitsIcESaIcEEESt4pairIKS5_St8functionIFSt10unique_ptrI19InspectionSubServerSt14default_deleteISA_EEvEEESaISG_ENSt8__detail10_Select1stESt8equal_toIS5_ESt4hashIS5_ENSI_18_Mod_range_hashingENSI_20_Default_ranged_hashENSI_20_Prime_rehash_policyENSI_17_Hashtable_traitsILb1ELb0ELb1EEEED1Ev,_ZNSt10_HashtableINSt7__cxx1112basic_stringIcSt11char_traitsIcESaIcEEESt4pairIKS5_St8functionIFSt10unique_ptrI19InspectionSubServerSt14default_deleteISA_EEvEEESaISG_ENSt8__detail10_Select1stESt8equal_toIS5_ESt4hashIS5_ENSI_18_Mod_range_hashingENSI_20_Default_ranged_hashENSI_20_Prime_rehash_policyENSI_17_Hashtable_traitsILb1ELb0ELb1EEEED2Ev
	.section	.text._ZNKSt13unordered_mapINSt7__cxx1112basic_stringIcSt11char_traitsIcESaIcEEESt8functionIFSt10unique_ptrI19InspectionSubServerSt14default_deleteIS8_EEvEESt4hashIS5_ESt8equal_toIS5_ESaISt4pairIKS5_SD_EEE5countERSJ_,"axG",@progbits,_ZNKSt13unordered_mapINSt7__cxx1112basic_stringIcSt11char_traitsIcESaIcEEESt8functionIFSt10unique_ptrI19InspectionSubServerSt14default_deleteIS8_EEvEESt4hashIS5_ESt8equal_toIS5_ESaISt4pairIKS5_SD_EEE5countERSJ_,comdat
	.align 2
	.weak	_ZNKSt13unordered_mapINSt7__cxx1112basic_stringIcSt11char_traitsIcESaIcEEESt8functionIFSt10unique_ptrI19InspectionSubServerSt14default_deleteIS8_EEvEESt4hashIS5_ESt8equal_toIS5_ESaISt4pairIKS5_SD_EEE5countERSJ_
	.type	_ZNKSt13unordered_mapINSt7__cxx1112basic_stringIcSt11char_traitsIcESaIcEEESt8functionIFSt10unique_ptrI19InspectionSubServerSt14default_deleteIS8_EEvEESt4hashIS5_ESt8equal_toIS5_ESaISt4pairIKS5_SD_EEE5countERSJ_, @function
_ZNKSt13unordered_mapINSt7__cxx1112basic_stringIcSt11char_traitsIcESaIcEEESt8functionIFSt10unique_ptrI19InspectionSubServerSt14default_deleteIS8_EEvEESt4hashIS5_ESt8equal_toIS5_ESaISt4pairIKS5_SD_EEE5countERSJ_:
.LFB6243:
	.cfi_startproc
	endbr64
	pushq	%rbp
	.cfi_def_cfa_offset 16
	.cfi_offset 6, -16
	movq	%rsp, %rbp
	.cfi_def_cfa_register 6
	subq	$16, %rsp
	movq	%rdi, -8(%rbp)
	movq	%rsi, -16(%rbp)
	movq	-8(%rbp), %rax
	movq	-16(%rbp), %rdx
	movq	%rdx, %rsi
	movq	%rax, %rdi
	call	_ZNKSt10_HashtableINSt7__cxx1112basic_stringIcSt11char_traitsIcESaIcEEESt4pairIKS5_St8functionIFSt10unique_ptrI19InspectionSubServerSt14default_deleteISA_EEvEEESaISG_ENSt8__detail10_Select1stESt8equal_toIS5_ESt4hashIS5_ENSI_18_Mod_range_hashingENSI_20_Default_ranged_hashENSI_20_Prime_rehash_policyENSI_17_Hashtable_traitsILb1ELb0ELb1EEEE5countERS7_@PLT
	leave
	.cfi_def_cfa 7, 8
	ret
	.cfi_endproc
.LFE6243:
	.size	_ZNKSt13unordered_mapINSt7__cxx1112basic_stringIcSt11char_traitsIcESaIcEEESt8functionIFSt10unique_ptrI19InspectionSubServerSt14default_deleteIS8_EEvEESt4hashIS5_ESt8equal_toIS5_ESaISt4pairIKS5_SD_EEE5countERSJ_, .-_ZNKSt13unordered_mapINSt7__cxx1112basic_stringIcSt11char_traitsIcESaIcEEESt8functionIFSt10unique_ptrI19InspectionSubServerSt14default_deleteIS8_EEvEESt4hashIS5_ESt8equal_toIS5_ESaISt4pairIKS5_SD_EEE5countERSJ_
	.section	.text._ZNSt13unordered_mapINSt7__cxx1112basic_stringIcSt11char_traitsIcESaIcEEESt8functionIFSt10unique_ptrI19InspectionSubServerSt14default_deleteIS8_EEvEESt4hashIS5_ESt8equal_toIS5_ESaISt4pairIKS5_SD_EEEixERSJ_,"axG",@progbits,_ZNSt13unordered_mapINSt7__cxx1112basic_stringIcSt11char_traitsIcESaIcEEESt8functionIFSt10unique_ptrI19InspectionSubServerSt14default_deleteIS8_EEvEESt4hashIS5_ESt8equal_toIS5_ESaISt4pairIKS5_SD_EEEixERSJ_,comdat
	.align 2
	.weak	_ZNSt13unordered_mapINSt7__cxx1112basic_stringIcSt11char_traitsIcESaIcEEESt8functionIFSt10unique_ptrI19InspectionSubServerSt14default_deleteIS8_EEvEESt4hashIS5_ESt8equal_toIS5_ESaISt4pairIKS5_SD_EEEixERSJ_
	.type	_ZNSt13unordered_mapINSt7__cxx1112basic_stringIcSt11char_traitsIcESaIcEEESt8functionIFSt10unique_ptrI19InspectionSubServerSt14default_deleteIS8_EEvEESt4hashIS5_ESt8equal_toIS5_ESaISt4pairIKS5_SD_EEEixERSJ_, @function
_ZNSt13unordered_mapINSt7__cxx1112basic_stringIcSt11char_traitsIcESaIcEEESt8functionIFSt10unique_ptrI19InspectionSubServerSt14default_deleteIS8_EEvEESt4hashIS5_ESt8equal_toIS5_ESaISt4pairIKS5_SD_EEEixERSJ_:
.LFB6244:
	.cfi_startproc
	endbr64
	pushq	%rbp
	.cfi_def_cfa_offset 16
	.cfi_offset 6, -16
	movq	%rsp, %rbp
	.cfi_def_cfa_register 6
	subq	$16, %rsp
	movq	%rdi, -8(%rbp)
	movq	%rsi, -16(%rbp)
	movq	-8(%rbp), %rax
	movq	-16(%rbp), %rdx
	movq	%rdx, %rsi
	movq	%rax, %rdi
	call	_ZNSt8__detail9_Map_baseINSt7__cxx1112basic_stringIcSt11char_traitsIcESaIcEEESt4pairIKS6_St8functionIFSt10unique_ptrI19InspectionSubServerSt14default_deleteISB_EEvEEESaISH_ENS_10_Select1stESt8equal_toIS6_ESt4hashIS6_ENS_18_Mod_range_hashingENS_20_Default_ranged_hashENS_20_Prime_rehash_policyENS_17_Hashtable_traitsILb1ELb0ELb1EEELb1EEixERS8_@PLT
	leave
	.cfi_def_cfa 7, 8
	ret
	.cfi_endproc
.LFE6244:
	.size	_ZNSt13unordered_mapINSt7__cxx1112basic_stringIcSt11char_traitsIcESaIcEEESt8functionIFSt10unique_ptrI19InspectionSubServerSt14default_deleteIS8_EEvEESt4hashIS5_ESt8equal_toIS5_ESaISt4pairIKS5_SD_EEEixERSJ_, .-_ZNSt13unordered_mapINSt7__cxx1112basic_stringIcSt11char_traitsIcESaIcEEESt8functionIFSt10unique_ptrI19InspectionSubServerSt14default_deleteIS8_EEvEESt4hashIS5_ESt8equal_toIS5_ESaISt4pairIKS5_SD_EEEixERSJ_
	.section	.text._ZNSt8functionIFSt10unique_ptrI19InspectionSubServerSt14default_deleteIS1_EEvEEaSERKS6_,"axG",@progbits,_ZNSt8functionIFSt10unique_ptrI19InspectionSubServerSt14default_deleteIS1_EEvEEaSERKS6_,comdat
	.align 2
	.weak	_ZNSt8functionIFSt10unique_ptrI19InspectionSubServerSt14default_deleteIS1_EEvEEaSERKS6_
	.type	_ZNSt8functionIFSt10unique_ptrI19InspectionSubServerSt14default_deleteIS1_EEvEEaSERKS6_, @function
_ZNSt8functionIFSt10unique_ptrI19InspectionSubServerSt14default_deleteIS1_EEvEEaSERKS6_:
.LFB6245:
	.cfi_startproc
	endbr64
	pushq	%rbp
	.cfi_def_cfa_offset 16
	.cfi_offset 6, -16
	movq	%rsp, %rbp
	.cfi_def_cfa_register 6
	subq	$64, %rsp
	movq	%rdi, -56(%rbp)
	movq	%rsi, -64(%rbp)
	movq	%fs:40, %rax
	movq	%rax, -8(%rbp)
	xorl	%eax, %eax
	movq	-64(%rbp), %rdx
	leaq	-48(%rbp), %rax
	movq	%rdx, %rsi
	movq	%rax, %rdi
	call	_ZNSt8functionIFSt10unique_ptrI19InspectionSubServerSt14default_deleteIS1_EEvEEC1ERKS6_@PLT
	movq	-56(%rbp), %rdx
	leaq	-48(%rbp), %rax
	movq	%rdx, %rsi
	movq	%rax, %rdi
	call	_ZNSt8functionIFSt10unique_ptrI19InspectionSubServerSt14default_deleteIS1_EEvEE4swapERS6_@PLT
	leaq	-48(%rbp), %rax
	movq	%rax, %rdi
	call	_ZNSt8functionIFSt10unique_ptrI19InspectionSubServerSt14default_deleteIS1_EEvEED1Ev@PLT
	movq	-56(%rbp), %rax
	movq	-8(%rbp), %rcx
	xorq	%fs:40, %rcx
	je	.L189
	call	__stack_chk_fail@PLT
.L189:
	leave
	.cfi_def_cfa 7, 8
	ret
	.cfi_endproc
.LFE6245:
	.size	_ZNSt8functionIFSt10unique_ptrI19InspectionSubServerSt14default_deleteIS1_EEvEEaSERKS6_, .-_ZNSt8functionIFSt10unique_ptrI19InspectionSubServerSt14default_deleteIS1_EEvEEaSERKS6_
	.section	.text._ZNSt12_Vector_baseISt4pairINSt7__cxx1112basic_stringIcSt11char_traitsIcESaIcEEESt8functionIFSt10unique_ptrI19InspectionSubServerSt14default_deleteIS9_EEvEEESaISF_EE12_Vector_implC2Ev,"axG",@progbits,_ZNSt12_Vector_baseISt4pairINSt7__cxx1112basic_stringIcSt11char_traitsIcESaIcEEESt8functionIFSt10unique_ptrI19InspectionSubServerSt14default_deleteIS9_EEvEEESaISF_EE12_Vector_implC5Ev,comdat
	.align 2
	.weak	_ZNSt12_Vector_baseISt4pairINSt7__cxx1112basic_stringIcSt11char_traitsIcESaIcEEESt8functionIFSt10unique_ptrI19InspectionSubServerSt14default_deleteIS9_EEvEEESaISF_EE12_Vector_implC2Ev
	.type	_ZNSt12_Vector_baseISt4pairINSt7__cxx1112basic_stringIcSt11char_traitsIcESaIcEEESt8functionIFSt10unique_ptrI19InspectionSubServerSt14default_deleteIS9_EEvEEESaISF_EE12_Vector_implC2Ev, @function
_ZNSt12_Vector_baseISt4pairINSt7__cxx1112basic_stringIcSt11char_traitsIcESaIcEEESt8functionIFSt10unique_ptrI19InspectionSubServerSt14default_deleteIS9_EEvEEESaISF_EE12_Vector_implC2Ev:
.LFB6247:
	.cfi_startproc
	endbr64
	pushq	%rbp
	.cfi_def_cfa_offset 16
	.cfi_offset 6, -16
	movq	%rsp, %rbp
	.cfi_def_cfa_register 6
	subq	$16, %rsp
	movq	%rdi, -8(%rbp)
	movq	-8(%rbp), %rax
	movq	%rax, %rdi
	call	_ZNSaISt4pairINSt7__cxx1112basic_stringIcSt11char_traitsIcESaIcEEESt8functionIFSt10unique_ptrI19InspectionSubServerSt14default_deleteIS8_EEvEEEEC2Ev@PLT
	movq	-8(%rbp), %rax
	movq	%rax, %rdi
	call	_ZNSt12_Vector_baseISt4pairINSt7__cxx1112basic_stringIcSt11char_traitsIcESaIcEEESt8functionIFSt10unique_ptrI19InspectionSubServerSt14default_deleteIS9_EEvEEESaISF_EE17_Vector_impl_dataC2Ev@PLT
	nop
	leave
	.cfi_def_cfa 7, 8
	ret
	.cfi_endproc
.LFE6247:
	.size	_ZNSt12_Vector_baseISt4pairINSt7__cxx1112basic_stringIcSt11char_traitsIcESaIcEEESt8functionIFSt10unique_ptrI19InspectionSubServerSt14default_deleteIS9_EEvEEESaISF_EE12_Vector_implC2Ev, .-_ZNSt12_Vector_baseISt4pairINSt7__cxx1112basic_stringIcSt11char_traitsIcESaIcEEESt8functionIFSt10unique_ptrI19InspectionSubServerSt14default_deleteIS9_EEvEEESaISF_EE12_Vector_implC2Ev
	.weak	_ZNSt12_Vector_baseISt4pairINSt7__cxx1112basic_stringIcSt11char_traitsIcESaIcEEESt8functionIFSt10unique_ptrI19InspectionSubServerSt14default_deleteIS9_EEvEEESaISF_EE12_Vector_implC1Ev
	.set	_ZNSt12_Vector_baseISt4pairINSt7__cxx1112basic_stringIcSt11char_traitsIcESaIcEEESt8functionIFSt10unique_ptrI19InspectionSubServerSt14default_deleteIS9_EEvEEESaISF_EE12_Vector_implC1Ev,_ZNSt12_Vector_baseISt4pairINSt7__cxx1112basic_stringIcSt11char_traitsIcESaIcEEESt8functionIFSt10unique_ptrI19InspectionSubServerSt14default_deleteIS9_EEvEEESaISF_EE12_Vector_implC2Ev
	.section	.text._ZNSaISt4pairINSt7__cxx1112basic_stringIcSt11char_traitsIcESaIcEEESt8functionIFSt10unique_ptrI19InspectionSubServerSt14default_deleteIS8_EEvEEEED2Ev,"axG",@progbits,_ZNSaISt4pairINSt7__cxx1112basic_stringIcSt11char_traitsIcESaIcEEESt8functionIFSt10unique_ptrI19InspectionSubServerSt14default_deleteIS8_EEvEEEED5Ev,comdat
	.align 2
	.weak	_ZNSaISt4pairINSt7__cxx1112basic_stringIcSt11char_traitsIcESaIcEEESt8functionIFSt10unique_ptrI19InspectionSubServerSt14default_deleteIS8_EEvEEEED2Ev
	.type	_ZNSaISt4pairINSt7__cxx1112basic_stringIcSt11char_traitsIcESaIcEEESt8functionIFSt10unique_ptrI19InspectionSubServerSt14default_deleteIS8_EEvEEEED2Ev, @function
_ZNSaISt4pairINSt7__cxx1112basic_stringIcSt11char_traitsIcESaIcEEESt8functionIFSt10unique_ptrI19InspectionSubServerSt14default_deleteIS8_EEvEEEED2Ev:
.LFB6250:
	.cfi_startproc
	endbr64
	pushq	%rbp
	.cfi_def_cfa_offset 16
	.cfi_offset 6, -16
	movq	%rsp, %rbp
	.cfi_def_cfa_register 6
	subq	$16, %rsp
	movq	%rdi, -8(%rbp)
	movq	-8(%rbp), %rax
	movq	%rax, %rdi
	call	_ZN9__gnu_cxx13new_allocatorISt4pairINSt7__cxx1112basic_stringIcSt11char_traitsIcESaIcEEESt8functionIFSt10unique_ptrI19InspectionSubServerSt14default_deleteISA_EEvEEEED2Ev@PLT
	nop
	leave
	.cfi_def_cfa 7, 8
	ret
	.cfi_endproc
.LFE6250:
	.size	_ZNSaISt4pairINSt7__cxx1112basic_stringIcSt11char_traitsIcESaIcEEESt8functionIFSt10unique_ptrI19InspectionSubServerSt14default_deleteIS8_EEvEEEED2Ev, .-_ZNSaISt4pairINSt7__cxx1112basic_stringIcSt11char_traitsIcESaIcEEESt8functionIFSt10unique_ptrI19InspectionSubServerSt14default_deleteIS8_EEvEEEED2Ev
	.weak	_ZNSaISt4pairINSt7__cxx1112basic_stringIcSt11char_traitsIcESaIcEEESt8functionIFSt10unique_ptrI19InspectionSubServerSt14default_deleteIS8_EEvEEEED1Ev
	.set	_ZNSaISt4pairINSt7__cxx1112basic_stringIcSt11char_traitsIcESaIcEEESt8functionIFSt10unique_ptrI19InspectionSubServerSt14default_deleteIS8_EEvEEEED1Ev,_ZNSaISt4pairINSt7__cxx1112basic_stringIcSt11char_traitsIcESaIcEEESt8functionIFSt10unique_ptrI19InspectionSubServerSt14default_deleteIS8_EEvEEEED2Ev
	.section	.text._ZNSt12_Vector_baseISt4pairINSt7__cxx1112basic_stringIcSt11char_traitsIcESaIcEEESt8functionIFSt10unique_ptrI19InspectionSubServerSt14default_deleteIS9_EEvEEESaISF_EED2Ev,"axG",@progbits,_ZNSt12_Vector_baseISt4pairINSt7__cxx1112basic_stringIcSt11char_traitsIcESaIcEEESt8functionIFSt10unique_ptrI19InspectionSubServerSt14default_deleteIS9_EEvEEESaISF_EED5Ev,comdat
	.align 2
	.weak	_ZNSt12_Vector_baseISt4pairINSt7__cxx1112basic_stringIcSt11char_traitsIcESaIcEEESt8functionIFSt10unique_ptrI19InspectionSubServerSt14default_deleteIS9_EEvEEESaISF_EED2Ev
	.type	_ZNSt12_Vector_baseISt4pairINSt7__cxx1112basic_stringIcSt11char_traitsIcESaIcEEESt8functionIFSt10unique_ptrI19InspectionSubServerSt14default_deleteIS9_EEvEEESaISF_EED2Ev, @function
_ZNSt12_Vector_baseISt4pairINSt7__cxx1112basic_stringIcSt11char_traitsIcESaIcEEESt8functionIFSt10unique_ptrI19InspectionSubServerSt14default_deleteIS9_EEvEEESaISF_EED2Ev:
.LFB6253:
	.cfi_startproc
	.cfi_personality 0x9b,DW.ref.__gxx_personality_v0
	.cfi_lsda 0x1b,.LLSDA6253
	endbr64
	pushq	%rbp
	.cfi_def_cfa_offset 16
	.cfi_offset 6, -16
	movq	%rsp, %rbp
	.cfi_def_cfa_register 6
	subq	$16, %rsp
	movq	%rdi, -8(%rbp)
	movq	-8(%rbp), %rax
	movq	16(%rax), %rdx
	movq	-8(%rbp), %rax
	movq	(%rax), %rax
	subq	%rax, %rdx
	movq	%rdx, %rax
	sarq	$6, %rax
	movq	%rax, %rdx
	movq	-8(%rbp), %rax
	movq	(%rax), %rcx
	movq	-8(%rbp), %rax
	movq	%rcx, %rsi
	movq	%rax, %rdi
	call	_ZNSt12_Vector_baseISt4pairINSt7__cxx1112basic_stringIcSt11char_traitsIcESaIcEEESt8functionIFSt10unique_ptrI19InspectionSubServerSt14default_deleteIS9_EEvEEESaISF_EE13_M_deallocateEPSF_m@PLT
	movq	-8(%rbp), %rax
	movq	%rax, %rdi
	call	_ZNSt12_Vector_baseISt4pairINSt7__cxx1112basic_stringIcSt11char_traitsIcESaIcEEESt8functionIFSt10unique_ptrI19InspectionSubServerSt14default_deleteIS9_EEvEEESaISF_EE12_Vector_implD1Ev@PLT
	nop
	leave
	.cfi_def_cfa 7, 8
	ret
	.cfi_endproc
.LFE6253:
	.section	.gcc_except_table
.LLSDA6253:
	.byte	0xff
	.byte	0xff
	.byte	0x1
	.uleb128 .LLSDACSE6253-.LLSDACSB6253
.LLSDACSB6253:
.LLSDACSE6253:
	.section	.text._ZNSt12_Vector_baseISt4pairINSt7__cxx1112basic_stringIcSt11char_traitsIcESaIcEEESt8functionIFSt10unique_ptrI19InspectionSubServerSt14default_deleteIS9_EEvEEESaISF_EED2Ev,"axG",@progbits,_ZNSt12_Vector_baseISt4pairINSt7__cxx1112basic_stringIcSt11char_traitsIcESaIcEEESt8functionIFSt10unique_ptrI19InspectionSubServerSt14default_deleteIS9_EEvEEESaISF_EED5Ev,comdat
	.size	_ZNSt12_Vector_baseISt4pairINSt7__cxx1112basic_stringIcSt11char_traitsIcESaIcEEESt8functionIFSt10unique_ptrI19InspectionSubServerSt14default_deleteIS9_EEvEEESaISF_EED2Ev, .-_ZNSt12_Vector_baseISt4pairINSt7__cxx1112basic_stringIcSt11char_traitsIcESaIcEEESt8functionIFSt10unique_ptrI19InspectionSubServerSt14default_deleteIS9_EEvEEESaISF_EED2Ev
	.weak	_ZNSt12_Vector_baseISt4pairINSt7__cxx1112basic_stringIcSt11char_traitsIcESaIcEEESt8functionIFSt10unique_ptrI19InspectionSubServerSt14default_deleteIS9_EEvEEESaISF_EED1Ev
	.set	_ZNSt12_Vector_baseISt4pairINSt7__cxx1112basic_stringIcSt11char_traitsIcESaIcEEESt8functionIFSt10unique_ptrI19InspectionSubServerSt14default_deleteIS9_EEvEEESaISF_EED1Ev,_ZNSt12_Vector_baseISt4pairINSt7__cxx1112basic_stringIcSt11char_traitsIcESaIcEEESt8functionIFSt10unique_ptrI19InspectionSubServerSt14default_deleteIS9_EEvEEESaISF_EED2Ev
	.section	.text._ZNSt6vectorISt4pairINSt7__cxx1112basic_stringIcSt11char_traitsIcESaIcEEESt8functionIFSt10unique_ptrI19InspectionSubServerSt14default_deleteIS9_EEvEEESaISF_EED2Ev,"axG",@progbits,_ZNSt6vectorISt4pairINSt7__cxx1112basic_stringIcSt11char_traitsIcESaIcEEESt8functionIFSt10unique_ptrI19InspectionSubServerSt14default_deleteIS9_EEvEEESaISF_EED5Ev,comdat
	.align 2
	.weak	_ZNSt6vectorISt4pairINSt7__cxx1112basic_stringIcSt11char_traitsIcESaIcEEESt8functionIFSt10unique_ptrI19InspectionSubServerSt14default_deleteIS9_EEvEEESaISF_EED2Ev
	.type	_ZNSt6vectorISt4pairINSt7__cxx1112basic_stringIcSt11char_traitsIcESaIcEEESt8functionIFSt10unique_ptrI19InspectionSubServerSt14default_deleteIS9_EEvEEESaISF_EED2Ev, @function
_ZNSt6vectorISt4pairINSt7__cxx1112basic_stringIcSt11char_traitsIcESaIcEEESt8functionIFSt10unique_ptrI19InspectionSubServerSt14default_deleteIS9_EEvEEESaISF_EED2Ev:
.LFB6256:
	.cfi_startproc
	.cfi_personality 0x9b,DW.ref.__gxx_personality_v0
	.cfi_lsda 0x1b,.LLSDA6256
	endbr64
	pushq	%rbp
	.cfi_def_cfa_offset 16
	.cfi_offset 6, -16
	movq	%rsp, %rbp
	.cfi_def_cfa_register 6
	subq	$16, %rsp
	movq	%rdi, -8(%rbp)
	movq	-8(%rbp), %rax
	movq	%rax, %rdi
	call	_ZNSt12_Vector_baseISt4pairINSt7__cxx1112basic_stringIcSt11char_traitsIcESaIcEEESt8functionIFSt10unique_ptrI19InspectionSubServerSt14default_deleteIS9_EEvEEESaISF_EE19_M_get_Tp_allocatorEv@PLT
	movq	%rax, %rdx
	movq	-8(%rbp), %rax
	movq	8(%rax), %rcx
	movq	-8(%rbp), %rax
	movq	(%rax), %rax
	movq	%rcx, %rsi
	movq	%rax, %rdi
	call	_ZSt8_DestroyIPSt4pairINSt7__cxx1112basic_stringIcSt11char_traitsIcESaIcEEESt8functionIFSt10unique_ptrI19InspectionSubServerSt14default_deleteIS9_EEvEEESF_EvT_SH_RSaIT0_E@PLT
	movq	-8(%rbp), %rax
	movq	%rax, %rdi
	call	_ZNSt12_Vector_baseISt4pairINSt7__cxx1112basic_stringIcSt11char_traitsIcESaIcEEESt8functionIFSt10unique_ptrI19InspectionSubServerSt14default_deleteIS9_EEvEEESaISF_EED2Ev@PLT
	nop
	leave
	.cfi_def_cfa 7, 8
	ret
	.cfi_endproc
.LFE6256:
	.section	.gcc_except_table
.LLSDA6256:
	.byte	0xff
	.byte	0xff
	.byte	0x1
	.uleb128 .LLSDACSE6256-.LLSDACSB6256
.LLSDACSB6256:
.LLSDACSE6256:
	.section	.text._ZNSt6vectorISt4pairINSt7__cxx1112basic_stringIcSt11char_traitsIcESaIcEEESt8functionIFSt10unique_ptrI19InspectionSubServerSt14default_deleteIS9_EEvEEESaISF_EED2Ev,"axG",@progbits,_ZNSt6vectorISt4pairINSt7__cxx1112basic_stringIcSt11char_traitsIcESaIcEEESt8functionIFSt10unique_ptrI19InspectionSubServerSt14default_deleteIS9_EEvEEESaISF_EED5Ev,comdat
	.size	_ZNSt6vectorISt4pairINSt7__cxx1112basic_stringIcSt11char_traitsIcESaIcEEESt8functionIFSt10unique_ptrI19InspectionSubServerSt14default_deleteIS9_EEvEEESaISF_EED2Ev, .-_ZNSt6vectorISt4pairINSt7__cxx1112basic_stringIcSt11char_traitsIcESaIcEEESt8functionIFSt10unique_ptrI19InspectionSubServerSt14default_deleteIS9_EEvEEESaISF_EED2Ev
	.weak	_ZNSt6vectorISt4pairINSt7__cxx1112basic_stringIcSt11char_traitsIcESaIcEEESt8functionIFSt10unique_ptrI19InspectionSubServerSt14default_deleteIS9_EEvEEESaISF_EED1Ev
	.set	_ZNSt6vectorISt4pairINSt7__cxx1112basic_stringIcSt11char_traitsIcESaIcEEESt8functionIFSt10unique_ptrI19InspectionSubServerSt14default_deleteIS9_EEvEEESaISF_EED1Ev,_ZNSt6vectorISt4pairINSt7__cxx1112basic_stringIcSt11char_traitsIcESaIcEEESt8functionIFSt10unique_ptrI19InspectionSubServerSt14default_deleteIS9_EEvEEESaISF_EED2Ev
	.section	.text._ZNSt13unordered_mapINSt7__cxx1112basic_stringIcSt11char_traitsIcESaIcEEESt8functionIFSt10unique_ptrI19InspectionSubServerSt14default_deleteIS8_EEvEESt4hashIS5_ESt8equal_toIS5_ESaISt4pairIKS5_SD_EEE5beginEv,"axG",@progbits,_ZNSt13unordered_mapINSt7__cxx1112basic_stringIcSt11char_traitsIcESaIcEEESt8functionIFSt10unique_ptrI19InspectionSubServerSt14default_deleteIS8_EEvEESt4hashIS5_ESt8equal_toIS5_ESaISt4pairIKS5_SD_EEE5beginEv,comdat
	.align 2
	.weak	_ZNSt13unordered_mapINSt7__cxx1112basic_stringIcSt11char_traitsIcESaIcEEESt8functionIFSt10unique_ptrI19InspectionSubServerSt14default_deleteIS8_EEvEESt4hashIS5_ESt8equal_toIS5_ESaISt4pairIKS5_SD_EEE5beginEv
	.type	_ZNSt13unordered_mapINSt7__cxx1112basic_stringIcSt11char_traitsIcESaIcEEESt8functionIFSt10unique_ptrI19InspectionSubServerSt14default_deleteIS8_EEvEESt4hashIS5_ESt8equal_toIS5_ESaISt4pairIKS5_SD_EEE5beginEv, @function
_ZNSt13unordered_mapINSt7__cxx1112basic_stringIcSt11char_traitsIcESaIcEEESt8functionIFSt10unique_ptrI19InspectionSubServerSt14default_deleteIS8_EEvEESt4hashIS5_ESt8equal_toIS5_ESaISt4pairIKS5_SD_EEE5beginEv:
.LFB6258:
	.cfi_startproc
	endbr64
	pushq	%rbp
	.cfi_def_cfa_offset 16
	.cfi_offset 6, -16
	movq	%rsp, %rbp
	.cfi_def_cfa_register 6
	subq	$16, %rsp
	movq	%rdi, -8(%rbp)
	movq	-8(%rbp), %rax
	movq	%rax, %rdi
	call	_ZNSt10_HashtableINSt7__cxx1112basic_stringIcSt11char_traitsIcESaIcEEESt4pairIKS5_St8functionIFSt10unique_ptrI19InspectionSubServerSt14default_deleteISA_EEvEEESaISG_ENSt8__detail10_Select1stESt8equal_toIS5_ESt4hashIS5_ENSI_18_Mod_range_hashingENSI_20_Default_ranged_hashENSI_20_Prime_rehash_policyENSI_17_Hashtable_traitsILb1ELb0ELb1EEEE5beginEv@PLT
	leave
	.cfi_def_cfa 7, 8
	ret
	.cfi_endproc
.LFE6258:
	.size	_ZNSt13unordered_mapINSt7__cxx1112basic_stringIcSt11char_traitsIcESaIcEEESt8functionIFSt10unique_ptrI19InspectionSubServerSt14default_deleteIS8_EEvEESt4hashIS5_ESt8equal_toIS5_ESaISt4pairIKS5_SD_EEE5beginEv, .-_ZNSt13unordered_mapINSt7__cxx1112basic_stringIcSt11char_traitsIcESaIcEEESt8functionIFSt10unique_ptrI19InspectionSubServerSt14default_deleteIS8_EEvEESt4hashIS5_ESt8equal_toIS5_ESaISt4pairIKS5_SD_EEE5beginEv
	.section	.text._ZNSt13unordered_mapINSt7__cxx1112basic_stringIcSt11char_traitsIcESaIcEEESt8functionIFSt10unique_ptrI19InspectionSubServerSt14default_deleteIS8_EEvEESt4hashIS5_ESt8equal_toIS5_ESaISt4pairIKS5_SD_EEE3endEv,"axG",@progbits,_ZNSt13unordered_mapINSt7__cxx1112basic_stringIcSt11char_traitsIcESaIcEEESt8functionIFSt10unique_ptrI19InspectionSubServerSt14default_deleteIS8_EEvEESt4hashIS5_ESt8equal_toIS5_ESaISt4pairIKS5_SD_EEE3endEv,comdat
	.align 2
	.weak	_ZNSt13unordered_mapINSt7__cxx1112basic_stringIcSt11char_traitsIcESaIcEEESt8functionIFSt10unique_ptrI19InspectionSubServerSt14default_deleteIS8_EEvEESt4hashIS5_ESt8equal_toIS5_ESaISt4pairIKS5_SD_EEE3endEv
	.type	_ZNSt13unordered_mapINSt7__cxx1112basic_stringIcSt11char_traitsIcESaIcEEESt8functionIFSt10unique_ptrI19InspectionSubServerSt14default_deleteIS8_EEvEESt4hashIS5_ESt8equal_toIS5_ESaISt4pairIKS5_SD_EEE3endEv, @function
_ZNSt13unordered_mapINSt7__cxx1112basic_stringIcSt11char_traitsIcESaIcEEESt8functionIFSt10unique_ptrI19InspectionSubServerSt14default_deleteIS8_EEvEESt4hashIS5_ESt8equal_toIS5_ESaISt4pairIKS5_SD_EEE3endEv:
.LFB6259:
	.cfi_startproc
	endbr64
	pushq	%rbp
	.cfi_def_cfa_offset 16
	.cfi_offset 6, -16
	movq	%rsp, %rbp
	.cfi_def_cfa_register 6
	subq	$16, %rsp
	movq	%rdi, -8(%rbp)
	movq	-8(%rbp), %rax
	movq	%rax, %rdi
	call	_ZNSt10_HashtableINSt7__cxx1112basic_stringIcSt11char_traitsIcESaIcEEESt4pairIKS5_St8functionIFSt10unique_ptrI19InspectionSubServerSt14default_deleteISA_EEvEEESaISG_ENSt8__detail10_Select1stESt8equal_toIS5_ESt4hashIS5_ENSI_18_Mod_range_hashingENSI_20_Default_ranged_hashENSI_20_Prime_rehash_policyENSI_17_Hashtable_traitsILb1ELb0ELb1EEEE3endEv@PLT
	leave
	.cfi_def_cfa 7, 8
	ret
	.cfi_endproc
.LFE6259:
	.size	_ZNSt13unordered_mapINSt7__cxx1112basic_stringIcSt11char_traitsIcESaIcEEESt8functionIFSt10unique_ptrI19InspectionSubServerSt14default_deleteIS8_EEvEESt4hashIS5_ESt8equal_toIS5_ESaISt4pairIKS5_SD_EEE3endEv, .-_ZNSt13unordered_mapINSt7__cxx1112basic_stringIcSt11char_traitsIcESaIcEEESt8functionIFSt10unique_ptrI19InspectionSubServerSt14default_deleteIS8_EEvEESt4hashIS5_ESt8equal_toIS5_ESaISt4pairIKS5_SD_EEE3endEv
	.section	.text._ZNSt8__detailneISt4pairIKNSt7__cxx1112basic_stringIcSt11char_traitsIcESaIcEEESt8functionIFSt10unique_ptrI19InspectionSubServerSt14default_deleteISB_EEvEEELb1EEEbRKNS_19_Node_iterator_baseIT_XT0_EEESM_,"axG",@progbits,_ZNSt8__detailneISt4pairIKNSt7__cxx1112basic_stringIcSt11char_traitsIcESaIcEEESt8functionIFSt10unique_ptrI19InspectionSubServerSt14default_deleteISB_EEvEEELb1EEEbRKNS_19_Node_iterator_baseIT_XT0_EEESM_,comdat
	.weak	_ZNSt8__detailneISt4pairIKNSt7__cxx1112basic_stringIcSt11char_traitsIcESaIcEEESt8functionIFSt10unique_ptrI19InspectionSubServerSt14default_deleteISB_EEvEEELb1EEEbRKNS_19_Node_iterator_baseIT_XT0_EEESM_
	.type	_ZNSt8__detailneISt4pairIKNSt7__cxx1112basic_stringIcSt11char_traitsIcESaIcEEESt8functionIFSt10unique_ptrI19InspectionSubServerSt14default_deleteISB_EEvEEELb1EEEbRKNS_19_Node_iterator_baseIT_XT0_EEESM_, @function
_ZNSt8__detailneISt4pairIKNSt7__cxx1112basic_stringIcSt11char_traitsIcESaIcEEESt8functionIFSt10unique_ptrI19InspectionSubServerSt14default_deleteISB_EEvEEELb1EEEbRKNS_19_Node_iterator_baseIT_XT0_EEESM_:
.LFB6260:
	.cfi_startproc
	endbr64
	pushq	%rbp
	.cfi_def_cfa_offset 16
	.cfi_offset 6, -16
	movq	%rsp, %rbp
	.cfi_def_cfa_register 6
	movq	%rdi, -8(%rbp)
	movq	%rsi, -16(%rbp)
	movq	-8(%rbp), %rax
	movq	(%rax), %rdx
	movq	-16(%rbp), %rax
	movq	(%rax), %rax
	cmpq	%rax, %rdx
	setne	%al
	popq	%rbp
	.cfi_def_cfa 7, 8
	ret
	.cfi_endproc
.LFE6260:
	.size	_ZNSt8__detailneISt4pairIKNSt7__cxx1112basic_stringIcSt11char_traitsIcESaIcEEESt8functionIFSt10unique_ptrI19InspectionSubServerSt14default_deleteISB_EEvEEELb1EEEbRKNS_19_Node_iterator_baseIT_XT0_EEESM_, .-_ZNSt8__detailneISt4pairIKNSt7__cxx1112basic_stringIcSt11char_traitsIcESaIcEEESt8functionIFSt10unique_ptrI19InspectionSubServerSt14default_deleteISB_EEvEEELb1EEEbRKNS_19_Node_iterator_baseIT_XT0_EEESM_
	.section	.text._ZNSt8__detail14_Node_iteratorISt4pairIKNSt7__cxx1112basic_stringIcSt11char_traitsIcESaIcEEESt8functionIFSt10unique_ptrI19InspectionSubServerSt14default_deleteISB_EEvEEELb0ELb1EEppEv,"axG",@progbits,_ZNSt8__detail14_Node_iteratorISt4pairIKNSt7__cxx1112basic_stringIcSt11char_traitsIcESaIcEEESt8functionIFSt10unique_ptrI19InspectionSubServerSt14default_deleteISB_EEvEEELb0ELb1EEppEv,comdat
	.align 2
	.weak	_ZNSt8__detail14_Node_iteratorISt4pairIKNSt7__cxx1112basic_stringIcSt11char_traitsIcESaIcEEESt8functionIFSt10unique_ptrI19InspectionSubServerSt14default_deleteISB_EEvEEELb0ELb1EEppEv
	.type	_ZNSt8__detail14_Node_iteratorISt4pairIKNSt7__cxx1112basic_stringIcSt11char_traitsIcESaIcEEESt8functionIFSt10unique_ptrI19InspectionSubServerSt14default_deleteISB_EEvEEELb0ELb1EEppEv, @function
_ZNSt8__detail14_Node_iteratorISt4pairIKNSt7__cxx1112basic_stringIcSt11char_traitsIcESaIcEEESt8functionIFSt10unique_ptrI19InspectionSubServerSt14default_deleteISB_EEvEEELb0ELb1EEppEv:
.LFB6261:
	.cfi_startproc
	endbr64
	pushq	%rbp
	.cfi_def_cfa_offset 16
	.cfi_offset 6, -16
	movq	%rsp, %rbp
	.cfi_def_cfa_register 6
	subq	$16, %rsp
	movq	%rdi, -8(%rbp)
	movq	-8(%rbp), %rax
	movq	%rax, %rdi
	call	_ZNSt8__detail19_Node_iterator_baseISt4pairIKNSt7__cxx1112basic_stringIcSt11char_traitsIcESaIcEEESt8functionIFSt10unique_ptrI19InspectionSubServerSt14default_deleteISB_EEvEEELb1EE7_M_incrEv@PLT
	movq	-8(%rbp), %rax
	leave
	.cfi_def_cfa 7, 8
	ret
	.cfi_endproc
.LFE6261:
	.size	_ZNSt8__detail14_Node_iteratorISt4pairIKNSt7__cxx1112basic_stringIcSt11char_traitsIcESaIcEEESt8functionIFSt10unique_ptrI19InspectionSubServerSt14default_deleteISB_EEvEEELb0ELb1EEppEv, .-_ZNSt8__detail14_Node_iteratorISt4pairIKNSt7__cxx1112basic_stringIcSt11char_traitsIcESaIcEEESt8functionIFSt10unique_ptrI19InspectionSubServerSt14default_deleteISB_EEvEEELb0ELb1EEppEv
	.section	.text._ZNKSt8__detail14_Node_iteratorISt4pairIKNSt7__cxx1112basic_stringIcSt11char_traitsIcESaIcEEESt8functionIFSt10unique_ptrI19InspectionSubServerSt14default_deleteISB_EEvEEELb0ELb1EEdeEv,"axG",@progbits,_ZNKSt8__detail14_Node_iteratorISt4pairIKNSt7__cxx1112basic_stringIcSt11char_traitsIcESaIcEEESt8functionIFSt10unique_ptrI19InspectionSubServerSt14default_deleteISB_EEvEEELb0ELb1EEdeEv,comdat
	.align 2
	.weak	_ZNKSt8__detail14_Node_iteratorISt4pairIKNSt7__cxx1112basic_stringIcSt11char_traitsIcESaIcEEESt8functionIFSt10unique_ptrI19InspectionSubServerSt14default_deleteISB_EEvEEELb0ELb1EEdeEv
	.type	_ZNKSt8__detail14_Node_iteratorISt4pairIKNSt7__cxx1112basic_stringIcSt11char_traitsIcESaIcEEESt8functionIFSt10unique_ptrI19InspectionSubServerSt14default_deleteISB_EEvEEELb0ELb1EEdeEv, @function
_ZNKSt8__detail14_Node_iteratorISt4pairIKNSt7__cxx1112basic_stringIcSt11char_traitsIcESaIcEEESt8functionIFSt10unique_ptrI19InspectionSubServerSt14default_deleteISB_EEvEEELb0ELb1EEdeEv:
.LFB6262:
	.cfi_startproc
	endbr64
	pushq	%rbp
	.cfi_def_cfa_offset 16
	.cfi_offset 6, -16
	movq	%rsp, %rbp
	.cfi_def_cfa_register 6
	subq	$16, %rsp
	movq	%rdi, -8(%rbp)
	movq	-8(%rbp), %rax
	movq	(%rax), %rax
	movq	%rax, %rdi
	call	_ZNSt8__detail21_Hash_node_value_baseISt4pairIKNSt7__cxx1112basic_stringIcSt11char_traitsIcESaIcEEESt8functionIFSt10unique_ptrI19InspectionSubServerSt14default_deleteISB_EEvEEEE4_M_vEv@PLT
	leave
	.cfi_def_cfa 7, 8
	ret
	.cfi_endproc
.LFE6262:
	.size	_ZNKSt8__detail14_Node_iteratorISt4pairIKNSt7__cxx1112basic_stringIcSt11char_traitsIcESaIcEEESt8functionIFSt10unique_ptrI19InspectionSubServerSt14default_deleteISB_EEvEEELb0ELb1EEdeEv, .-_ZNKSt8__detail14_Node_iteratorISt4pairIKNSt7__cxx1112basic_stringIcSt11char_traitsIcESaIcEEESt8functionIFSt10unique_ptrI19InspectionSubServerSt14default_deleteISB_EEvEEELb0ELb1EEdeEv
	.section	.text._ZNSt4pairINSt7__cxx1112basic_stringIcSt11char_traitsIcESaIcEEESt8functionIFSt10unique_ptrI19InspectionSubServerSt14default_deleteIS8_EEvEEEC2IKS5_SD_Lb1EEERKS_IT_T0_E,"axG",@progbits,_ZNSt4pairINSt7__cxx1112basic_stringIcSt11char_traitsIcESaIcEEESt8functionIFSt10unique_ptrI19InspectionSubServerSt14default_deleteIS8_EEvEEEC5IKS5_SD_Lb1EEERKS_IT_T0_E,comdat
	.align 2
	.weak	_ZNSt4pairINSt7__cxx1112basic_stringIcSt11char_traitsIcESaIcEEESt8functionIFSt10unique_ptrI19InspectionSubServerSt14default_deleteIS8_EEvEEEC2IKS5_SD_Lb1EEERKS_IT_T0_E
	.type	_ZNSt4pairINSt7__cxx1112basic_stringIcSt11char_traitsIcESaIcEEESt8functionIFSt10unique_ptrI19InspectionSubServerSt14default_deleteIS8_EEvEEEC2IKS5_SD_Lb1EEERKS_IT_T0_E, @function
_ZNSt4pairINSt7__cxx1112basic_stringIcSt11char_traitsIcESaIcEEESt8functionIFSt10unique_ptrI19InspectionSubServerSt14default_deleteIS8_EEvEEEC2IKS5_SD_Lb1EEERKS_IT_T0_E:
.LFB6264:
	.cfi_startproc
	.cfi_personality 0x9b,DW.ref.__gxx_personality_v0
	.cfi_lsda 0x1b,.LLSDA6264
	endbr64
	pushq	%rbp
	.cfi_def_cfa_offset 16
	.cfi_offset 6, -16
	movq	%rsp, %rbp
	.cfi_def_cfa_register 6
	pushq	%rbx
	subq	$24, %rsp
	.cfi_offset 3, -24
	movq	%rdi, -24(%rbp)
	movq	%rsi, -32(%rbp)
	movq	-24(%rbp), %rax
	movq	-32(%rbp), %rdx
	movq	%rdx, %rsi
	movq	%rax, %rdi
.LEHB11:
	call	_ZNSt7__cxx1112basic_stringIcSt11char_traitsIcESaIcEEC1ERKS4_@PLT
.LEHE11:
	movq	-24(%rbp), %rax
	addq	$32, %rax
	movq	-32(%rbp), %rdx
	addq	$32, %rdx
	movq	%rdx, %rsi
	movq	%rax, %rdi
.LEHB12:
	call	_ZNSt8functionIFSt10unique_ptrI19InspectionSubServerSt14default_deleteIS1_EEvEEC1ERKS6_@PLT
.LEHE12:
	jmp	.L207
.L206:
	endbr64
	movq	%rax, %rbx
	movq	-24(%rbp), %rax
	movq	%rax, %rdi
	call	_ZNSt7__cxx1112basic_stringIcSt11char_traitsIcESaIcEED1Ev@PLT
	movq	%rbx, %rax
	movq	%rax, %rdi
.LEHB13:
	call	_Unwind_Resume@PLT
.LEHE13:
.L207:
	addq	$24, %rsp
	popq	%rbx
	popq	%rbp
	.cfi_def_cfa 7, 8
	ret
	.cfi_endproc
.LFE6264:
	.section	.gcc_except_table
.LLSDA6264:
	.byte	0xff
	.byte	0xff
	.byte	0x1
	.uleb128 .LLSDACSE6264-.LLSDACSB6264
.LLSDACSB6264:
	.uleb128 .LEHB11-.LFB6264
	.uleb128 .LEHE11-.LEHB11
	.uleb128 0
	.uleb128 0
	.uleb128 .LEHB12-.LFB6264
	.uleb128 .LEHE12-.LEHB12
	.uleb128 .L206-.LFB6264
	.uleb128 0
	.uleb128 .LEHB13-.LFB6264
	.uleb128 .LEHE13-.LEHB13
	.uleb128 0
	.uleb128 0
.LLSDACSE6264:
	.section	.text._ZNSt4pairINSt7__cxx1112basic_stringIcSt11char_traitsIcESaIcEEESt8functionIFSt10unique_ptrI19InspectionSubServerSt14default_deleteIS8_EEvEEEC2IKS5_SD_Lb1EEERKS_IT_T0_E,"axG",@progbits,_ZNSt4pairINSt7__cxx1112basic_stringIcSt11char_traitsIcESaIcEEESt8functionIFSt10unique_ptrI19InspectionSubServerSt14default_deleteIS8_EEvEEEC5IKS5_SD_Lb1EEERKS_IT_T0_E,comdat
	.size	_ZNSt4pairINSt7__cxx1112basic_stringIcSt11char_traitsIcESaIcEEESt8functionIFSt10unique_ptrI19InspectionSubServerSt14default_deleteIS8_EEvEEEC2IKS5_SD_Lb1EEERKS_IT_T0_E, .-_ZNSt4pairINSt7__cxx1112basic_stringIcSt11char_traitsIcESaIcEEESt8functionIFSt10unique_ptrI19InspectionSubServerSt14default_deleteIS8_EEvEEEC2IKS5_SD_Lb1EEERKS_IT_T0_E
	.weak	_ZNSt4pairINSt7__cxx1112basic_stringIcSt11char_traitsIcESaIcEEESt8functionIFSt10unique_ptrI19InspectionSubServerSt14default_deleteIS8_EEvEEEC1IKS5_SD_Lb1EEERKS_IT_T0_E
	.set	_ZNSt4pairINSt7__cxx1112basic_stringIcSt11char_traitsIcESaIcEEESt8functionIFSt10unique_ptrI19InspectionSubServerSt14default_deleteIS8_EEvEEEC1IKS5_SD_Lb1EEERKS_IT_T0_E,_ZNSt4pairINSt7__cxx1112basic_stringIcSt11char_traitsIcESaIcEEESt8functionIFSt10unique_ptrI19InspectionSubServerSt14default_deleteIS8_EEvEEEC2IKS5_SD_Lb1EEERKS_IT_T0_E
	.section	.text._ZNSt6vectorISt4pairINSt7__cxx1112basic_stringIcSt11char_traitsIcESaIcEEESt8functionIFSt10unique_ptrI19InspectionSubServerSt14default_deleteIS9_EEvEEESaISF_EE9push_backEOSF_,"axG",@progbits,_ZNSt6vectorISt4pairINSt7__cxx1112basic_stringIcSt11char_traitsIcESaIcEEESt8functionIFSt10unique_ptrI19InspectionSubServerSt14default_deleteIS9_EEvEEESaISF_EE9push_backEOSF_,comdat
	.align 2
	.weak	_ZNSt6vectorISt4pairINSt7__cxx1112basic_stringIcSt11char_traitsIcESaIcEEESt8functionIFSt10unique_ptrI19InspectionSubServerSt14default_deleteIS9_EEvEEESaISF_EE9push_backEOSF_
	.type	_ZNSt6vectorISt4pairINSt7__cxx1112basic_stringIcSt11char_traitsIcESaIcEEESt8functionIFSt10unique_ptrI19InspectionSubServerSt14default_deleteIS9_EEvEEESaISF_EE9push_backEOSF_, @function
_ZNSt6vectorISt4pairINSt7__cxx1112basic_stringIcSt11char_traitsIcESaIcEEESt8functionIFSt10unique_ptrI19InspectionSubServerSt14default_deleteIS9_EEvEEESaISF_EE9push_backEOSF_:
.LFB6266:
	.cfi_startproc
	endbr64
	pushq	%rbp
	.cfi_def_cfa_offset 16
	.cfi_offset 6, -16
	movq	%rsp, %rbp
	.cfi_def_cfa_register 6
	subq	$16, %rsp
	movq	%rdi, -8(%rbp)
	movq	%rsi, -16(%rbp)
	movq	-16(%rbp), %rax
	movq	%rax, %rdi
	call	_ZSt4moveIRSt4pairINSt7__cxx1112basic_stringIcSt11char_traitsIcESaIcEEESt8functionIFSt10unique_ptrI19InspectionSubServerSt14default_deleteIS9_EEvEEEEONSt16remove_referenceIT_E4typeEOSI_@PLT
	movq	%rax, %rdx
	movq	-8(%rbp), %rax
	movq	%rdx, %rsi
	movq	%rax, %rdi
	call	_ZNSt6vectorISt4pairINSt7__cxx1112basic_stringIcSt11char_traitsIcESaIcEEESt8functionIFSt10unique_ptrI19InspectionSubServerSt14default_deleteIS9_EEvEEESaISF_EE12emplace_backIJSF_EEERSF_DpOT_@PLT
	nop
	leave
	.cfi_def_cfa 7, 8
	ret
	.cfi_endproc
.LFE6266:
	.size	_ZNSt6vectorISt4pairINSt7__cxx1112basic_stringIcSt11char_traitsIcESaIcEEESt8functionIFSt10unique_ptrI19InspectionSubServerSt14default_deleteIS9_EEvEEESaISF_EE9push_backEOSF_, .-_ZNSt6vectorISt4pairINSt7__cxx1112basic_stringIcSt11char_traitsIcESaIcEEESt8functionIFSt10unique_ptrI19InspectionSubServerSt14default_deleteIS9_EEvEEESaISF_EE9push_backEOSF_
	.section	.text._ZNSt7__cxx1112basic_stringIcSt11char_traitsIcESaIcEE12_M_constructIPKcEEvT_S8_,"axG",@progbits,_ZNSt7__cxx1112basic_stringIcSt11char_traitsIcESaIcEE12_M_constructIPKcEEvT_S8_,comdat
	.align 2
	.weak	_ZNSt7__cxx1112basic_stringIcSt11char_traitsIcESaIcEE12_M_constructIPKcEEvT_S8_
	.type	_ZNSt7__cxx1112basic_stringIcSt11char_traitsIcESaIcEE12_M_constructIPKcEEvT_S8_, @function
_ZNSt7__cxx1112basic_stringIcSt11char_traitsIcESaIcEE12_M_constructIPKcEEvT_S8_:
.LFB6292:
	.cfi_startproc
	endbr64
	pushq	%rbp
	.cfi_def_cfa_offset 16
	.cfi_offset 6, -16
	movq	%rsp, %rbp
	.cfi_def_cfa_register 6
	subq	$32, %rsp
	movq	%rdi, -8(%rbp)
	movq	%rsi, -16(%rbp)
	movq	%rdx, -24(%rbp)
	movq	-24(%rbp), %rdx
	movq	-16(%rbp), %rcx
	movq	-8(%rbp), %rax
	movq	%rcx, %rsi
	movq	%rax, %rdi
	call	_ZNSt7__cxx1112basic_stringIcSt11char_traitsIcESaIcEE16_M_construct_auxIPKcEEvT_S8_St12__false_type@PLT
	nop
	leave
	.cfi_def_cfa 7, 8
	ret
	.cfi_endproc
.LFE6292:
	.size	_ZNSt7__cxx1112basic_stringIcSt11char_traitsIcESaIcEE12_M_constructIPKcEEvT_S8_, .-_ZNSt7__cxx1112basic_stringIcSt11char_traitsIcESaIcEE12_M_constructIPKcEEvT_S8_
	.section	.text._ZN9__gnu_cxx13new_allocatorINSt8__detail10_Hash_nodeISt4pairIKNSt7__cxx1112basic_stringIcSt11char_traitsIcESaIcEEESt8functionIFSt10unique_ptrI19InspectionSubServerSt14default_deleteISD_EEvEEELb1EEEEC2Ev,"axG",@progbits,_ZN9__gnu_cxx13new_allocatorINSt8__detail10_Hash_nodeISt4pairIKNSt7__cxx1112basic_stringIcSt11char_traitsIcESaIcEEESt8functionIFSt10unique_ptrI19InspectionSubServerSt14default_deleteISD_EEvEEELb1EEEEC5Ev,comdat
	.align 2
	.weak	_ZN9__gnu_cxx13new_allocatorINSt8__detail10_Hash_nodeISt4pairIKNSt7__cxx1112basic_stringIcSt11char_traitsIcESaIcEEESt8functionIFSt10unique_ptrI19InspectionSubServerSt14default_deleteISD_EEvEEELb1EEEEC2Ev
	.type	_ZN9__gnu_cxx13new_allocatorINSt8__detail10_Hash_nodeISt4pairIKNSt7__cxx1112basic_stringIcSt11char_traitsIcESaIcEEESt8functionIFSt10unique_ptrI19InspectionSubServerSt14default_deleteISD_EEvEEELb1EEEEC2Ev, @function
_ZN9__gnu_cxx13new_allocatorINSt8__detail10_Hash_nodeISt4pairIKNSt7__cxx1112basic_stringIcSt11char_traitsIcESaIcEEESt8functionIFSt10unique_ptrI19InspectionSubServerSt14default_deleteISD_EEvEEELb1EEEEC2Ev:
.LFB6440:
	.cfi_startproc
	endbr64
	pushq	%rbp
	.cfi_def_cfa_offset 16
	.cfi_offset 6, -16
	movq	%rsp, %rbp
	.cfi_def_cfa_register 6
	movq	%rdi, -8(%rbp)
	nop
	popq	%rbp
	.cfi_def_cfa 7, 8
	ret
	.cfi_endproc
.LFE6440:
	.size	_ZN9__gnu_cxx13new_allocatorINSt8__detail10_Hash_nodeISt4pairIKNSt7__cxx1112basic_stringIcSt11char_traitsIcESaIcEEESt8functionIFSt10unique_ptrI19InspectionSubServerSt14default_deleteISD_EEvEEELb1EEEEC2Ev, .-_ZN9__gnu_cxx13new_allocatorINSt8__detail10_Hash_nodeISt4pairIKNSt7__cxx1112basic_stringIcSt11char_traitsIcESaIcEEESt8functionIFSt10unique_ptrI19InspectionSubServerSt14default_deleteISD_EEvEEELb1EEEEC2Ev
	.weak	_ZN9__gnu_cxx13new_allocatorINSt8__detail10_Hash_nodeISt4pairIKNSt7__cxx1112basic_stringIcSt11char_traitsIcESaIcEEESt8functionIFSt10unique_ptrI19InspectionSubServerSt14default_deleteISD_EEvEEELb1EEEEC1Ev
	.set	_ZN9__gnu_cxx13new_allocatorINSt8__detail10_Hash_nodeISt4pairIKNSt7__cxx1112basic_stringIcSt11char_traitsIcESaIcEEESt8functionIFSt10unique_ptrI19InspectionSubServerSt14default_deleteISD_EEvEEELb1EEEEC1Ev,_ZN9__gnu_cxx13new_allocatorINSt8__detail10_Hash_nodeISt4pairIKNSt7__cxx1112basic_stringIcSt11char_traitsIcESaIcEEESt8functionIFSt10unique_ptrI19InspectionSubServerSt14default_deleteISD_EEvEEELb1EEEEC2Ev
	.section	.text._ZN9__gnu_cxx13new_allocatorINSt8__detail10_Hash_nodeISt4pairIKNSt7__cxx1112basic_stringIcSt11char_traitsIcESaIcEEESt8functionIFSt10unique_ptrI19InspectionSubServerSt14default_deleteISD_EEvEEELb1EEEED2Ev,"axG",@progbits,_ZN9__gnu_cxx13new_allocatorINSt8__detail10_Hash_nodeISt4pairIKNSt7__cxx1112basic_stringIcSt11char_traitsIcESaIcEEESt8functionIFSt10unique_ptrI19InspectionSubServerSt14default_deleteISD_EEvEEELb1EEEED5Ev,comdat
	.align 2
	.weak	_ZN9__gnu_cxx13new_allocatorINSt8__detail10_Hash_nodeISt4pairIKNSt7__cxx1112basic_stringIcSt11char_traitsIcESaIcEEESt8functionIFSt10unique_ptrI19InspectionSubServerSt14default_deleteISD_EEvEEELb1EEEED2Ev
	.type	_ZN9__gnu_cxx13new_allocatorINSt8__detail10_Hash_nodeISt4pairIKNSt7__cxx1112basic_stringIcSt11char_traitsIcESaIcEEESt8functionIFSt10unique_ptrI19InspectionSubServerSt14default_deleteISD_EEvEEELb1EEEED2Ev, @function
_ZN9__gnu_cxx13new_allocatorINSt8__detail10_Hash_nodeISt4pairIKNSt7__cxx1112basic_stringIcSt11char_traitsIcESaIcEEESt8functionIFSt10unique_ptrI19InspectionSubServerSt14default_deleteISD_EEvEEELb1EEEED2Ev:
.LFB6443:
	.cfi_startproc
	endbr64
	pushq	%rbp
	.cfi_def_cfa_offset 16
	.cfi_offset 6, -16
	movq	%rsp, %rbp
	.cfi_def_cfa_register 6
	movq	%rdi, -8(%rbp)
	nop
	popq	%rbp
	.cfi_def_cfa 7, 8
	ret
	.cfi_endproc
.LFE6443:
	.size	_ZN9__gnu_cxx13new_allocatorINSt8__detail10_Hash_nodeISt4pairIKNSt7__cxx1112basic_stringIcSt11char_traitsIcESaIcEEESt8functionIFSt10unique_ptrI19InspectionSubServerSt14default_deleteISD_EEvEEELb1EEEED2Ev, .-_ZN9__gnu_cxx13new_allocatorINSt8__detail10_Hash_nodeISt4pairIKNSt7__cxx1112basic_stringIcSt11char_traitsIcESaIcEEESt8functionIFSt10unique_ptrI19InspectionSubServerSt14default_deleteISD_EEvEEELb1EEEED2Ev
	.weak	_ZN9__gnu_cxx13new_allocatorINSt8__detail10_Hash_nodeISt4pairIKNSt7__cxx1112basic_stringIcSt11char_traitsIcESaIcEEESt8functionIFSt10unique_ptrI19InspectionSubServerSt14default_deleteISD_EEvEEELb1EEEED1Ev
	.set	_ZN9__gnu_cxx13new_allocatorINSt8__detail10_Hash_nodeISt4pairIKNSt7__cxx1112basic_stringIcSt11char_traitsIcESaIcEEESt8functionIFSt10unique_ptrI19InspectionSubServerSt14default_deleteISD_EEvEEELb1EEEED1Ev,_ZN9__gnu_cxx13new_allocatorINSt8__detail10_Hash_nodeISt4pairIKNSt7__cxx1112basic_stringIcSt11char_traitsIcESaIcEEESt8functionIFSt10unique_ptrI19InspectionSubServerSt14default_deleteISD_EEvEEELb1EEEED2Ev
	.section	.text._ZNSt10_HashtableINSt7__cxx1112basic_stringIcSt11char_traitsIcESaIcEEESt4pairIKS5_St8functionIFSt10unique_ptrI19InspectionSubServerSt14default_deleteISA_EEvEEESaISG_ENSt8__detail10_Select1stESt8equal_toIS5_ESt4hashIS5_ENSI_18_Mod_range_hashingENSI_20_Default_ranged_hashENSI_20_Prime_rehash_policyENSI_17_Hashtable_traitsILb1ELb0ELb1EEEE5clearEv,"axG",@progbits,_ZNSt10_HashtableINSt7__cxx1112basic_stringIcSt11char_traitsIcESaIcEEESt4pairIKS5_St8functionIFSt10unique_ptrI19InspectionSubServerSt14default_deleteISA_EEvEEESaISG_ENSt8__detail10_Select1stESt8equal_toIS5_ESt4hashIS5_ENSI_18_Mod_range_hashingENSI_20_Default_ranged_hashENSI_20_Prime_rehash_policyENSI_17_Hashtable_traitsILb1ELb0ELb1EEEE5clearEv,comdat
	.align 2
	.weak	_ZNSt10_HashtableINSt7__cxx1112basic_stringIcSt11char_traitsIcESaIcEEESt4pairIKS5_St8functionIFSt10unique_ptrI19InspectionSubServerSt14default_deleteISA_EEvEEESaISG_ENSt8__detail10_Select1stESt8equal_toIS5_ESt4hashIS5_ENSI_18_Mod_range_hashingENSI_20_Default_ranged_hashENSI_20_Prime_rehash_policyENSI_17_Hashtable_traitsILb1ELb0ELb1EEEE5clearEv
	.type	_ZNSt10_HashtableINSt7__cxx1112basic_stringIcSt11char_traitsIcESaIcEEESt4pairIKS5_St8functionIFSt10unique_ptrI19InspectionSubServerSt14default_deleteISA_EEvEEESaISG_ENSt8__detail10_Select1stESt8equal_toIS5_ESt4hashIS5_ENSI_18_Mod_range_hashingENSI_20_Default_ranged_hashENSI_20_Prime_rehash_policyENSI_17_Hashtable_traitsILb1ELb0ELb1EEEE5clearEv, @function
_ZNSt10_HashtableINSt7__cxx1112basic_stringIcSt11char_traitsIcESaIcEEESt4pairIKS5_St8functionIFSt10unique_ptrI19InspectionSubServerSt14default_deleteISA_EEvEEESaISG_ENSt8__detail10_Select1stESt8equal_toIS5_ESt4hashIS5_ENSI_18_Mod_range_hashingENSI_20_Default_ranged_hashENSI_20_Prime_rehash_policyENSI_17_Hashtable_traitsILb1ELb0ELb1EEEE5clearEv:
.LFB6445:
	.cfi_startproc
	.cfi_personality 0x9b,DW.ref.__gxx_personality_v0
	.cfi_lsda 0x1b,.LLSDA6445
	endbr64
	pushq	%rbp
	.cfi_def_cfa_offset 16
	.cfi_offset 6, -16
	movq	%rsp, %rbp
	.cfi_def_cfa_register 6
	subq	$16, %rsp
	movq	%rdi, -8(%rbp)
	movq	-8(%rbp), %rax
	movq	%rax, %rdi
	call	_ZNKSt10_HashtableINSt7__cxx1112basic_stringIcSt11char_traitsIcESaIcEEESt4pairIKS5_St8functionIFSt10unique_ptrI19InspectionSubServerSt14default_deleteISA_EEvEEESaISG_ENSt8__detail10_Select1stESt8equal_toIS5_ESt4hashIS5_ENSI_18_Mod_range_hashingENSI_20_Default_ranged_hashENSI_20_Prime_rehash_policyENSI_17_Hashtable_traitsILb1ELb0ELb1EEEE8_M_beginEv@PLT
	movq	%rax, %rdx
	movq	-8(%rbp), %rax
	movq	%rdx, %rsi
	movq	%rax, %rdi
	call	_ZNSt8__detail16_Hashtable_allocISaINS_10_Hash_nodeISt4pairIKNSt7__cxx1112basic_stringIcSt11char_traitsIcESaIcEEESt8functionIFSt10unique_ptrI19InspectionSubServerSt14default_deleteISC_EEvEEELb1EEEEE19_M_deallocate_nodesEPSJ_@PLT
	movq	-8(%rbp), %rax
	movq	8(%rax), %rax
	leaq	0(,%rax,8), %rdx
	movq	-8(%rbp), %rax
	movq	(%rax), %rax
	movl	$0, %esi
	movq	%rax, %rdi
	call	memset@PLT
	movq	-8(%rbp), %rax
	movq	$0, 24(%rax)
	movq	-8(%rbp), %rax
	movq	$0, 16(%rax)
	nop
	leave
	.cfi_def_cfa 7, 8
	ret
	.cfi_endproc
.LFE6445:
	.section	.gcc_except_table
.LLSDA6445:
	.byte	0xff
	.byte	0xff
	.byte	0x1
	.uleb128 .LLSDACSE6445-.LLSDACSB6445
.LLSDACSB6445:
.LLSDACSE6445:
	.section	.text._ZNSt10_HashtableINSt7__cxx1112basic_stringIcSt11char_traitsIcESaIcEEESt4pairIKS5_St8functionIFSt10unique_ptrI19InspectionSubServerSt14default_deleteISA_EEvEEESaISG_ENSt8__detail10_Select1stESt8equal_toIS5_ESt4hashIS5_ENSI_18_Mod_range_hashingENSI_20_Default_ranged_hashENSI_20_Prime_rehash_policyENSI_17_Hashtable_traitsILb1ELb0ELb1EEEE5clearEv,"axG",@progbits,_ZNSt10_HashtableINSt7__cxx1112basic_stringIcSt11char_traitsIcESaIcEEESt4pairIKS5_St8functionIFSt10unique_ptrI19InspectionSubServerSt14default_deleteISA_EEvEEESaISG_ENSt8__detail10_Select1stESt8equal_toIS5_ESt4hashIS5_ENSI_18_Mod_range_hashingENSI_20_Default_ranged_hashENSI_20_Prime_rehash_policyENSI_17_Hashtable_traitsILb1ELb0ELb1EEEE5clearEv,comdat
	.size	_ZNSt10_HashtableINSt7__cxx1112basic_stringIcSt11char_traitsIcESaIcEEESt4pairIKS5_St8functionIFSt10unique_ptrI19InspectionSubServerSt14default_deleteISA_EEvEEESaISG_ENSt8__detail10_Select1stESt8equal_toIS5_ESt4hashIS5_ENSI_18_Mod_range_hashingENSI_20_Default_ranged_hashENSI_20_Prime_rehash_policyENSI_17_Hashtable_traitsILb1ELb0ELb1EEEE5clearEv, .-_ZNSt10_HashtableINSt7__cxx1112basic_stringIcSt11char_traitsIcESaIcEEESt4pairIKS5_St8functionIFSt10unique_ptrI19InspectionSubServerSt14default_deleteISA_EEvEEESaISG_ENSt8__detail10_Select1stESt8equal_toIS5_ESt4hashIS5_ENSI_18_Mod_range_hashingENSI_20_Default_ranged_hashENSI_20_Prime_rehash_policyENSI_17_Hashtable_traitsILb1ELb0ELb1EEEE5clearEv
	.section	.text._ZNSt10_HashtableINSt7__cxx1112basic_stringIcSt11char_traitsIcESaIcEEESt4pairIKS5_St8functionIFSt10unique_ptrI19InspectionSubServerSt14default_deleteISA_EEvEEESaISG_ENSt8__detail10_Select1stESt8equal_toIS5_ESt4hashIS5_ENSI_18_Mod_range_hashingENSI_20_Default_ranged_hashENSI_20_Prime_rehash_policyENSI_17_Hashtable_traitsILb1ELb0ELb1EEEE21_M_deallocate_bucketsEv,"axG",@progbits,_ZNSt10_HashtableINSt7__cxx1112basic_stringIcSt11char_traitsIcESaIcEEESt4pairIKS5_St8functionIFSt10unique_ptrI19InspectionSubServerSt14default_deleteISA_EEvEEESaISG_ENSt8__detail10_Select1stESt8equal_toIS5_ESt4hashIS5_ENSI_18_Mod_range_hashingENSI_20_Default_ranged_hashENSI_20_Prime_rehash_policyENSI_17_Hashtable_traitsILb1ELb0ELb1EEEE21_M_deallocate_bucketsEv,comdat
	.align 2
	.weak	_ZNSt10_HashtableINSt7__cxx1112basic_stringIcSt11char_traitsIcESaIcEEESt4pairIKS5_St8functionIFSt10unique_ptrI19InspectionSubServerSt14default_deleteISA_EEvEEESaISG_ENSt8__detail10_Select1stESt8equal_toIS5_ESt4hashIS5_ENSI_18_Mod_range_hashingENSI_20_Default_ranged_hashENSI_20_Prime_rehash_policyENSI_17_Hashtable_traitsILb1ELb0ELb1EEEE21_M_deallocate_bucketsEv
	.type	_ZNSt10_HashtableINSt7__cxx1112basic_stringIcSt11char_traitsIcESaIcEEESt4pairIKS5_St8functionIFSt10unique_ptrI19InspectionSubServerSt14default_deleteISA_EEvEEESaISG_ENSt8__detail10_Select1stESt8equal_toIS5_ESt4hashIS5_ENSI_18_Mod_range_hashingENSI_20_Default_ranged_hashENSI_20_Prime_rehash_policyENSI_17_Hashtable_traitsILb1ELb0ELb1EEEE21_M_deallocate_bucketsEv, @function
_ZNSt10_HashtableINSt7__cxx1112basic_stringIcSt11char_traitsIcESaIcEEESt4pairIKS5_St8functionIFSt10unique_ptrI19InspectionSubServerSt14default_deleteISA_EEvEEESaISG_ENSt8__detail10_Select1stESt8equal_toIS5_ESt4hashIS5_ENSI_18_Mod_range_hashingENSI_20_Default_ranged_hashENSI_20_Prime_rehash_policyENSI_17_Hashtable_traitsILb1ELb0ELb1EEEE21_M_deallocate_bucketsEv:
.LFB6446:
	.cfi_startproc
	endbr64
	pushq	%rbp
	.cfi_def_cfa_offset 16
	.cfi_offset 6, -16
	movq	%rsp, %rbp
	.cfi_def_cfa_register 6
	subq	$16, %rsp
	movq	%rdi, -8(%rbp)
	movq	-8(%rbp), %rax
	movq	8(%rax), %rdx
	movq	-8(%rbp), %rax
	movq	(%rax), %rcx
	movq	-8(%rbp), %rax
	movq	%rcx, %rsi
	movq	%rax, %rdi
	call	_ZNSt10_HashtableINSt7__cxx1112basic_stringIcSt11char_traitsIcESaIcEEESt4pairIKS5_St8functionIFSt10unique_ptrI19InspectionSubServerSt14default_deleteISA_EEvEEESaISG_ENSt8__detail10_Select1stESt8equal_toIS5_ESt4hashIS5_ENSI_18_Mod_range_hashingENSI_20_Default_ranged_hashENSI_20_Prime_rehash_policyENSI_17_Hashtable_traitsILb1ELb0ELb1EEEE21_M_deallocate_bucketsEPPNSI_15_Hash_node_baseEm@PLT
	nop
	leave
	.cfi_def_cfa 7, 8
	ret
	.cfi_endproc
.LFE6446:
	.size	_ZNSt10_HashtableINSt7__cxx1112basic_stringIcSt11char_traitsIcESaIcEEESt4pairIKS5_St8functionIFSt10unique_ptrI19InspectionSubServerSt14default_deleteISA_EEvEEESaISG_ENSt8__detail10_Select1stESt8equal_toIS5_ESt4hashIS5_ENSI_18_Mod_range_hashingENSI_20_Default_ranged_hashENSI_20_Prime_rehash_policyENSI_17_Hashtable_traitsILb1ELb0ELb1EEEE21_M_deallocate_bucketsEv, .-_ZNSt10_HashtableINSt7__cxx1112basic_stringIcSt11char_traitsIcESaIcEEESt4pairIKS5_St8functionIFSt10unique_ptrI19InspectionSubServerSt14default_deleteISA_EEvEEESaISG_ENSt8__detail10_Select1stESt8equal_toIS5_ESt4hashIS5_ENSI_18_Mod_range_hashingENSI_20_Default_ranged_hashENSI_20_Prime_rehash_policyENSI_17_Hashtable_traitsILb1ELb0ELb1EEEE21_M_deallocate_bucketsEv
	.section	.text._ZNKSt10_HashtableINSt7__cxx1112basic_stringIcSt11char_traitsIcESaIcEEESt4pairIKS5_St8functionIFSt10unique_ptrI19InspectionSubServerSt14default_deleteISA_EEvEEESaISG_ENSt8__detail10_Select1stESt8equal_toIS5_ESt4hashIS5_ENSI_18_Mod_range_hashingENSI_20_Default_ranged_hashENSI_20_Prime_rehash_policyENSI_17_Hashtable_traitsILb1ELb0ELb1EEEE5countERS7_,"axG",@progbits,_ZNKSt10_HashtableINSt7__cxx1112basic_stringIcSt11char_traitsIcESaIcEEESt4pairIKS5_St8functionIFSt10unique_ptrI19InspectionSubServerSt14default_deleteISA_EEvEEESaISG_ENSt8__detail10_Select1stESt8equal_toIS5_ESt4hashIS5_ENSI_18_Mod_range_hashingENSI_20_Default_ranged_hashENSI_20_Prime_rehash_policyENSI_17_Hashtable_traitsILb1ELb0ELb1EEEE5countERS7_,comdat
	.align 2
	.weak	_ZNKSt10_HashtableINSt7__cxx1112basic_stringIcSt11char_traitsIcESaIcEEESt4pairIKS5_St8functionIFSt10unique_ptrI19InspectionSubServerSt14default_deleteISA_EEvEEESaISG_ENSt8__detail10_Select1stESt8equal_toIS5_ESt4hashIS5_ENSI_18_Mod_range_hashingENSI_20_Default_ranged_hashENSI_20_Prime_rehash_policyENSI_17_Hashtable_traitsILb1ELb0ELb1EEEE5countERS7_
	.type	_ZNKSt10_HashtableINSt7__cxx1112basic_stringIcSt11char_traitsIcESaIcEEESt4pairIKS5_St8functionIFSt10unique_ptrI19InspectionSubServerSt14default_deleteISA_EEvEEESaISG_ENSt8__detail10_Select1stESt8equal_toIS5_ESt4hashIS5_ENSI_18_Mod_range_hashingENSI_20_Default_ranged_hashENSI_20_Prime_rehash_policyENSI_17_Hashtable_traitsILb1ELb0ELb1EEEE5countERS7_, @function
_ZNKSt10_HashtableINSt7__cxx1112basic_stringIcSt11char_traitsIcESaIcEEESt4pairIKS5_St8functionIFSt10unique_ptrI19InspectionSubServerSt14default_deleteISA_EEvEEESaISG_ENSt8__detail10_Select1stESt8equal_toIS5_ESt4hashIS5_ENSI_18_Mod_range_hashingENSI_20_Default_ranged_hashENSI_20_Prime_rehash_policyENSI_17_Hashtable_traitsILb1ELb0ELb1EEEE5countERS7_:
.LFB6447:
	.cfi_startproc
	endbr64
	pushq	%rbp
	.cfi_def_cfa_offset 16
	.cfi_offset 6, -16
	movq	%rsp, %rbp
	.cfi_def_cfa_register 6
	subq	$48, %rsp
	movq	%rdi, -40(%rbp)
	movq	%rsi, -48(%rbp)
	movq	-48(%rbp), %rdx
	movq	-40(%rbp), %rax
	movq	%rdx, %rsi
	movq	%rax, %rdi
	call	_ZNKSt8__detail15_Hash_code_baseINSt7__cxx1112basic_stringIcSt11char_traitsIcESaIcEEESt4pairIKS6_St8functionIFSt10unique_ptrI19InspectionSubServerSt14default_deleteISB_EEvEEENS_10_Select1stESt4hashIS6_ENS_18_Mod_range_hashingENS_20_Default_ranged_hashELb1EE12_M_hash_codeERS8_@PLT
	movq	%rax, -16(%rbp)
	movq	-16(%rbp), %rdx
	movq	-48(%rbp), %rcx
	movq	-40(%rbp), %rax
	movq	%rcx, %rsi
	movq	%rax, %rdi
	call	_ZNKSt10_HashtableINSt7__cxx1112basic_stringIcSt11char_traitsIcESaIcEEESt4pairIKS5_St8functionIFSt10unique_ptrI19InspectionSubServerSt14default_deleteISA_EEvEEESaISG_ENSt8__detail10_Select1stESt8equal_toIS5_ESt4hashIS5_ENSI_18_Mod_range_hashingENSI_20_Default_ranged_hashENSI_20_Prime_rehash_policyENSI_17_Hashtable_traitsILb1ELb0ELb1EEEE15_M_bucket_indexERS7_m@PLT
	movq	%rax, -8(%rbp)
	movq	-8(%rbp), %rdx
	movq	-40(%rbp), %rax
	movq	%rdx, %rsi
	movq	%rax, %rdi
	call	_ZNKSt10_HashtableINSt7__cxx1112basic_stringIcSt11char_traitsIcESaIcEEESt4pairIKS5_St8functionIFSt10unique_ptrI19InspectionSubServerSt14default_deleteISA_EEvEEESaISG_ENSt8__detail10_Select1stESt8equal_toIS5_ESt4hashIS5_ENSI_18_Mod_range_hashingENSI_20_Default_ranged_hashENSI_20_Prime_rehash_policyENSI_17_Hashtable_traitsILb1ELb0ELb1EEEE15_M_bucket_beginEm@PLT
	movq	%rax, -32(%rbp)
	cmpq	$0, -32(%rbp)
	jne	.L215
	movl	$0, %eax
	jmp	.L216
.L215:
	movq	$0, -24(%rbp)
.L224:
	movq	-32(%rbp), %rcx
	movq	-16(%rbp), %rdx
	movq	-48(%rbp), %rsi
	movq	-40(%rbp), %rax
	movq	%rax, %rdi
	call	_ZNKSt8__detail15_Hashtable_baseINSt7__cxx1112basic_stringIcSt11char_traitsIcESaIcEEESt4pairIKS6_St8functionIFSt10unique_ptrI19InspectionSubServerSt14default_deleteISB_EEvEEENS_10_Select1stESt8equal_toIS6_ESt4hashIS6_ENS_18_Mod_range_hashingENS_20_Default_ranged_hashENS_17_Hashtable_traitsILb1ELb0ELb1EEEE9_M_equalsERS8_mPNS_10_Hash_nodeISH_Lb1EEE@PLT
	testb	%al, %al
	je	.L217
	addq	$1, -24(%rbp)
	jmp	.L218
.L217:
	cmpq	$0, -24(%rbp)
	jne	.L225
.L218:
	movq	-32(%rbp), %rax
	movq	(%rax), %rax
	testq	%rax, %rax
	je	.L220
	movq	-32(%rbp), %rax
	movq	%rax, %rdi
	call	_ZNKSt8__detail10_Hash_nodeISt4pairIKNSt7__cxx1112basic_stringIcSt11char_traitsIcESaIcEEESt8functionIFSt10unique_ptrI19InspectionSubServerSt14default_deleteISB_EEvEEELb1EE7_M_nextEv@PLT
	movq	%rax, %rdx
	movq	-40(%rbp), %rax
	movq	%rdx, %rsi
	movq	%rax, %rdi
	call	_ZNKSt10_HashtableINSt7__cxx1112basic_stringIcSt11char_traitsIcESaIcEEESt4pairIKS5_St8functionIFSt10unique_ptrI19InspectionSubServerSt14default_deleteISA_EEvEEESaISG_ENSt8__detail10_Select1stESt8equal_toIS5_ESt4hashIS5_ENSI_18_Mod_range_hashingENSI_20_Default_ranged_hashENSI_20_Prime_rehash_policyENSI_17_Hashtable_traitsILb1ELb0ELb1EEEE15_M_bucket_indexEPNSI_10_Hash_nodeISG_Lb1EEE@PLT
	cmpq	%rax, -8(%rbp)
	je	.L221
.L220:
	movl	$1, %eax
	jmp	.L222
.L221:
	movl	$0, %eax
.L222:
	testb	%al, %al
	jne	.L226
	movq	-32(%rbp), %rax
	movq	%rax, %rdi
	call	_ZNKSt8__detail10_Hash_nodeISt4pairIKNSt7__cxx1112basic_stringIcSt11char_traitsIcESaIcEEESt8functionIFSt10unique_ptrI19InspectionSubServerSt14default_deleteISB_EEvEEELb1EE7_M_nextEv@PLT
	movq	%rax, -32(%rbp)
	jmp	.L224
.L225:
	nop
	jmp	.L219
.L226:
	nop
.L219:
	movq	-24(%rbp), %rax
.L216:
	leave
	.cfi_def_cfa 7, 8
	ret
	.cfi_endproc
.LFE6447:
	.size	_ZNKSt10_HashtableINSt7__cxx1112basic_stringIcSt11char_traitsIcESaIcEEESt4pairIKS5_St8functionIFSt10unique_ptrI19InspectionSubServerSt14default_deleteISA_EEvEEESaISG_ENSt8__detail10_Select1stESt8equal_toIS5_ESt4hashIS5_ENSI_18_Mod_range_hashingENSI_20_Default_ranged_hashENSI_20_Prime_rehash_policyENSI_17_Hashtable_traitsILb1ELb0ELb1EEEE5countERS7_, .-_ZNKSt10_HashtableINSt7__cxx1112basic_stringIcSt11char_traitsIcESaIcEEESt4pairIKS5_St8functionIFSt10unique_ptrI19InspectionSubServerSt14default_deleteISA_EEvEEESaISG_ENSt8__detail10_Select1stESt8equal_toIS5_ESt4hashIS5_ENSI_18_Mod_range_hashingENSI_20_Default_ranged_hashENSI_20_Prime_rehash_policyENSI_17_Hashtable_traitsILb1ELb0ELb1EEEE5countERS7_
	.section	.text._ZNSt8__detail9_Map_baseINSt7__cxx1112basic_stringIcSt11char_traitsIcESaIcEEESt4pairIKS6_St8functionIFSt10unique_ptrI19InspectionSubServerSt14default_deleteISB_EEvEEESaISH_ENS_10_Select1stESt8equal_toIS6_ESt4hashIS6_ENS_18_Mod_range_hashingENS_20_Default_ranged_hashENS_20_Prime_rehash_policyENS_17_Hashtable_traitsILb1ELb0ELb1EEELb1EEixERS8_,"axG",@progbits,_ZNSt8__detail9_Map_baseINSt7__cxx1112basic_stringIcSt11char_traitsIcESaIcEEESt4pairIKS6_St8functionIFSt10unique_ptrI19InspectionSubServerSt14default_deleteISB_EEvEEESaISH_ENS_10_Select1stESt8equal_toIS6_ESt4hashIS6_ENS_18_Mod_range_hashingENS_20_Default_ranged_hashENS_20_Prime_rehash_policyENS_17_Hashtable_traitsILb1ELb0ELb1EEELb1EEixERS8_,comdat
	.align 2
	.weak	_ZNSt8__detail9_Map_baseINSt7__cxx1112basic_stringIcSt11char_traitsIcESaIcEEESt4pairIKS6_St8functionIFSt10unique_ptrI19InspectionSubServerSt14default_deleteISB_EEvEEESaISH_ENS_10_Select1stESt8equal_toIS6_ESt4hashIS6_ENS_18_Mod_range_hashingENS_20_Default_ranged_hashENS_20_Prime_rehash_policyENS_17_Hashtable_traitsILb1ELb0ELb1EEELb1EEixERS8_
	.type	_ZNSt8__detail9_Map_baseINSt7__cxx1112basic_stringIcSt11char_traitsIcESaIcEEESt4pairIKS6_St8functionIFSt10unique_ptrI19InspectionSubServerSt14default_deleteISB_EEvEEESaISH_ENS_10_Select1stESt8equal_toIS6_ESt4hashIS6_ENS_18_Mod_range_hashingENS_20_Default_ranged_hashENS_20_Prime_rehash_policyENS_17_Hashtable_traitsILb1ELb0ELb1EEELb1EEixERS8_, @function
_ZNSt8__detail9_Map_baseINSt7__cxx1112basic_stringIcSt11char_traitsIcESaIcEEESt4pairIKS6_St8functionIFSt10unique_ptrI19InspectionSubServerSt14default_deleteISB_EEvEEESaISH_ENS_10_Select1stESt8equal_toIS6_ESt4hashIS6_ENS_18_Mod_range_hashingENS_20_Default_ranged_hashENS_20_Prime_rehash_policyENS_17_Hashtable_traitsILb1ELb0ELb1EEELb1EEixERS8_:
.LFB6448:
	.cfi_startproc
	endbr64
	pushq	%rbp
	.cfi_def_cfa_offset 16
	.cfi_offset 6, -16
	movq	%rsp, %rbp
	.cfi_def_cfa_register 6
	subq	$80, %rsp
	movq	%rdi, -72(%rbp)
	movq	%rsi, -80(%rbp)
	movq	%fs:40, %rax
	movq	%rax, -8(%rbp)
	xorl	%eax, %eax
	movq	-72(%rbp), %rax
	movq	%rax, -40(%rbp)
	movq	-80(%rbp), %rdx
	movq	-40(%rbp), %rax
	movq	%rdx, %rsi
	movq	%rax, %rdi
	call	_ZNKSt8__detail15_Hash_code_baseINSt7__cxx1112basic_stringIcSt11char_traitsIcESaIcEEESt4pairIKS6_St8functionIFSt10unique_ptrI19InspectionSubServerSt14default_deleteISB_EEvEEENS_10_Select1stESt4hashIS6_ENS_18_Mod_range_hashingENS_20_Default_ranged_hashELb1EE12_M_hash_codeERS8_@PLT
	movq	%rax, -32(%rbp)
	movq	-32(%rbp), %rdx
	movq	-80(%rbp), %rcx
	movq	-40(%rbp), %rax
	movq	%rcx, %rsi
	movq	%rax, %rdi
	call	_ZNKSt10_HashtableINSt7__cxx1112basic_stringIcSt11char_traitsIcESaIcEEESt4pairIKS5_St8functionIFSt10unique_ptrI19InspectionSubServerSt14default_deleteISA_EEvEEESaISG_ENSt8__detail10_Select1stESt8equal_toIS5_ESt4hashIS5_ENSI_18_Mod_range_hashingENSI_20_Default_ranged_hashENSI_20_Prime_rehash_policyENSI_17_Hashtable_traitsILb1ELb0ELb1EEEE15_M_bucket_indexERS7_m@PLT
	movq	%rax, -24(%rbp)
	movq	-32(%rbp), %rcx
	movq	-80(%rbp), %rdx
	movq	-24(%rbp), %rsi
	movq	-40(%rbp), %rax
	movq	%rax, %rdi
	call	_ZNKSt10_HashtableINSt7__cxx1112basic_stringIcSt11char_traitsIcESaIcEEESt4pairIKS5_St8functionIFSt10unique_ptrI19InspectionSubServerSt14default_deleteISA_EEvEEESaISG_ENSt8__detail10_Select1stESt8equal_toIS5_ESt4hashIS5_ENSI_18_Mod_range_hashingENSI_20_Default_ranged_hashENSI_20_Prime_rehash_policyENSI_17_Hashtable_traitsILb1ELb0ELb1EEEE12_M_find_nodeEmRS7_m@PLT
	movq	%rax, -16(%rbp)
	cmpq	$0, -16(%rbp)
	jne	.L228
	movq	-80(%rbp), %rdx
	leaq	-48(%rbp), %rax
	movq	%rdx, %rsi
	movq	%rax, %rdi
	call	_ZNSt5tupleIJRKNSt7__cxx1112basic_stringIcSt11char_traitsIcESaIcEEEEEC1IvLb1EEES7_@PLT
	leaq	-49(%rbp), %rcx
	leaq	-48(%rbp), %rdx
	movq	-40(%rbp), %rax
	movq	_ZSt19piecewise_construct@GOTPCREL(%rip), %rsi
	movq	%rax, %rdi
	call	_ZNSt8__detail16_Hashtable_allocISaINS_10_Hash_nodeISt4pairIKNSt7__cxx1112basic_stringIcSt11char_traitsIcESaIcEEESt8functionIFSt10unique_ptrI19InspectionSubServerSt14default_deleteISC_EEvEEELb1EEEEE16_M_allocate_nodeIJRKSt21piecewise_construct_tSt5tupleIJRS9_EESQ_IJEEEEEPSJ_DpOT_@PLT
	movq	%rax, -16(%rbp)
	movq	-16(%rbp), %rcx
	movq	-32(%rbp), %rdx
	movq	-24(%rbp), %rsi
	movq	-40(%rbp), %rax
	movl	$1, %r8d
	movq	%rax, %rdi
	call	_ZNSt10_HashtableINSt7__cxx1112basic_stringIcSt11char_traitsIcESaIcEEESt4pairIKS5_St8functionIFSt10unique_ptrI19InspectionSubServerSt14default_deleteISA_EEvEEESaISG_ENSt8__detail10_Select1stESt8equal_toIS5_ESt4hashIS5_ENSI_18_Mod_range_hashingENSI_20_Default_ranged_hashENSI_20_Prime_rehash_policyENSI_17_Hashtable_traitsILb1ELb0ELb1EEEE21_M_insert_unique_nodeEmmPNSI_10_Hash_nodeISG_Lb1EEEm@PLT
	movq	%rax, -48(%rbp)
	leaq	-48(%rbp), %rax
	movq	%rax, %rdi
	call	_ZNKSt8__detail14_Node_iteratorISt4pairIKNSt7__cxx1112basic_stringIcSt11char_traitsIcESaIcEEESt8functionIFSt10unique_ptrI19InspectionSubServerSt14default_deleteISB_EEvEEELb0ELb1EEptEv@PLT
	addq	$32, %rax
	jmp	.L229
.L228:
	movq	-16(%rbp), %rax
	movq	%rax, %rdi
	call	_ZNSt8__detail21_Hash_node_value_baseISt4pairIKNSt7__cxx1112basic_stringIcSt11char_traitsIcESaIcEEESt8functionIFSt10unique_ptrI19InspectionSubServerSt14default_deleteISB_EEvEEEE4_M_vEv@PLT
	addq	$32, %rax
.L229:
	movq	-8(%rbp), %rdi
	xorq	%fs:40, %rdi
	je	.L230
	call	__stack_chk_fail@PLT
.L230:
	leave
	.cfi_def_cfa 7, 8
	ret
	.cfi_endproc
.LFE6448:
	.size	_ZNSt8__detail9_Map_baseINSt7__cxx1112basic_stringIcSt11char_traitsIcESaIcEEESt4pairIKS6_St8functionIFSt10unique_ptrI19InspectionSubServerSt14default_deleteISB_EEvEEESaISH_ENS_10_Select1stESt8equal_toIS6_ESt4hashIS6_ENS_18_Mod_range_hashingENS_20_Default_ranged_hashENS_20_Prime_rehash_policyENS_17_Hashtable_traitsILb1ELb0ELb1EEELb1EEixERS8_, .-_ZNSt8__detail9_Map_baseINSt7__cxx1112basic_stringIcSt11char_traitsIcESaIcEEESt4pairIKS6_St8functionIFSt10unique_ptrI19InspectionSubServerSt14default_deleteISB_EEvEEESaISH_ENS_10_Select1stESt8equal_toIS6_ESt4hashIS6_ENS_18_Mod_range_hashingENS_20_Default_ranged_hashENS_20_Prime_rehash_policyENS_17_Hashtable_traitsILb1ELb0ELb1EEELb1EEixERS8_
	.section	.text._ZNSt8functionIFSt10unique_ptrI19InspectionSubServerSt14default_deleteIS1_EEvEEC2ERKS6_,"axG",@progbits,_ZNSt8functionIFSt10unique_ptrI19InspectionSubServerSt14default_deleteIS1_EEvEEC5ERKS6_,comdat
	.align 2
	.weak	_ZNSt8functionIFSt10unique_ptrI19InspectionSubServerSt14default_deleteIS1_EEvEEC2ERKS6_
	.type	_ZNSt8functionIFSt10unique_ptrI19InspectionSubServerSt14default_deleteIS1_EEvEEC2ERKS6_, @function
_ZNSt8functionIFSt10unique_ptrI19InspectionSubServerSt14default_deleteIS1_EEvEEC2ERKS6_:
.LFB6456:
	.cfi_startproc
	.cfi_personality 0x9b,DW.ref.__gxx_personality_v0
	.cfi_lsda 0x1b,.LLSDA6456
	endbr64
	pushq	%rbp
	.cfi_def_cfa_offset 16
	.cfi_offset 6, -16
	movq	%rsp, %rbp
	.cfi_def_cfa_register 6
	pushq	%rbx
	subq	$24, %rsp
	.cfi_offset 3, -24
	movq	%rdi, -24(%rbp)
	movq	%rsi, -32(%rbp)
	movq	-24(%rbp), %rax
	movq	%rax, %rdi
	call	_ZNSt14_Function_baseC2Ev@PLT
	movq	-32(%rbp), %rax
	movq	%rax, %rdi
	call	_ZNKSt8functionIFSt10unique_ptrI19InspectionSubServerSt14default_deleteIS1_EEvEEcvbEv@PLT
	testb	%al, %al
	je	.L235
	movq	-32(%rbp), %rax
	movq	16(%rax), %r8
	movq	-32(%rbp), %rcx
	movq	-24(%rbp), %rax
	movl	$2, %edx
	movq	%rcx, %rsi
	movq	%rax, %rdi
.LEHB14:
	call	*%r8
.LEHE14:
	movq	-32(%rbp), %rax
	movq	24(%rax), %rdx
	movq	-24(%rbp), %rax
	movq	%rdx, 24(%rax)
	movq	-32(%rbp), %rax
	movq	16(%rax), %rdx
	movq	-24(%rbp), %rax
	movq	%rdx, 16(%rax)
	jmp	.L235
.L234:
	endbr64
	movq	%rax, %rbx
	movq	-24(%rbp), %rax
	movq	%rax, %rdi
	call	_ZNSt14_Function_baseD2Ev@PLT
	movq	%rbx, %rax
	movq	%rax, %rdi
.LEHB15:
	call	_Unwind_Resume@PLT
.LEHE15:
.L235:
	nop
	addq	$24, %rsp
	popq	%rbx
	popq	%rbp
	.cfi_def_cfa 7, 8
	ret
	.cfi_endproc
.LFE6456:
	.section	.gcc_except_table
.LLSDA6456:
	.byte	0xff
	.byte	0xff
	.byte	0x1
	.uleb128 .LLSDACSE6456-.LLSDACSB6456
.LLSDACSB6456:
	.uleb128 .LEHB14-.LFB6456
	.uleb128 .LEHE14-.LEHB14
	.uleb128 .L234-.LFB6456
	.uleb128 0
	.uleb128 .LEHB15-.LFB6456
	.uleb128 .LEHE15-.LEHB15
	.uleb128 0
	.uleb128 0
.LLSDACSE6456:
	.section	.text._ZNSt8functionIFSt10unique_ptrI19InspectionSubServerSt14default_deleteIS1_EEvEEC2ERKS6_,"axG",@progbits,_ZNSt8functionIFSt10unique_ptrI19InspectionSubServerSt14default_deleteIS1_EEvEEC5ERKS6_,comdat
	.size	_ZNSt8functionIFSt10unique_ptrI19InspectionSubServerSt14default_deleteIS1_EEvEEC2ERKS6_, .-_ZNSt8functionIFSt10unique_ptrI19InspectionSubServerSt14default_deleteIS1_EEvEEC2ERKS6_
	.weak	_ZNSt8functionIFSt10unique_ptrI19InspectionSubServerSt14default_deleteIS1_EEvEEC1ERKS6_
	.set	_ZNSt8functionIFSt10unique_ptrI19InspectionSubServerSt14default_deleteIS1_EEvEEC1ERKS6_,_ZNSt8functionIFSt10unique_ptrI19InspectionSubServerSt14default_deleteIS1_EEvEEC2ERKS6_
	.section	.text._ZNSt8functionIFSt10unique_ptrI19InspectionSubServerSt14default_deleteIS1_EEvEE4swapERS6_,"axG",@progbits,_ZNSt8functionIFSt10unique_ptrI19InspectionSubServerSt14default_deleteIS1_EEvEE4swapERS6_,comdat
	.align 2
	.weak	_ZNSt8functionIFSt10unique_ptrI19InspectionSubServerSt14default_deleteIS1_EEvEE4swapERS6_
	.type	_ZNSt8functionIFSt10unique_ptrI19InspectionSubServerSt14default_deleteIS1_EEvEE4swapERS6_, @function
_ZNSt8functionIFSt10unique_ptrI19InspectionSubServerSt14default_deleteIS1_EEvEE4swapERS6_:
.LFB6458:
	.cfi_startproc
	endbr64
	pushq	%rbp
	.cfi_def_cfa_offset 16
	.cfi_offset 6, -16
	movq	%rsp, %rbp
	.cfi_def_cfa_register 6
	subq	$16, %rsp
	movq	%rdi, -8(%rbp)
	movq	%rsi, -16(%rbp)
	movq	-16(%rbp), %rdx
	movq	-8(%rbp), %rax
	movq	%rdx, %rsi
	movq	%rax, %rdi
	call	_ZSt4swapISt9_Any_dataENSt9enable_ifIXsrSt6__and_IJSt6__not_ISt15__is_tuple_likeIT_EESt21is_move_constructibleIS5_ESt18is_move_assignableIS5_EEE5valueEvE4typeERS5_SF_@PLT
	movq	-16(%rbp), %rax
	leaq	16(%rax), %rdx
	movq	-8(%rbp), %rax
	addq	$16, %rax
	movq	%rdx, %rsi
	movq	%rax, %rdi
	call	_ZSt4swapIPFbRSt9_Any_dataRKS0_St18_Manager_operationEENSt9enable_ifIXsrSt6__and_IJSt6__not_ISt15__is_tuple_likeIT_EESt21is_move_constructibleISB_ESt18is_move_assignableISB_EEE5valueEvE4typeERSB_SL_@PLT
	movq	-16(%rbp), %rax
	leaq	24(%rax), %rdx
	movq	-8(%rbp), %rax
	addq	$24, %rax
	movq	%rdx, %rsi
	movq	%rax, %rdi
	call	_ZSt4swapIPFSt10unique_ptrI19InspectionSubServerSt14default_deleteIS1_EERKSt9_Any_dataEENSt9enable_ifIXsrSt6__and_IJSt6__not_ISt15__is_tuple_likeIT_EESt21is_move_constructibleISE_ESt18is_move_assignableISE_EEE5valueEvE4typeERSE_SO_@PLT
	nop
	leave
	.cfi_def_cfa 7, 8
	ret
	.cfi_endproc
.LFE6458:
	.size	_ZNSt8functionIFSt10unique_ptrI19InspectionSubServerSt14default_deleteIS1_EEvEE4swapERS6_, .-_ZNSt8functionIFSt10unique_ptrI19InspectionSubServerSt14default_deleteIS1_EEvEE4swapERS6_
	.section	.text._ZNSaISt4pairINSt7__cxx1112basic_stringIcSt11char_traitsIcESaIcEEESt8functionIFSt10unique_ptrI19InspectionSubServerSt14default_deleteIS8_EEvEEEEC2Ev,"axG",@progbits,_ZNSaISt4pairINSt7__cxx1112basic_stringIcSt11char_traitsIcESaIcEEESt8functionIFSt10unique_ptrI19InspectionSubServerSt14default_deleteIS8_EEvEEEEC5Ev,comdat
	.align 2
	.weak	_ZNSaISt4pairINSt7__cxx1112basic_stringIcSt11char_traitsIcESaIcEEESt8functionIFSt10unique_ptrI19InspectionSubServerSt14default_deleteIS8_EEvEEEEC2Ev
	.type	_ZNSaISt4pairINSt7__cxx1112basic_stringIcSt11char_traitsIcESaIcEEESt8functionIFSt10unique_ptrI19InspectionSubServerSt14default_deleteIS8_EEvEEEEC2Ev, @function
_ZNSaISt4pairINSt7__cxx1112basic_stringIcSt11char_traitsIcESaIcEEESt8functionIFSt10unique_ptrI19InspectionSubServerSt14default_deleteIS8_EEvEEEEC2Ev:
.LFB6460:
	.cfi_startproc
	endbr64
	pushq	%rbp
	.cfi_def_cfa_offset 16
	.cfi_offset 6, -16
	movq	%rsp, %rbp
	.cfi_def_cfa_register 6
	subq	$16, %rsp
	movq	%rdi, -8(%rbp)
	movq	-8(%rbp), %rax
	movq	%rax, %rdi
	call	_ZN9__gnu_cxx13new_allocatorISt4pairINSt7__cxx1112basic_stringIcSt11char_traitsIcESaIcEEESt8functionIFSt10unique_ptrI19InspectionSubServerSt14default_deleteISA_EEvEEEEC2Ev@PLT
	nop
	leave
	.cfi_def_cfa 7, 8
	ret
	.cfi_endproc
.LFE6460:
	.size	_ZNSaISt4pairINSt7__cxx1112basic_stringIcSt11char_traitsIcESaIcEEESt8functionIFSt10unique_ptrI19InspectionSubServerSt14default_deleteIS8_EEvEEEEC2Ev, .-_ZNSaISt4pairINSt7__cxx1112basic_stringIcSt11char_traitsIcESaIcEEESt8functionIFSt10unique_ptrI19InspectionSubServerSt14default_deleteIS8_EEvEEEEC2Ev
	.weak	_ZNSaISt4pairINSt7__cxx1112basic_stringIcSt11char_traitsIcESaIcEEESt8functionIFSt10unique_ptrI19InspectionSubServerSt14default_deleteIS8_EEvEEEEC1Ev
	.set	_ZNSaISt4pairINSt7__cxx1112basic_stringIcSt11char_traitsIcESaIcEEESt8functionIFSt10unique_ptrI19InspectionSubServerSt14default_deleteIS8_EEvEEEEC1Ev,_ZNSaISt4pairINSt7__cxx1112basic_stringIcSt11char_traitsIcESaIcEEESt8functionIFSt10unique_ptrI19InspectionSubServerSt14default_deleteIS8_EEvEEEEC2Ev
	.section	.text._ZNSt12_Vector_baseISt4pairINSt7__cxx1112basic_stringIcSt11char_traitsIcESaIcEEESt8functionIFSt10unique_ptrI19InspectionSubServerSt14default_deleteIS9_EEvEEESaISF_EE17_Vector_impl_dataC2Ev,"axG",@progbits,_ZNSt12_Vector_baseISt4pairINSt7__cxx1112basic_stringIcSt11char_traitsIcESaIcEEESt8functionIFSt10unique_ptrI19InspectionSubServerSt14default_deleteIS9_EEvEEESaISF_EE17_Vector_impl_dataC5Ev,comdat
	.align 2
	.weak	_ZNSt12_Vector_baseISt4pairINSt7__cxx1112basic_stringIcSt11char_traitsIcESaIcEEESt8functionIFSt10unique_ptrI19InspectionSubServerSt14default_deleteIS9_EEvEEESaISF_EE17_Vector_impl_dataC2Ev
	.type	_ZNSt12_Vector_baseISt4pairINSt7__cxx1112basic_stringIcSt11char_traitsIcESaIcEEESt8functionIFSt10unique_ptrI19InspectionSubServerSt14default_deleteIS9_EEvEEESaISF_EE17_Vector_impl_dataC2Ev, @function
_ZNSt12_Vector_baseISt4pairINSt7__cxx1112basic_stringIcSt11char_traitsIcESaIcEEESt8functionIFSt10unique_ptrI19InspectionSubServerSt14default_deleteIS9_EEvEEESaISF_EE17_Vector_impl_dataC2Ev:
.LFB6463:
	.cfi_startproc
	endbr64
	pushq	%rbp
	.cfi_def_cfa_offset 16
	.cfi_offset 6, -16
	movq	%rsp, %rbp
	.cfi_def_cfa_register 6
	movq	%rdi, -8(%rbp)
	movq	-8(%rbp), %rax
	movq	$0, (%rax)
	movq	-8(%rbp), %rax
	movq	$0, 8(%rax)
	movq	-8(%rbp), %rax
	movq	$0, 16(%rax)
	nop
	popq	%rbp
	.cfi_def_cfa 7, 8
	ret
	.cfi_endproc
.LFE6463:
	.size	_ZNSt12_Vector_baseISt4pairINSt7__cxx1112basic_stringIcSt11char_traitsIcESaIcEEESt8functionIFSt10unique_ptrI19InspectionSubServerSt14default_deleteIS9_EEvEEESaISF_EE17_Vector_impl_dataC2Ev, .-_ZNSt12_Vector_baseISt4pairINSt7__cxx1112basic_stringIcSt11char_traitsIcESaIcEEESt8functionIFSt10unique_ptrI19InspectionSubServerSt14default_deleteIS9_EEvEEESaISF_EE17_Vector_impl_dataC2Ev
	.weak	_ZNSt12_Vector_baseISt4pairINSt7__cxx1112basic_stringIcSt11char_traitsIcESaIcEEESt8functionIFSt10unique_ptrI19InspectionSubServerSt14default_deleteIS9_EEvEEESaISF_EE17_Vector_impl_dataC1Ev
	.set	_ZNSt12_Vector_baseISt4pairINSt7__cxx1112basic_stringIcSt11char_traitsIcESaIcEEESt8functionIFSt10unique_ptrI19InspectionSubServerSt14default_deleteIS9_EEvEEESaISF_EE17_Vector_impl_dataC1Ev,_ZNSt12_Vector_baseISt4pairINSt7__cxx1112basic_stringIcSt11char_traitsIcESaIcEEESt8functionIFSt10unique_ptrI19InspectionSubServerSt14default_deleteIS9_EEvEEESaISF_EE17_Vector_impl_dataC2Ev
	.section	.text._ZN9__gnu_cxx13new_allocatorISt4pairINSt7__cxx1112basic_stringIcSt11char_traitsIcESaIcEEESt8functionIFSt10unique_ptrI19InspectionSubServerSt14default_deleteISA_EEvEEEED2Ev,"axG",@progbits,_ZN9__gnu_cxx13new_allocatorISt4pairINSt7__cxx1112basic_stringIcSt11char_traitsIcESaIcEEESt8functionIFSt10unique_ptrI19InspectionSubServerSt14default_deleteISA_EEvEEEED5Ev,comdat
	.align 2
	.weak	_ZN9__gnu_cxx13new_allocatorISt4pairINSt7__cxx1112basic_stringIcSt11char_traitsIcESaIcEEESt8functionIFSt10unique_ptrI19InspectionSubServerSt14default_deleteISA_EEvEEEED2Ev
	.type	_ZN9__gnu_cxx13new_allocatorISt4pairINSt7__cxx1112basic_stringIcSt11char_traitsIcESaIcEEESt8functionIFSt10unique_ptrI19InspectionSubServerSt14default_deleteISA_EEvEEEED2Ev, @function
_ZN9__gnu_cxx13new_allocatorISt4pairINSt7__cxx1112basic_stringIcSt11char_traitsIcESaIcEEESt8functionIFSt10unique_ptrI19InspectionSubServerSt14default_deleteISA_EEvEEEED2Ev:
.LFB6466:
	.cfi_startproc
	endbr64
	pushq	%rbp
	.cfi_def_cfa_offset 16
	.cfi_offset 6, -16
	movq	%rsp, %rbp
	.cfi_def_cfa_register 6
	movq	%rdi, -8(%rbp)
	nop
	popq	%rbp
	.cfi_def_cfa 7, 8
	ret
	.cfi_endproc
.LFE6466:
	.size	_ZN9__gnu_cxx13new_allocatorISt4pairINSt7__cxx1112basic_stringIcSt11char_traitsIcESaIcEEESt8functionIFSt10unique_ptrI19InspectionSubServerSt14default_deleteISA_EEvEEEED2Ev, .-_ZN9__gnu_cxx13new_allocatorISt4pairINSt7__cxx1112basic_stringIcSt11char_traitsIcESaIcEEESt8functionIFSt10unique_ptrI19InspectionSubServerSt14default_deleteISA_EEvEEEED2Ev
	.weak	_ZN9__gnu_cxx13new_allocatorISt4pairINSt7__cxx1112basic_stringIcSt11char_traitsIcESaIcEEESt8functionIFSt10unique_ptrI19InspectionSubServerSt14default_deleteISA_EEvEEEED1Ev
	.set	_ZN9__gnu_cxx13new_allocatorISt4pairINSt7__cxx1112basic_stringIcSt11char_traitsIcESaIcEEESt8functionIFSt10unique_ptrI19InspectionSubServerSt14default_deleteISA_EEvEEEED1Ev,_ZN9__gnu_cxx13new_allocatorISt4pairINSt7__cxx1112basic_stringIcSt11char_traitsIcESaIcEEESt8functionIFSt10unique_ptrI19InspectionSubServerSt14default_deleteISA_EEvEEEED2Ev
	.section	.text._ZNSt12_Vector_baseISt4pairINSt7__cxx1112basic_stringIcSt11char_traitsIcESaIcEEESt8functionIFSt10unique_ptrI19InspectionSubServerSt14default_deleteIS9_EEvEEESaISF_EE13_M_deallocateEPSF_m,"axG",@progbits,_ZNSt12_Vector_baseISt4pairINSt7__cxx1112basic_stringIcSt11char_traitsIcESaIcEEESt8functionIFSt10unique_ptrI19InspectionSubServerSt14default_deleteIS9_EEvEEESaISF_EE13_M_deallocateEPSF_m,comdat
	.align 2
	.weak	_ZNSt12_Vector_baseISt4pairINSt7__cxx1112basic_stringIcSt11char_traitsIcESaIcEEESt8functionIFSt10unique_ptrI19InspectionSubServerSt14default_deleteIS9_EEvEEESaISF_EE13_M_deallocateEPSF_m
	.type	_ZNSt12_Vector_baseISt4pairINSt7__cxx1112basic_stringIcSt11char_traitsIcESaIcEEESt8functionIFSt10unique_ptrI19InspectionSubServerSt14default_deleteIS9_EEvEEESaISF_EE13_M_deallocateEPSF_m, @function
_ZNSt12_Vector_baseISt4pairINSt7__cxx1112basic_stringIcSt11char_traitsIcESaIcEEESt8functionIFSt10unique_ptrI19InspectionSubServerSt14default_deleteIS9_EEvEEESaISF_EE13_M_deallocateEPSF_m:
.LFB6468:
	.cfi_startproc
	endbr64
	pushq	%rbp
	.cfi_def_cfa_offset 16
	.cfi_offset 6, -16
	movq	%rsp, %rbp
	.cfi_def_cfa_register 6
	subq	$32, %rsp
	movq	%rdi, -8(%rbp)
	movq	%rsi, -16(%rbp)
	movq	%rdx, -24(%rbp)
	cmpq	$0, -16(%rbp)
	je	.L242
	movq	-8(%rbp), %rax
	movq	-24(%rbp), %rdx
	movq	-16(%rbp), %rcx
	movq	%rcx, %rsi
	movq	%rax, %rdi
	call	_ZNSt16allocator_traitsISaISt4pairINSt7__cxx1112basic_stringIcSt11char_traitsIcESaIcEEESt8functionIFSt10unique_ptrI19InspectionSubServerSt14default_deleteIS9_EEvEEEEE10deallocateERSG_PSF_m@PLT
.L242:
	nop
	leave
	.cfi_def_cfa 7, 8
	ret
	.cfi_endproc
.LFE6468:
	.size	_ZNSt12_Vector_baseISt4pairINSt7__cxx1112basic_stringIcSt11char_traitsIcESaIcEEESt8functionIFSt10unique_ptrI19InspectionSubServerSt14default_deleteIS9_EEvEEESaISF_EE13_M_deallocateEPSF_m, .-_ZNSt12_Vector_baseISt4pairINSt7__cxx1112basic_stringIcSt11char_traitsIcESaIcEEESt8functionIFSt10unique_ptrI19InspectionSubServerSt14default_deleteIS9_EEvEEESaISF_EE13_M_deallocateEPSF_m
	.section	.text._ZNSt12_Vector_baseISt4pairINSt7__cxx1112basic_stringIcSt11char_traitsIcESaIcEEESt8functionIFSt10unique_ptrI19InspectionSubServerSt14default_deleteIS9_EEvEEESaISF_EE19_M_get_Tp_allocatorEv,"axG",@progbits,_ZNSt12_Vector_baseISt4pairINSt7__cxx1112basic_stringIcSt11char_traitsIcESaIcEEESt8functionIFSt10unique_ptrI19InspectionSubServerSt14default_deleteIS9_EEvEEESaISF_EE19_M_get_Tp_allocatorEv,comdat
	.align 2
	.weak	_ZNSt12_Vector_baseISt4pairINSt7__cxx1112basic_stringIcSt11char_traitsIcESaIcEEESt8functionIFSt10unique_ptrI19InspectionSubServerSt14default_deleteIS9_EEvEEESaISF_EE19_M_get_Tp_allocatorEv
	.type	_ZNSt12_Vector_baseISt4pairINSt7__cxx1112basic_stringIcSt11char_traitsIcESaIcEEESt8functionIFSt10unique_ptrI19InspectionSubServerSt14default_deleteIS9_EEvEEESaISF_EE19_M_get_Tp_allocatorEv, @function
_ZNSt12_Vector_baseISt4pairINSt7__cxx1112basic_stringIcSt11char_traitsIcESaIcEEESt8functionIFSt10unique_ptrI19InspectionSubServerSt14default_deleteIS9_EEvEEESaISF_EE19_M_get_Tp_allocatorEv:
.LFB6469:
	.cfi_startproc
	endbr64
	pushq	%rbp
	.cfi_def_cfa_offset 16
	.cfi_offset 6, -16
	movq	%rsp, %rbp
	.cfi_def_cfa_register 6
	movq	%rdi, -8(%rbp)
	movq	-8(%rbp), %rax
	popq	%rbp
	.cfi_def_cfa 7, 8
	ret
	.cfi_endproc
.LFE6469:
	.size	_ZNSt12_Vector_baseISt4pairINSt7__cxx1112basic_stringIcSt11char_traitsIcESaIcEEESt8functionIFSt10unique_ptrI19InspectionSubServerSt14default_deleteIS9_EEvEEESaISF_EE19_M_get_Tp_allocatorEv, .-_ZNSt12_Vector_baseISt4pairINSt7__cxx1112basic_stringIcSt11char_traitsIcESaIcEEESt8functionIFSt10unique_ptrI19InspectionSubServerSt14default_deleteIS9_EEvEEESaISF_EE19_M_get_Tp_allocatorEv
	.section	.text._ZSt8_DestroyIPSt4pairINSt7__cxx1112basic_stringIcSt11char_traitsIcESaIcEEESt8functionIFSt10unique_ptrI19InspectionSubServerSt14default_deleteIS9_EEvEEESF_EvT_SH_RSaIT0_E,"axG",@progbits,_ZSt8_DestroyIPSt4pairINSt7__cxx1112basic_stringIcSt11char_traitsIcESaIcEEESt8functionIFSt10unique_ptrI19InspectionSubServerSt14default_deleteIS9_EEvEEESF_EvT_SH_RSaIT0_E,comdat
	.weak	_ZSt8_DestroyIPSt4pairINSt7__cxx1112basic_stringIcSt11char_traitsIcESaIcEEESt8functionIFSt10unique_ptrI19InspectionSubServerSt14default_deleteIS9_EEvEEESF_EvT_SH_RSaIT0_E
	.type	_ZSt8_DestroyIPSt4pairINSt7__cxx1112basic_stringIcSt11char_traitsIcESaIcEEESt8functionIFSt10unique_ptrI19InspectionSubServerSt14default_deleteIS9_EEvEEESF_EvT_SH_RSaIT0_E, @function
_ZSt8_DestroyIPSt4pairINSt7__cxx1112basic_stringIcSt11char_traitsIcESaIcEEESt8functionIFSt10unique_ptrI19InspectionSubServerSt14default_deleteIS9_EEvEEESF_EvT_SH_RSaIT0_E:
.LFB6470:
	.cfi_startproc
	endbr64
	pushq	%rbp
	.cfi_def_cfa_offset 16
	.cfi_offset 6, -16
	movq	%rsp, %rbp
	.cfi_def_cfa_register 6
	subq	$32, %rsp
	movq	%rdi, -8(%rbp)
	movq	%rsi, -16(%rbp)
	movq	%rdx, -24(%rbp)
	movq	-16(%rbp), %rdx
	movq	-8(%rbp), %rax
	movq	%rdx, %rsi
	movq	%rax, %rdi
	call	_ZSt8_DestroyIPSt4pairINSt7__cxx1112basic_stringIcSt11char_traitsIcESaIcEEESt8functionIFSt10unique_ptrI19InspectionSubServerSt14default_deleteIS9_EEvEEEEvT_SH_@PLT
	nop
	leave
	.cfi_def_cfa 7, 8
	ret
	.cfi_endproc
.LFE6470:
	.size	_ZSt8_DestroyIPSt4pairINSt7__cxx1112basic_stringIcSt11char_traitsIcESaIcEEESt8functionIFSt10unique_ptrI19InspectionSubServerSt14default_deleteIS9_EEvEEESF_EvT_SH_RSaIT0_E, .-_ZSt8_DestroyIPSt4pairINSt7__cxx1112basic_stringIcSt11char_traitsIcESaIcEEESt8functionIFSt10unique_ptrI19InspectionSubServerSt14default_deleteIS9_EEvEEESF_EvT_SH_RSaIT0_E
	.section	.text._ZNSt10_HashtableINSt7__cxx1112basic_stringIcSt11char_traitsIcESaIcEEESt4pairIKS5_St8functionIFSt10unique_ptrI19InspectionSubServerSt14default_deleteISA_EEvEEESaISG_ENSt8__detail10_Select1stESt8equal_toIS5_ESt4hashIS5_ENSI_18_Mod_range_hashingENSI_20_Default_ranged_hashENSI_20_Prime_rehash_policyENSI_17_Hashtable_traitsILb1ELb0ELb1EEEE5beginEv,"axG",@progbits,_ZNSt10_HashtableINSt7__cxx1112basic_stringIcSt11char_traitsIcESaIcEEESt4pairIKS5_St8functionIFSt10unique_ptrI19InspectionSubServerSt14default_deleteISA_EEvEEESaISG_ENSt8__detail10_Select1stESt8equal_toIS5_ESt4hashIS5_ENSI_18_Mod_range_hashingENSI_20_Default_ranged_hashENSI_20_Prime_rehash_policyENSI_17_Hashtable_traitsILb1ELb0ELb1EEEE5beginEv,comdat
	.align 2
	.weak	_ZNSt10_HashtableINSt7__cxx1112basic_stringIcSt11char_traitsIcESaIcEEESt4pairIKS5_St8functionIFSt10unique_ptrI19InspectionSubServerSt14default_deleteISA_EEvEEESaISG_ENSt8__detail10_Select1stESt8equal_toIS5_ESt4hashIS5_ENSI_18_Mod_range_hashingENSI_20_Default_ranged_hashENSI_20_Prime_rehash_policyENSI_17_Hashtable_traitsILb1ELb0ELb1EEEE5beginEv
	.type	_ZNSt10_HashtableINSt7__cxx1112basic_stringIcSt11char_traitsIcESaIcEEESt4pairIKS5_St8functionIFSt10unique_ptrI19InspectionSubServerSt14default_deleteISA_EEvEEESaISG_ENSt8__detail10_Select1stESt8equal_toIS5_ESt4hashIS5_ENSI_18_Mod_range_hashingENSI_20_Default_ranged_hashENSI_20_Prime_rehash_policyENSI_17_Hashtable_traitsILb1ELb0ELb1EEEE5beginEv, @function
_ZNSt10_HashtableINSt7__cxx1112basic_stringIcSt11char_traitsIcESaIcEEESt4pairIKS5_St8functionIFSt10unique_ptrI19InspectionSubServerSt14default_deleteISA_EEvEEESaISG_ENSt8__detail10_Select1stESt8equal_toIS5_ESt4hashIS5_ENSI_18_Mod_range_hashingENSI_20_Default_ranged_hashENSI_20_Prime_rehash_policyENSI_17_Hashtable_traitsILb1ELb0ELb1EEEE5beginEv:
.LFB6471:
	.cfi_startproc
	endbr64
	pushq	%rbp
	.cfi_def_cfa_offset 16
	.cfi_offset 6, -16
	movq	%rsp, %rbp
	.cfi_def_cfa_register 6
	subq	$32, %rsp
	movq	%rdi, -24(%rbp)
	movq	%fs:40, %rax
	movq	%rax, -8(%rbp)
	xorl	%eax, %eax
	movq	-24(%rbp), %rax
	movq	%rax, %rdi
	call	_ZNKSt10_HashtableINSt7__cxx1112basic_stringIcSt11char_traitsIcESaIcEEESt4pairIKS5_St8functionIFSt10unique_ptrI19InspectionSubServerSt14default_deleteISA_EEvEEESaISG_ENSt8__detail10_Select1stESt8equal_toIS5_ESt4hashIS5_ENSI_18_Mod_range_hashingENSI_20_Default_ranged_hashENSI_20_Prime_rehash_policyENSI_17_Hashtable_traitsILb1ELb0ELb1EEEE8_M_beginEv@PLT
	movq	%rax, %rdx
	leaq	-16(%rbp), %rax
	movq	%rdx, %rsi
	movq	%rax, %rdi
	call	_ZNSt8__detail14_Node_iteratorISt4pairIKNSt7__cxx1112basic_stringIcSt11char_traitsIcESaIcEEESt8functionIFSt10unique_ptrI19InspectionSubServerSt14default_deleteISB_EEvEEELb0ELb1EEC1EPNS_10_Hash_nodeISH_Lb1EEE@PLT
	movq	-16(%rbp), %rax
	movq	-8(%rbp), %rcx
	xorq	%fs:40, %rcx
	je	.L248
	call	__stack_chk_fail@PLT
.L248:
	leave
	.cfi_def_cfa 7, 8
	ret
	.cfi_endproc
.LFE6471:
	.size	_ZNSt10_HashtableINSt7__cxx1112basic_stringIcSt11char_traitsIcESaIcEEESt4pairIKS5_St8functionIFSt10unique_ptrI19InspectionSubServerSt14default_deleteISA_EEvEEESaISG_ENSt8__detail10_Select1stESt8equal_toIS5_ESt4hashIS5_ENSI_18_Mod_range_hashingENSI_20_Default_ranged_hashENSI_20_Prime_rehash_policyENSI_17_Hashtable_traitsILb1ELb0ELb1EEEE5beginEv, .-_ZNSt10_HashtableINSt7__cxx1112basic_stringIcSt11char_traitsIcESaIcEEESt4pairIKS5_St8functionIFSt10unique_ptrI19InspectionSubServerSt14default_deleteISA_EEvEEESaISG_ENSt8__detail10_Select1stESt8equal_toIS5_ESt4hashIS5_ENSI_18_Mod_range_hashingENSI_20_Default_ranged_hashENSI_20_Prime_rehash_policyENSI_17_Hashtable_traitsILb1ELb0ELb1EEEE5beginEv
	.section	.text._ZNSt10_HashtableINSt7__cxx1112basic_stringIcSt11char_traitsIcESaIcEEESt4pairIKS5_St8functionIFSt10unique_ptrI19InspectionSubServerSt14default_deleteISA_EEvEEESaISG_ENSt8__detail10_Select1stESt8equal_toIS5_ESt4hashIS5_ENSI_18_Mod_range_hashingENSI_20_Default_ranged_hashENSI_20_Prime_rehash_policyENSI_17_Hashtable_traitsILb1ELb0ELb1EEEE3endEv,"axG",@progbits,_ZNSt10_HashtableINSt7__cxx1112basic_stringIcSt11char_traitsIcESaIcEEESt4pairIKS5_St8functionIFSt10unique_ptrI19InspectionSubServerSt14default_deleteISA_EEvEEESaISG_ENSt8__detail10_Select1stESt8equal_toIS5_ESt4hashIS5_ENSI_18_Mod_range_hashingENSI_20_Default_ranged_hashENSI_20_Prime_rehash_policyENSI_17_Hashtable_traitsILb1ELb0ELb1EEEE3endEv,comdat
	.align 2
	.weak	_ZNSt10_HashtableINSt7__cxx1112basic_stringIcSt11char_traitsIcESaIcEEESt4pairIKS5_St8functionIFSt10unique_ptrI19InspectionSubServerSt14default_deleteISA_EEvEEESaISG_ENSt8__detail10_Select1stESt8equal_toIS5_ESt4hashIS5_ENSI_18_Mod_range_hashingENSI_20_Default_ranged_hashENSI_20_Prime_rehash_policyENSI_17_Hashtable_traitsILb1ELb0ELb1EEEE3endEv
	.type	_ZNSt10_HashtableINSt7__cxx1112basic_stringIcSt11char_traitsIcESaIcEEESt4pairIKS5_St8functionIFSt10unique_ptrI19InspectionSubServerSt14default_deleteISA_EEvEEESaISG_ENSt8__detail10_Select1stESt8equal_toIS5_ESt4hashIS5_ENSI_18_Mod_range_hashingENSI_20_Default_ranged_hashENSI_20_Prime_rehash_policyENSI_17_Hashtable_traitsILb1ELb0ELb1EEEE3endEv, @function
_ZNSt10_HashtableINSt7__cxx1112basic_stringIcSt11char_traitsIcESaIcEEESt4pairIKS5_St8functionIFSt10unique_ptrI19InspectionSubServerSt14default_deleteISA_EEvEEESaISG_ENSt8__detail10_Select1stESt8equal_toIS5_ESt4hashIS5_ENSI_18_Mod_range_hashingENSI_20_Default_ranged_hashENSI_20_Prime_rehash_policyENSI_17_Hashtable_traitsILb1ELb0ELb1EEEE3endEv:
.LFB6472:
	.cfi_startproc
	endbr64
	pushq	%rbp
	.cfi_def_cfa_offset 16
	.cfi_offset 6, -16
	movq	%rsp, %rbp
	.cfi_def_cfa_register 6
	subq	$32, %rsp
	movq	%rdi, -24(%rbp)
	movq	%fs:40, %rax
	movq	%rax, -8(%rbp)
	xorl	%eax, %eax
	leaq	-16(%rbp), %rax
	movl	$0, %esi
	movq	%rax, %rdi
	call	_ZNSt8__detail14_Node_iteratorISt4pairIKNSt7__cxx1112basic_stringIcSt11char_traitsIcESaIcEEESt8functionIFSt10unique_ptrI19InspectionSubServerSt14default_deleteISB_EEvEEELb0ELb1EEC1EPNS_10_Hash_nodeISH_Lb1EEE@PLT
	movq	-16(%rbp), %rax
	movq	-8(%rbp), %rdx
	xorq	%fs:40, %rdx
	je	.L251
	call	__stack_chk_fail@PLT
.L251:
	leave
	.cfi_def_cfa 7, 8
	ret
	.cfi_endproc
.LFE6472:
	.size	_ZNSt10_HashtableINSt7__cxx1112basic_stringIcSt11char_traitsIcESaIcEEESt4pairIKS5_St8functionIFSt10unique_ptrI19InspectionSubServerSt14default_deleteISA_EEvEEESaISG_ENSt8__detail10_Select1stESt8equal_toIS5_ESt4hashIS5_ENSI_18_Mod_range_hashingENSI_20_Default_ranged_hashENSI_20_Prime_rehash_policyENSI_17_Hashtable_traitsILb1ELb0ELb1EEEE3endEv, .-_ZNSt10_HashtableINSt7__cxx1112basic_stringIcSt11char_traitsIcESaIcEEESt4pairIKS5_St8functionIFSt10unique_ptrI19InspectionSubServerSt14default_deleteISA_EEvEEESaISG_ENSt8__detail10_Select1stESt8equal_toIS5_ESt4hashIS5_ENSI_18_Mod_range_hashingENSI_20_Default_ranged_hashENSI_20_Prime_rehash_policyENSI_17_Hashtable_traitsILb1ELb0ELb1EEEE3endEv
	.section	.text._ZNSt8__detail19_Node_iterator_baseISt4pairIKNSt7__cxx1112basic_stringIcSt11char_traitsIcESaIcEEESt8functionIFSt10unique_ptrI19InspectionSubServerSt14default_deleteISB_EEvEEELb1EE7_M_incrEv,"axG",@progbits,_ZNSt8__detail19_Node_iterator_baseISt4pairIKNSt7__cxx1112basic_stringIcSt11char_traitsIcESaIcEEESt8functionIFSt10unique_ptrI19InspectionSubServerSt14default_deleteISB_EEvEEELb1EE7_M_incrEv,comdat
	.align 2
	.weak	_ZNSt8__detail19_Node_iterator_baseISt4pairIKNSt7__cxx1112basic_stringIcSt11char_traitsIcESaIcEEESt8functionIFSt10unique_ptrI19InspectionSubServerSt14default_deleteISB_EEvEEELb1EE7_M_incrEv
	.type	_ZNSt8__detail19_Node_iterator_baseISt4pairIKNSt7__cxx1112basic_stringIcSt11char_traitsIcESaIcEEESt8functionIFSt10unique_ptrI19InspectionSubServerSt14default_deleteISB_EEvEEELb1EE7_M_incrEv, @function
_ZNSt8__detail19_Node_iterator_baseISt4pairIKNSt7__cxx1112basic_stringIcSt11char_traitsIcESaIcEEESt8functionIFSt10unique_ptrI19InspectionSubServerSt14default_deleteISB_EEvEEELb1EE7_M_incrEv:
.LFB6473:
	.cfi_startproc
	endbr64
	pushq	%rbp
	.cfi_def_cfa_offset 16
	.cfi_offset 6, -16
	movq	%rsp, %rbp
	.cfi_def_cfa_register 6
	subq	$16, %rsp
	movq	%rdi, -8(%rbp)
	movq	-8(%rbp), %rax
	movq	(%rax), %rax
	movq	%rax, %rdi
	call	_ZNKSt8__detail10_Hash_nodeISt4pairIKNSt7__cxx1112basic_stringIcSt11char_traitsIcESaIcEEESt8functionIFSt10unique_ptrI19InspectionSubServerSt14default_deleteISB_EEvEEELb1EE7_M_nextEv@PLT
	movq	-8(%rbp), %rdx
	movq	%rax, (%rdx)
	nop
	leave
	.cfi_def_cfa 7, 8
	ret
	.cfi_endproc
.LFE6473:
	.size	_ZNSt8__detail19_Node_iterator_baseISt4pairIKNSt7__cxx1112basic_stringIcSt11char_traitsIcESaIcEEESt8functionIFSt10unique_ptrI19InspectionSubServerSt14default_deleteISB_EEvEEELb1EE7_M_incrEv, .-_ZNSt8__detail19_Node_iterator_baseISt4pairIKNSt7__cxx1112basic_stringIcSt11char_traitsIcESaIcEEESt8functionIFSt10unique_ptrI19InspectionSubServerSt14default_deleteISB_EEvEEELb1EE7_M_incrEv
	.section	.text._ZNSt8__detail21_Hash_node_value_baseISt4pairIKNSt7__cxx1112basic_stringIcSt11char_traitsIcESaIcEEESt8functionIFSt10unique_ptrI19InspectionSubServerSt14default_deleteISB_EEvEEEE4_M_vEv,"axG",@progbits,_ZNSt8__detail21_Hash_node_value_baseISt4pairIKNSt7__cxx1112basic_stringIcSt11char_traitsIcESaIcEEESt8functionIFSt10unique_ptrI19InspectionSubServerSt14default_deleteISB_EEvEEEE4_M_vEv,comdat
	.align 2
	.weak	_ZNSt8__detail21_Hash_node_value_baseISt4pairIKNSt7__cxx1112basic_stringIcSt11char_traitsIcESaIcEEESt8functionIFSt10unique_ptrI19InspectionSubServerSt14default_deleteISB_EEvEEEE4_M_vEv
	.type	_ZNSt8__detail21_Hash_node_value_baseISt4pairIKNSt7__cxx1112basic_stringIcSt11char_traitsIcESaIcEEESt8functionIFSt10unique_ptrI19InspectionSubServerSt14default_deleteISB_EEvEEEE4_M_vEv, @function
_ZNSt8__detail21_Hash_node_value_baseISt4pairIKNSt7__cxx1112basic_stringIcSt11char_traitsIcESaIcEEESt8functionIFSt10unique_ptrI19InspectionSubServerSt14default_deleteISB_EEvEEEE4_M_vEv:
.LFB6474:
	.cfi_startproc
	endbr64
	pushq	%rbp
	.cfi_def_cfa_offset 16
	.cfi_offset 6, -16
	movq	%rsp, %rbp
	.cfi_def_cfa_register 6
	subq	$16, %rsp
	movq	%rdi, -8(%rbp)
	movq	-8(%rbp), %rax
	movq	%rax, %rdi
	call	_ZNSt8__detail21_Hash_node_value_baseISt4pairIKNSt7__cxx1112basic_stringIcSt11char_traitsIcESaIcEEESt8functionIFSt10unique_ptrI19InspectionSubServerSt14default_deleteISB_EEvEEEE9_M_valptrEv@PLT
	leave
	.cfi_def_cfa 7, 8
	ret
	.cfi_endproc
.LFE6474:
	.size	_ZNSt8__detail21_Hash_node_value_baseISt4pairIKNSt7__cxx1112basic_stringIcSt11char_traitsIcESaIcEEESt8functionIFSt10unique_ptrI19InspectionSubServerSt14default_deleteISB_EEvEEEE4_M_vEv, .-_ZNSt8__detail21_Hash_node_value_baseISt4pairIKNSt7__cxx1112basic_stringIcSt11char_traitsIcESaIcEEESt8functionIFSt10unique_ptrI19InspectionSubServerSt14default_deleteISB_EEvEEEE4_M_vEv
	.section	.text._ZSt4moveIRSt4pairINSt7__cxx1112basic_stringIcSt11char_traitsIcESaIcEEESt8functionIFSt10unique_ptrI19InspectionSubServerSt14default_deleteIS9_EEvEEEEONSt16remove_referenceIT_E4typeEOSI_,"axG",@progbits,_ZSt4moveIRSt4pairINSt7__cxx1112basic_stringIcSt11char_traitsIcESaIcEEESt8functionIFSt10unique_ptrI19InspectionSubServerSt14default_deleteIS9_EEvEEEEONSt16remove_referenceIT_E4typeEOSI_,comdat
	.weak	_ZSt4moveIRSt4pairINSt7__cxx1112basic_stringIcSt11char_traitsIcESaIcEEESt8functionIFSt10unique_ptrI19InspectionSubServerSt14default_deleteIS9_EEvEEEEONSt16remove_referenceIT_E4typeEOSI_
	.type	_ZSt4moveIRSt4pairINSt7__cxx1112basic_stringIcSt11char_traitsIcESaIcEEESt8functionIFSt10unique_ptrI19InspectionSubServerSt14default_deleteIS9_EEvEEEEONSt16remove_referenceIT_E4typeEOSI_, @function
_ZSt4moveIRSt4pairINSt7__cxx1112basic_stringIcSt11char_traitsIcESaIcEEESt8functionIFSt10unique_ptrI19InspectionSubServerSt14default_deleteIS9_EEvEEEEONSt16remove_referenceIT_E4typeEOSI_:
.LFB6475:
	.cfi_startproc
	endbr64
	pushq	%rbp
	.cfi_def_cfa_offset 16
	.cfi_offset 6, -16
	movq	%rsp, %rbp
	.cfi_def_cfa_register 6
	movq	%rdi, -8(%rbp)
	movq	-8(%rbp), %rax
	popq	%rbp
	.cfi_def_cfa 7, 8
	ret
	.cfi_endproc
.LFE6475:
	.size	_ZSt4moveIRSt4pairINSt7__cxx1112basic_stringIcSt11char_traitsIcESaIcEEESt8functionIFSt10unique_ptrI19InspectionSubServerSt14default_deleteIS9_EEvEEEEONSt16remove_referenceIT_E4typeEOSI_, .-_ZSt4moveIRSt4pairINSt7__cxx1112basic_stringIcSt11char_traitsIcESaIcEEESt8functionIFSt10unique_ptrI19InspectionSubServerSt14default_deleteIS9_EEvEEEEONSt16remove_referenceIT_E4typeEOSI_
	.section	.text._ZNSt6vectorISt4pairINSt7__cxx1112basic_stringIcSt11char_traitsIcESaIcEEESt8functionIFSt10unique_ptrI19InspectionSubServerSt14default_deleteIS9_EEvEEESaISF_EE12emplace_backIJSF_EEERSF_DpOT_,"axG",@progbits,_ZNSt6vectorISt4pairINSt7__cxx1112basic_stringIcSt11char_traitsIcESaIcEEESt8functionIFSt10unique_ptrI19InspectionSubServerSt14default_deleteIS9_EEvEEESaISF_EE12emplace_backIJSF_EEERSF_DpOT_,comdat
	.align 2
	.weak	_ZNSt6vectorISt4pairINSt7__cxx1112basic_stringIcSt11char_traitsIcESaIcEEESt8functionIFSt10unique_ptrI19InspectionSubServerSt14default_deleteIS9_EEvEEESaISF_EE12emplace_backIJSF_EEERSF_DpOT_
	.type	_ZNSt6vectorISt4pairINSt7__cxx1112basic_stringIcSt11char_traitsIcESaIcEEESt8functionIFSt10unique_ptrI19InspectionSubServerSt14default_deleteIS9_EEvEEESaISF_EE12emplace_backIJSF_EEERSF_DpOT_, @function
_ZNSt6vectorISt4pairINSt7__cxx1112basic_stringIcSt11char_traitsIcESaIcEEESt8functionIFSt10unique_ptrI19InspectionSubServerSt14default_deleteIS9_EEvEEESaISF_EE12emplace_backIJSF_EEERSF_DpOT_:
.LFB6476:
	.cfi_startproc
	endbr64
	pushq	%rbp
	.cfi_def_cfa_offset 16
	.cfi_offset 6, -16
	movq	%rsp, %rbp
	.cfi_def_cfa_register 6
	pushq	%rbx
	subq	$24, %rsp
	.cfi_offset 3, -24
	movq	%rdi, -24(%rbp)
	movq	%rsi, -32(%rbp)
	movq	-24(%rbp), %rax
	movq	8(%rax), %rdx
	movq	-24(%rbp), %rax
	movq	16(%rax), %rax
	cmpq	%rax, %rdx
	je	.L258
	movq	-32(%rbp), %rax
	movq	%rax, %rdi
	call	_ZSt7forwardISt4pairINSt7__cxx1112basic_stringIcSt11char_traitsIcESaIcEEESt8functionIFSt10unique_ptrI19InspectionSubServerSt14default_deleteIS9_EEvEEEEOT_RNSt16remove_referenceISG_E4typeE@PLT
	movq	%rax, %rdx
	movq	-24(%rbp), %rax
	movq	8(%rax), %rcx
	movq	-24(%rbp), %rax
	movq	%rcx, %rsi
	movq	%rax, %rdi
	call	_ZNSt16allocator_traitsISaISt4pairINSt7__cxx1112basic_stringIcSt11char_traitsIcESaIcEEESt8functionIFSt10unique_ptrI19InspectionSubServerSt14default_deleteIS9_EEvEEEEE9constructISF_JSF_EEEvRSG_PT_DpOT0_@PLT
	movq	-24(%rbp), %rax
	movq	8(%rax), %rax
	leaq	64(%rax), %rdx
	movq	-24(%rbp), %rax
	movq	%rdx, 8(%rax)
	jmp	.L259
.L258:
	movq	-32(%rbp), %rax
	movq	%rax, %rdi
	call	_ZSt7forwardISt4pairINSt7__cxx1112basic_stringIcSt11char_traitsIcESaIcEEESt8functionIFSt10unique_ptrI19InspectionSubServerSt14default_deleteIS9_EEvEEEEOT_RNSt16remove_referenceISG_E4typeE@PLT
	movq	%rax, %rbx
	movq	-24(%rbp), %rax
	movq	%rax, %rdi
	call	_ZNSt6vectorISt4pairINSt7__cxx1112basic_stringIcSt11char_traitsIcESaIcEEESt8functionIFSt10unique_ptrI19InspectionSubServerSt14default_deleteIS9_EEvEEESaISF_EE3endEv@PLT
	movq	%rax, %rcx
	movq	-24(%rbp), %rax
	movq	%rbx, %rdx
	movq	%rcx, %rsi
	movq	%rax, %rdi
	call	_ZNSt6vectorISt4pairINSt7__cxx1112basic_stringIcSt11char_traitsIcESaIcEEESt8functionIFSt10unique_ptrI19InspectionSubServerSt14default_deleteIS9_EEvEEESaISF_EE17_M_realloc_insertIJSF_EEEvN9__gnu_cxx17__normal_iteratorIPSF_SH_EEDpOT_@PLT
.L259:
	movq	-24(%rbp), %rax
	movq	%rax, %rdi
	call	_ZNSt6vectorISt4pairINSt7__cxx1112basic_stringIcSt11char_traitsIcESaIcEEESt8functionIFSt10unique_ptrI19InspectionSubServerSt14default_deleteIS9_EEvEEESaISF_EE4backEv@PLT
	addq	$24, %rsp
	popq	%rbx
	popq	%rbp
	.cfi_def_cfa 7, 8
	ret
	.cfi_endproc
.LFE6476:
	.size	_ZNSt6vectorISt4pairINSt7__cxx1112basic_stringIcSt11char_traitsIcESaIcEEESt8functionIFSt10unique_ptrI19InspectionSubServerSt14default_deleteIS9_EEvEEESaISF_EE12emplace_backIJSF_EEERSF_DpOT_, .-_ZNSt6vectorISt4pairINSt7__cxx1112basic_stringIcSt11char_traitsIcESaIcEEESt8functionIFSt10unique_ptrI19InspectionSubServerSt14default_deleteIS9_EEvEEESaISF_EE12emplace_backIJSF_EEERSF_DpOT_
	.section	.text._ZNSt7__cxx1112basic_stringIcSt11char_traitsIcESaIcEE16_M_construct_auxIPKcEEvT_S8_St12__false_type,"axG",@progbits,_ZNSt7__cxx1112basic_stringIcSt11char_traitsIcESaIcEE16_M_construct_auxIPKcEEvT_S8_St12__false_type,comdat
	.align 2
	.weak	_ZNSt7__cxx1112basic_stringIcSt11char_traitsIcESaIcEE16_M_construct_auxIPKcEEvT_S8_St12__false_type
	.type	_ZNSt7__cxx1112basic_stringIcSt11char_traitsIcESaIcEE16_M_construct_auxIPKcEEvT_S8_St12__false_type, @function
_ZNSt7__cxx1112basic_stringIcSt11char_traitsIcESaIcEE16_M_construct_auxIPKcEEvT_S8_St12__false_type:
.LFB6491:
	.cfi_startproc
	endbr64
	pushq	%rbp
	.cfi_def_cfa_offset 16
	.cfi_offset 6, -16
	movq	%rsp, %rbp
	.cfi_def_cfa_register 6
	subq	$48, %rsp
	movq	%rdi, -24(%rbp)
	movq	%rsi, -32(%rbp)
	movq	%rdx, -40(%rbp)
	movq	%fs:40, %rax
	movq	%rax, -8(%rbp)
	xorl	%eax, %eax
	movq	-40(%rbp), %rdx
	movq	-32(%rbp), %rcx
	movq	-24(%rbp), %rax
	movq	%rcx, %rsi
	movq	%rax, %rdi
	call	_ZNSt7__cxx1112basic_stringIcSt11char_traitsIcESaIcEE12_M_constructIPKcEEvT_S8_St20forward_iterator_tag@PLT
	nop
	movq	-8(%rbp), %rax
	xorq	%fs:40, %rax
	je	.L262
	call	__stack_chk_fail@PLT
.L262:
	leave
	.cfi_def_cfa 7, 8
	ret
	.cfi_endproc
.LFE6491:
	.size	_ZNSt7__cxx1112basic_stringIcSt11char_traitsIcESaIcEE16_M_construct_auxIPKcEEvT_S8_St12__false_type, .-_ZNSt7__cxx1112basic_stringIcSt11char_traitsIcESaIcEE16_M_construct_auxIPKcEEvT_S8_St12__false_type
	.section	.text._ZNKSt10_HashtableINSt7__cxx1112basic_stringIcSt11char_traitsIcESaIcEEESt4pairIKS5_St8functionIFSt10unique_ptrI19InspectionSubServerSt14default_deleteISA_EEvEEESaISG_ENSt8__detail10_Select1stESt8equal_toIS5_ESt4hashIS5_ENSI_18_Mod_range_hashingENSI_20_Default_ranged_hashENSI_20_Prime_rehash_policyENSI_17_Hashtable_traitsILb1ELb0ELb1EEEE8_M_beginEv,"axG",@progbits,_ZNKSt10_HashtableINSt7__cxx1112basic_stringIcSt11char_traitsIcESaIcEEESt4pairIKS5_St8functionIFSt10unique_ptrI19InspectionSubServerSt14default_deleteISA_EEvEEESaISG_ENSt8__detail10_Select1stESt8equal_toIS5_ESt4hashIS5_ENSI_18_Mod_range_hashingENSI_20_Default_ranged_hashENSI_20_Prime_rehash_policyENSI_17_Hashtable_traitsILb1ELb0ELb1EEEE8_M_beginEv,comdat
	.align 2
	.weak	_ZNKSt10_HashtableINSt7__cxx1112basic_stringIcSt11char_traitsIcESaIcEEESt4pairIKS5_St8functionIFSt10unique_ptrI19InspectionSubServerSt14default_deleteISA_EEvEEESaISG_ENSt8__detail10_Select1stESt8equal_toIS5_ESt4hashIS5_ENSI_18_Mod_range_hashingENSI_20_Default_ranged_hashENSI_20_Prime_rehash_policyENSI_17_Hashtable_traitsILb1ELb0ELb1EEEE8_M_beginEv
	.type	_ZNKSt10_HashtableINSt7__cxx1112basic_stringIcSt11char_traitsIcESaIcEEESt4pairIKS5_St8functionIFSt10unique_ptrI19InspectionSubServerSt14default_deleteISA_EEvEEESaISG_ENSt8__detail10_Select1stESt8equal_toIS5_ESt4hashIS5_ENSI_18_Mod_range_hashingENSI_20_Default_ranged_hashENSI_20_Prime_rehash_policyENSI_17_Hashtable_traitsILb1ELb0ELb1EEEE8_M_beginEv, @function
_ZNKSt10_HashtableINSt7__cxx1112basic_stringIcSt11char_traitsIcESaIcEEESt4pairIKS5_St8functionIFSt10unique_ptrI19InspectionSubServerSt14default_deleteISA_EEvEEESaISG_ENSt8__detail10_Select1stESt8equal_toIS5_ESt4hashIS5_ENSI_18_Mod_range_hashingENSI_20_Default_ranged_hashENSI_20_Prime_rehash_policyENSI_17_Hashtable_traitsILb1ELb0ELb1EEEE8_M_beginEv:
.LFB6560:
	.cfi_startproc
	endbr64
	pushq	%rbp
	.cfi_def_cfa_offset 16
	.cfi_offset 6, -16
	movq	%rsp, %rbp
	.cfi_def_cfa_register 6
	movq	%rdi, -8(%rbp)
	movq	-8(%rbp), %rax
	movq	16(%rax), %rax
	popq	%rbp
	.cfi_def_cfa 7, 8
	ret
	.cfi_endproc
.LFE6560:
	.size	_ZNKSt10_HashtableINSt7__cxx1112basic_stringIcSt11char_traitsIcESaIcEEESt4pairIKS5_St8functionIFSt10unique_ptrI19InspectionSubServerSt14default_deleteISA_EEvEEESaISG_ENSt8__detail10_Select1stESt8equal_toIS5_ESt4hashIS5_ENSI_18_Mod_range_hashingENSI_20_Default_ranged_hashENSI_20_Prime_rehash_policyENSI_17_Hashtable_traitsILb1ELb0ELb1EEEE8_M_beginEv, .-_ZNKSt10_HashtableINSt7__cxx1112basic_stringIcSt11char_traitsIcESaIcEEESt4pairIKS5_St8functionIFSt10unique_ptrI19InspectionSubServerSt14default_deleteISA_EEvEEESaISG_ENSt8__detail10_Select1stESt8equal_toIS5_ESt4hashIS5_ENSI_18_Mod_range_hashingENSI_20_Default_ranged_hashENSI_20_Prime_rehash_policyENSI_17_Hashtable_traitsILb1ELb0ELb1EEEE8_M_beginEv
	.section	.text._ZNSt8__detail16_Hashtable_allocISaINS_10_Hash_nodeISt4pairIKNSt7__cxx1112basic_stringIcSt11char_traitsIcESaIcEEESt8functionIFSt10unique_ptrI19InspectionSubServerSt14default_deleteISC_EEvEEELb1EEEEE19_M_deallocate_nodesEPSJ_,"axG",@progbits,_ZNSt8__detail16_Hashtable_allocISaINS_10_Hash_nodeISt4pairIKNSt7__cxx1112basic_stringIcSt11char_traitsIcESaIcEEESt8functionIFSt10unique_ptrI19InspectionSubServerSt14default_deleteISC_EEvEEELb1EEEEE19_M_deallocate_nodesEPSJ_,comdat
	.align 2
	.weak	_ZNSt8__detail16_Hashtable_allocISaINS_10_Hash_nodeISt4pairIKNSt7__cxx1112basic_stringIcSt11char_traitsIcESaIcEEESt8functionIFSt10unique_ptrI19InspectionSubServerSt14default_deleteISC_EEvEEELb1EEEEE19_M_deallocate_nodesEPSJ_
	.type	_ZNSt8__detail16_Hashtable_allocISaINS_10_Hash_nodeISt4pairIKNSt7__cxx1112basic_stringIcSt11char_traitsIcESaIcEEESt8functionIFSt10unique_ptrI19InspectionSubServerSt14default_deleteISC_EEvEEELb1EEEEE19_M_deallocate_nodesEPSJ_, @function
_ZNSt8__detail16_Hashtable_allocISaINS_10_Hash_nodeISt4pairIKNSt7__cxx1112basic_stringIcSt11char_traitsIcESaIcEEESt8functionIFSt10unique_ptrI19InspectionSubServerSt14default_deleteISC_EEvEEELb1EEEEE19_M_deallocate_nodesEPSJ_:
.LFB6561:
	.cfi_startproc
	endbr64
	pushq	%rbp
	.cfi_def_cfa_offset 16
	.cfi_offset 6, -16
	movq	%rsp, %rbp
	.cfi_def_cfa_register 6
	subq	$32, %rsp
	movq	%rdi, -24(%rbp)
	movq	%rsi, -32(%rbp)
.L267:
	cmpq	$0, -32(%rbp)
	je	.L268
	movq	-32(%rbp), %rax
	movq	%rax, -8(%rbp)
	movq	-32(%rbp), %rax
	movq	%rax, %rdi
	call	_ZNKSt8__detail10_Hash_nodeISt4pairIKNSt7__cxx1112basic_stringIcSt11char_traitsIcESaIcEEESt8functionIFSt10unique_ptrI19InspectionSubServerSt14default_deleteISB_EEvEEELb1EE7_M_nextEv@PLT
	movq	%rax, -32(%rbp)
	movq	-8(%rbp), %rdx
	movq	-24(%rbp), %rax
	movq	%rdx, %rsi
	movq	%rax, %rdi
	call	_ZNSt8__detail16_Hashtable_allocISaINS_10_Hash_nodeISt4pairIKNSt7__cxx1112basic_stringIcSt11char_traitsIcESaIcEEESt8functionIFSt10unique_ptrI19InspectionSubServerSt14default_deleteISC_EEvEEELb1EEEEE18_M_deallocate_nodeEPSJ_@PLT
	jmp	.L267
.L268:
	nop
	leave
	.cfi_def_cfa 7, 8
	ret
	.cfi_endproc
.LFE6561:
	.size	_ZNSt8__detail16_Hashtable_allocISaINS_10_Hash_nodeISt4pairIKNSt7__cxx1112basic_stringIcSt11char_traitsIcESaIcEEESt8functionIFSt10unique_ptrI19InspectionSubServerSt14default_deleteISC_EEvEEELb1EEEEE19_M_deallocate_nodesEPSJ_, .-_ZNSt8__detail16_Hashtable_allocISaINS_10_Hash_nodeISt4pairIKNSt7__cxx1112basic_stringIcSt11char_traitsIcESaIcEEESt8functionIFSt10unique_ptrI19InspectionSubServerSt14default_deleteISC_EEvEEELb1EEEEE19_M_deallocate_nodesEPSJ_
	.section	.text._ZNSt10_HashtableINSt7__cxx1112basic_stringIcSt11char_traitsIcESaIcEEESt4pairIKS5_St8functionIFSt10unique_ptrI19InspectionSubServerSt14default_deleteISA_EEvEEESaISG_ENSt8__detail10_Select1stESt8equal_toIS5_ESt4hashIS5_ENSI_18_Mod_range_hashingENSI_20_Default_ranged_hashENSI_20_Prime_rehash_policyENSI_17_Hashtable_traitsILb1ELb0ELb1EEEE21_M_deallocate_bucketsEPPNSI_15_Hash_node_baseEm,"axG",@progbits,_ZNSt10_HashtableINSt7__cxx1112basic_stringIcSt11char_traitsIcESaIcEEESt4pairIKS5_St8functionIFSt10unique_ptrI19InspectionSubServerSt14default_deleteISA_EEvEEESaISG_ENSt8__detail10_Select1stESt8equal_toIS5_ESt4hashIS5_ENSI_18_Mod_range_hashingENSI_20_Default_ranged_hashENSI_20_Prime_rehash_policyENSI_17_Hashtable_traitsILb1ELb0ELb1EEEE21_M_deallocate_bucketsEPPNSI_15_Hash_node_baseEm,comdat
	.align 2
	.weak	_ZNSt10_HashtableINSt7__cxx1112basic_stringIcSt11char_traitsIcESaIcEEESt4pairIKS5_St8functionIFSt10unique_ptrI19InspectionSubServerSt14default_deleteISA_EEvEEESaISG_ENSt8__detail10_Select1stESt8equal_toIS5_ESt4hashIS5_ENSI_18_Mod_range_hashingENSI_20_Default_ranged_hashENSI_20_Prime_rehash_policyENSI_17_Hashtable_traitsILb1ELb0ELb1EEEE21_M_deallocate_bucketsEPPNSI_15_Hash_node_baseEm
	.type	_ZNSt10_HashtableINSt7__cxx1112basic_stringIcSt11char_traitsIcESaIcEEESt4pairIKS5_St8functionIFSt10unique_ptrI19InspectionSubServerSt14default_deleteISA_EEvEEESaISG_ENSt8__detail10_Select1stESt8equal_toIS5_ESt4hashIS5_ENSI_18_Mod_range_hashingENSI_20_Default_ranged_hashENSI_20_Prime_rehash_policyENSI_17_Hashtable_traitsILb1ELb0ELb1EEEE21_M_deallocate_bucketsEPPNSI_15_Hash_node_baseEm, @function
_ZNSt10_HashtableINSt7__cxx1112basic_stringIcSt11char_traitsIcESaIcEEESt4pairIKS5_St8functionIFSt10unique_ptrI19InspectionSubServerSt14default_deleteISA_EEvEEESaISG_ENSt8__detail10_Select1stESt8equal_toIS5_ESt4hashIS5_ENSI_18_Mod_range_hashingENSI_20_Default_ranged_hashENSI_20_Prime_rehash_policyENSI_17_Hashtable_traitsILb1ELb0ELb1EEEE21_M_deallocate_bucketsEPPNSI_15_Hash_node_baseEm:
.LFB6562:
	.cfi_startproc
	endbr64
	pushq	%rbp
	.cfi_def_cfa_offset 16
	.cfi_offset 6, -16
	movq	%rsp, %rbp
	.cfi_def_cfa_register 6
	subq	$32, %rsp
	movq	%rdi, -8(%rbp)
	movq	%rsi, -16(%rbp)
	movq	%rdx, -24(%rbp)
	movq	-16(%rbp), %rdx
	movq	-8(%rbp), %rax
	movq	%rdx, %rsi
	movq	%rax, %rdi
	call	_ZNKSt10_HashtableINSt7__cxx1112basic_stringIcSt11char_traitsIcESaIcEEESt4pairIKS5_St8functionIFSt10unique_ptrI19InspectionSubServerSt14default_deleteISA_EEvEEESaISG_ENSt8__detail10_Select1stESt8equal_toIS5_ESt4hashIS5_ENSI_18_Mod_range_hashingENSI_20_Default_ranged_hashENSI_20_Prime_rehash_policyENSI_17_Hashtable_traitsILb1ELb0ELb1EEEE21_M_uses_single_bucketEPPNSI_15_Hash_node_baseE@PLT
	testb	%al, %al
	jne	.L272
	movq	-24(%rbp), %rdx
	movq	-16(%rbp), %rcx
	movq	-8(%rbp), %rax
	movq	%rcx, %rsi
	movq	%rax, %rdi
	call	_ZNSt8__detail16_Hashtable_allocISaINS_10_Hash_nodeISt4pairIKNSt7__cxx1112basic_stringIcSt11char_traitsIcESaIcEEESt8functionIFSt10unique_ptrI19InspectionSubServerSt14default_deleteISC_EEvEEELb1EEEEE21_M_deallocate_bucketsEPPNS_15_Hash_node_baseEm@PLT
	jmp	.L269
.L272:
	nop
.L269:
	leave
	.cfi_def_cfa 7, 8
	ret
	.cfi_endproc
.LFE6562:
	.size	_ZNSt10_HashtableINSt7__cxx1112basic_stringIcSt11char_traitsIcESaIcEEESt4pairIKS5_St8functionIFSt10unique_ptrI19InspectionSubServerSt14default_deleteISA_EEvEEESaISG_ENSt8__detail10_Select1stESt8equal_toIS5_ESt4hashIS5_ENSI_18_Mod_range_hashingENSI_20_Default_ranged_hashENSI_20_Prime_rehash_policyENSI_17_Hashtable_traitsILb1ELb0ELb1EEEE21_M_deallocate_bucketsEPPNSI_15_Hash_node_baseEm, .-_ZNSt10_HashtableINSt7__cxx1112basic_stringIcSt11char_traitsIcESaIcEEESt4pairIKS5_St8functionIFSt10unique_ptrI19InspectionSubServerSt14default_deleteISA_EEvEEESaISG_ENSt8__detail10_Select1stESt8equal_toIS5_ESt4hashIS5_ENSI_18_Mod_range_hashingENSI_20_Default_ranged_hashENSI_20_Prime_rehash_policyENSI_17_Hashtable_traitsILb1ELb0ELb1EEEE21_M_deallocate_bucketsEPPNSI_15_Hash_node_baseEm
	.section	.text._ZNKSt8__detail15_Hash_code_baseINSt7__cxx1112basic_stringIcSt11char_traitsIcESaIcEEESt4pairIKS6_St8functionIFSt10unique_ptrI19InspectionSubServerSt14default_deleteISB_EEvEEENS_10_Select1stESt4hashIS6_ENS_18_Mod_range_hashingENS_20_Default_ranged_hashELb1EE12_M_hash_codeERS8_,"axG",@progbits,_ZNKSt8__detail15_Hash_code_baseINSt7__cxx1112basic_stringIcSt11char_traitsIcESaIcEEESt4pairIKS6_St8functionIFSt10unique_ptrI19InspectionSubServerSt14default_deleteISB_EEvEEENS_10_Select1stESt4hashIS6_ENS_18_Mod_range_hashingENS_20_Default_ranged_hashELb1EE12_M_hash_codeERS8_,comdat
	.align 2
	.weak	_ZNKSt8__detail15_Hash_code_baseINSt7__cxx1112basic_stringIcSt11char_traitsIcESaIcEEESt4pairIKS6_St8functionIFSt10unique_ptrI19InspectionSubServerSt14default_deleteISB_EEvEEENS_10_Select1stESt4hashIS6_ENS_18_Mod_range_hashingENS_20_Default_ranged_hashELb1EE12_M_hash_codeERS8_
	.type	_ZNKSt8__detail15_Hash_code_baseINSt7__cxx1112basic_stringIcSt11char_traitsIcESaIcEEESt4pairIKS6_St8functionIFSt10unique_ptrI19InspectionSubServerSt14default_deleteISB_EEvEEENS_10_Select1stESt4hashIS6_ENS_18_Mod_range_hashingENS_20_Default_ranged_hashELb1EE12_M_hash_codeERS8_, @function
_ZNKSt8__detail15_Hash_code_baseINSt7__cxx1112basic_stringIcSt11char_traitsIcESaIcEEESt4pairIKS6_St8functionIFSt10unique_ptrI19InspectionSubServerSt14default_deleteISB_EEvEEENS_10_Select1stESt4hashIS6_ENS_18_Mod_range_hashingENS_20_Default_ranged_hashELb1EE12_M_hash_codeERS8_:
.LFB6563:
	.cfi_startproc
	endbr64
	pushq	%rbp
	.cfi_def_cfa_offset 16
	.cfi_offset 6, -16
	movq	%rsp, %rbp
	.cfi_def_cfa_register 6
	subq	$16, %rsp
	movq	%rdi, -8(%rbp)
	movq	%rsi, -16(%rbp)
	movq	-8(%rbp), %rax
	movq	%rax, %rdi
	call	_ZNKSt8__detail15_Hash_code_baseINSt7__cxx1112basic_stringIcSt11char_traitsIcESaIcEEESt4pairIKS6_St8functionIFSt10unique_ptrI19InspectionSubServerSt14default_deleteISB_EEvEEENS_10_Select1stESt4hashIS6_ENS_18_Mod_range_hashingENS_20_Default_ranged_hashELb1EE5_M_h1Ev@PLT
	movq	%rax, %rdx
	movq	-16(%rbp), %rax
	movq	%rax, %rsi
	movq	%rdx, %rdi
	call	_ZNKSt4hashINSt7__cxx1112basic_stringIcSt11char_traitsIcESaIcEEEEclERKS5_@PLT
	leave
	.cfi_def_cfa 7, 8
	ret
	.cfi_endproc
.LFE6563:
	.size	_ZNKSt8__detail15_Hash_code_baseINSt7__cxx1112basic_stringIcSt11char_traitsIcESaIcEEESt4pairIKS6_St8functionIFSt10unique_ptrI19InspectionSubServerSt14default_deleteISB_EEvEEENS_10_Select1stESt4hashIS6_ENS_18_Mod_range_hashingENS_20_Default_ranged_hashELb1EE12_M_hash_codeERS8_, .-_ZNKSt8__detail15_Hash_code_baseINSt7__cxx1112basic_stringIcSt11char_traitsIcESaIcEEESt4pairIKS6_St8functionIFSt10unique_ptrI19InspectionSubServerSt14default_deleteISB_EEvEEENS_10_Select1stESt4hashIS6_ENS_18_Mod_range_hashingENS_20_Default_ranged_hashELb1EE12_M_hash_codeERS8_
	.section	.text._ZNKSt10_HashtableINSt7__cxx1112basic_stringIcSt11char_traitsIcESaIcEEESt4pairIKS5_St8functionIFSt10unique_ptrI19InspectionSubServerSt14default_deleteISA_EEvEEESaISG_ENSt8__detail10_Select1stESt8equal_toIS5_ESt4hashIS5_ENSI_18_Mod_range_hashingENSI_20_Default_ranged_hashENSI_20_Prime_rehash_policyENSI_17_Hashtable_traitsILb1ELb0ELb1EEEE15_M_bucket_indexERS7_m,"axG",@progbits,_ZNKSt10_HashtableINSt7__cxx1112basic_stringIcSt11char_traitsIcESaIcEEESt4pairIKS5_St8functionIFSt10unique_ptrI19InspectionSubServerSt14default_deleteISA_EEvEEESaISG_ENSt8__detail10_Select1stESt8equal_toIS5_ESt4hashIS5_ENSI_18_Mod_range_hashingENSI_20_Default_ranged_hashENSI_20_Prime_rehash_policyENSI_17_Hashtable_traitsILb1ELb0ELb1EEEE15_M_bucket_indexERS7_m,comdat
	.align 2
	.weak	_ZNKSt10_HashtableINSt7__cxx1112basic_stringIcSt11char_traitsIcESaIcEEESt4pairIKS5_St8functionIFSt10unique_ptrI19InspectionSubServerSt14default_deleteISA_EEvEEESaISG_ENSt8__detail10_Select1stESt8equal_toIS5_ESt4hashIS5_ENSI_18_Mod_range_hashingENSI_20_Default_ranged_hashENSI_20_Prime_rehash_policyENSI_17_Hashtable_traitsILb1ELb0ELb1EEEE15_M_bucket_indexERS7_m
	.type	_ZNKSt10_HashtableINSt7__cxx1112basic_stringIcSt11char_traitsIcESaIcEEESt4pairIKS5_St8functionIFSt10unique_ptrI19InspectionSubServerSt14default_deleteISA_EEvEEESaISG_ENSt8__detail10_Select1stESt8equal_toIS5_ESt4hashIS5_ENSI_18_Mod_range_hashingENSI_20_Default_ranged_hashENSI_20_Prime_rehash_policyENSI_17_Hashtable_traitsILb1ELb0ELb1EEEE15_M_bucket_indexERS7_m, @function
_ZNKSt10_HashtableINSt7__cxx1112basic_stringIcSt11char_traitsIcESaIcEEESt4pairIKS5_St8functionIFSt10unique_ptrI19InspectionSubServerSt14default_deleteISA_EEvEEESaISG_ENSt8__detail10_Select1stESt8equal_toIS5_ESt4hashIS5_ENSI_18_Mod_range_hashingENSI_20_Default_ranged_hashENSI_20_Prime_rehash_policyENSI_17_Hashtable_traitsILb1ELb0ELb1EEEE15_M_bucket_indexERS7_m:
.LFB6565:
	.cfi_startproc
	endbr64
	pushq	%rbp
	.cfi_def_cfa_offset 16
	.cfi_offset 6, -16
	movq	%rsp, %rbp
	.cfi_def_cfa_register 6
	subq	$32, %rsp
	movq	%rdi, -8(%rbp)
	movq	%rsi, -16(%rbp)
	movq	%rdx, -24(%rbp)
	movq	-8(%rbp), %rax
	movq	8(%rax), %rcx
	movq	-24(%rbp), %rdx
	movq	-16(%rbp), %rsi
	movq	-8(%rbp), %rax
	movq	%rax, %rdi
	call	_ZNKSt8__detail15_Hash_code_baseINSt7__cxx1112basic_stringIcSt11char_traitsIcESaIcEEESt4pairIKS6_St8functionIFSt10unique_ptrI19InspectionSubServerSt14default_deleteISB_EEvEEENS_10_Select1stESt4hashIS6_ENS_18_Mod_range_hashingENS_20_Default_ranged_hashELb1EE15_M_bucket_indexERS8_mm@PLT
	leave
	.cfi_def_cfa 7, 8
	ret
	.cfi_endproc
.LFE6565:
	.size	_ZNKSt10_HashtableINSt7__cxx1112basic_stringIcSt11char_traitsIcESaIcEEESt4pairIKS5_St8functionIFSt10unique_ptrI19InspectionSubServerSt14default_deleteISA_EEvEEESaISG_ENSt8__detail10_Select1stESt8equal_toIS5_ESt4hashIS5_ENSI_18_Mod_range_hashingENSI_20_Default_ranged_hashENSI_20_Prime_rehash_policyENSI_17_Hashtable_traitsILb1ELb0ELb1EEEE15_M_bucket_indexERS7_m, .-_ZNKSt10_HashtableINSt7__cxx1112basic_stringIcSt11char_traitsIcESaIcEEESt4pairIKS5_St8functionIFSt10unique_ptrI19InspectionSubServerSt14default_deleteISA_EEvEEESaISG_ENSt8__detail10_Select1stESt8equal_toIS5_ESt4hashIS5_ENSI_18_Mod_range_hashingENSI_20_Default_ranged_hashENSI_20_Prime_rehash_policyENSI_17_Hashtable_traitsILb1ELb0ELb1EEEE15_M_bucket_indexERS7_m
	.section	.text._ZNKSt10_HashtableINSt7__cxx1112basic_stringIcSt11char_traitsIcESaIcEEESt4pairIKS5_St8functionIFSt10unique_ptrI19InspectionSubServerSt14default_deleteISA_EEvEEESaISG_ENSt8__detail10_Select1stESt8equal_toIS5_ESt4hashIS5_ENSI_18_Mod_range_hashingENSI_20_Default_ranged_hashENSI_20_Prime_rehash_policyENSI_17_Hashtable_traitsILb1ELb0ELb1EEEE15_M_bucket_beginEm,"axG",@progbits,_ZNKSt10_HashtableINSt7__cxx1112basic_stringIcSt11char_traitsIcESaIcEEESt4pairIKS5_St8functionIFSt10unique_ptrI19InspectionSubServerSt14default_deleteISA_EEvEEESaISG_ENSt8__detail10_Select1stESt8equal_toIS5_ESt4hashIS5_ENSI_18_Mod_range_hashingENSI_20_Default_ranged_hashENSI_20_Prime_rehash_policyENSI_17_Hashtable_traitsILb1ELb0ELb1EEEE15_M_bucket_beginEm,comdat
	.align 2
	.weak	_ZNKSt10_HashtableINSt7__cxx1112basic_stringIcSt11char_traitsIcESaIcEEESt4pairIKS5_St8functionIFSt10unique_ptrI19InspectionSubServerSt14default_deleteISA_EEvEEESaISG_ENSt8__detail10_Select1stESt8equal_toIS5_ESt4hashIS5_ENSI_18_Mod_range_hashingENSI_20_Default_ranged_hashENSI_20_Prime_rehash_policyENSI_17_Hashtable_traitsILb1ELb0ELb1EEEE15_M_bucket_beginEm
	.type	_ZNKSt10_HashtableINSt7__cxx1112basic_stringIcSt11char_traitsIcESaIcEEESt4pairIKS5_St8functionIFSt10unique_ptrI19InspectionSubServerSt14default_deleteISA_EEvEEESaISG_ENSt8__detail10_Select1stESt8equal_toIS5_ESt4hashIS5_ENSI_18_Mod_range_hashingENSI_20_Default_ranged_hashENSI_20_Prime_rehash_policyENSI_17_Hashtable_traitsILb1ELb0ELb1EEEE15_M_bucket_beginEm, @function
_ZNKSt10_HashtableINSt7__cxx1112basic_stringIcSt11char_traitsIcESaIcEEESt4pairIKS5_St8functionIFSt10unique_ptrI19InspectionSubServerSt14default_deleteISA_EEvEEESaISG_ENSt8__detail10_Select1stESt8equal_toIS5_ESt4hashIS5_ENSI_18_Mod_range_hashingENSI_20_Default_ranged_hashENSI_20_Prime_rehash_policyENSI_17_Hashtable_traitsILb1ELb0ELb1EEEE15_M_bucket_beginEm:
.LFB6566:
	.cfi_startproc
	endbr64
	pushq	%rbp
	.cfi_def_cfa_offset 16
	.cfi_offset 6, -16
	movq	%rsp, %rbp
	.cfi_def_cfa_register 6
	movq	%rdi, -24(%rbp)
	movq	%rsi, -32(%rbp)
	movq	-24(%rbp), %rax
	movq	(%rax), %rax
	movq	-32(%rbp), %rdx
	salq	$3, %rdx
	addq	%rdx, %rax
	movq	(%rax), %rax
	movq	%rax, -8(%rbp)
	cmpq	$0, -8(%rbp)
	je	.L278
	movq	-8(%rbp), %rax
	movq	(%rax), %rax
	jmp	.L280
.L278:
	movl	$0, %eax
.L280:
	popq	%rbp
	.cfi_def_cfa 7, 8
	ret
	.cfi_endproc
.LFE6566:
	.size	_ZNKSt10_HashtableINSt7__cxx1112basic_stringIcSt11char_traitsIcESaIcEEESt4pairIKS5_St8functionIFSt10unique_ptrI19InspectionSubServerSt14default_deleteISA_EEvEEESaISG_ENSt8__detail10_Select1stESt8equal_toIS5_ESt4hashIS5_ENSI_18_Mod_range_hashingENSI_20_Default_ranged_hashENSI_20_Prime_rehash_policyENSI_17_Hashtable_traitsILb1ELb0ELb1EEEE15_M_bucket_beginEm, .-_ZNKSt10_HashtableINSt7__cxx1112basic_stringIcSt11char_traitsIcESaIcEEESt4pairIKS5_St8functionIFSt10unique_ptrI19InspectionSubServerSt14default_deleteISA_EEvEEESaISG_ENSt8__detail10_Select1stESt8equal_toIS5_ESt4hashIS5_ENSI_18_Mod_range_hashingENSI_20_Default_ranged_hashENSI_20_Prime_rehash_policyENSI_17_Hashtable_traitsILb1ELb0ELb1EEEE15_M_bucket_beginEm
	.section	.text._ZNKSt8__detail10_Hash_nodeISt4pairIKNSt7__cxx1112basic_stringIcSt11char_traitsIcESaIcEEESt8functionIFSt10unique_ptrI19InspectionSubServerSt14default_deleteISB_EEvEEELb1EE7_M_nextEv,"axG",@progbits,_ZNKSt8__detail10_Hash_nodeISt4pairIKNSt7__cxx1112basic_stringIcSt11char_traitsIcESaIcEEESt8functionIFSt10unique_ptrI19InspectionSubServerSt14default_deleteISB_EEvEEELb1EE7_M_nextEv,comdat
	.align 2
	.weak	_ZNKSt8__detail10_Hash_nodeISt4pairIKNSt7__cxx1112basic_stringIcSt11char_traitsIcESaIcEEESt8functionIFSt10unique_ptrI19InspectionSubServerSt14default_deleteISB_EEvEEELb1EE7_M_nextEv
	.type	_ZNKSt8__detail10_Hash_nodeISt4pairIKNSt7__cxx1112basic_stringIcSt11char_traitsIcESaIcEEESt8functionIFSt10unique_ptrI19InspectionSubServerSt14default_deleteISB_EEvEEELb1EE7_M_nextEv, @function
_ZNKSt8__detail10_Hash_nodeISt4pairIKNSt7__cxx1112basic_stringIcSt11char_traitsIcESaIcEEESt8functionIFSt10unique_ptrI19InspectionSubServerSt14default_deleteISB_EEvEEELb1EE7_M_nextEv:
.LFB6567:
	.cfi_startproc
	endbr64
	pushq	%rbp
	.cfi_def_cfa_offset 16
	.cfi_offset 6, -16
	movq	%rsp, %rbp
	.cfi_def_cfa_register 6
	movq	%rdi, -8(%rbp)
	movq	-8(%rbp), %rax
	movq	(%rax), %rax
	popq	%rbp
	.cfi_def_cfa 7, 8
	ret
	.cfi_endproc
.LFE6567:
	.size	_ZNKSt8__detail10_Hash_nodeISt4pairIKNSt7__cxx1112basic_stringIcSt11char_traitsIcESaIcEEESt8functionIFSt10unique_ptrI19InspectionSubServerSt14default_deleteISB_EEvEEELb1EE7_M_nextEv, .-_ZNKSt8__detail10_Hash_nodeISt4pairIKNSt7__cxx1112basic_stringIcSt11char_traitsIcESaIcEEESt8functionIFSt10unique_ptrI19InspectionSubServerSt14default_deleteISB_EEvEEELb1EE7_M_nextEv
	.section	.text._ZNKSt8__detail15_Hashtable_baseINSt7__cxx1112basic_stringIcSt11char_traitsIcESaIcEEESt4pairIKS6_St8functionIFSt10unique_ptrI19InspectionSubServerSt14default_deleteISB_EEvEEENS_10_Select1stESt8equal_toIS6_ESt4hashIS6_ENS_18_Mod_range_hashingENS_20_Default_ranged_hashENS_17_Hashtable_traitsILb1ELb0ELb1EEEE9_M_equalsERS8_mPNS_10_Hash_nodeISH_Lb1EEE,"axG",@progbits,_ZNKSt8__detail15_Hashtable_baseINSt7__cxx1112basic_stringIcSt11char_traitsIcESaIcEEESt4pairIKS6_St8functionIFSt10unique_ptrI19InspectionSubServerSt14default_deleteISB_EEvEEENS_10_Select1stESt8equal_toIS6_ESt4hashIS6_ENS_18_Mod_range_hashingENS_20_Default_ranged_hashENS_17_Hashtable_traitsILb1ELb0ELb1EEEE9_M_equalsERS8_mPNS_10_Hash_nodeISH_Lb1EEE,comdat
	.align 2
	.weak	_ZNKSt8__detail15_Hashtable_baseINSt7__cxx1112basic_stringIcSt11char_traitsIcESaIcEEESt4pairIKS6_St8functionIFSt10unique_ptrI19InspectionSubServerSt14default_deleteISB_EEvEEENS_10_Select1stESt8equal_toIS6_ESt4hashIS6_ENS_18_Mod_range_hashingENS_20_Default_ranged_hashENS_17_Hashtable_traitsILb1ELb0ELb1EEEE9_M_equalsERS8_mPNS_10_Hash_nodeISH_Lb1EEE
	.type	_ZNKSt8__detail15_Hashtable_baseINSt7__cxx1112basic_stringIcSt11char_traitsIcESaIcEEESt4pairIKS6_St8functionIFSt10unique_ptrI19InspectionSubServerSt14default_deleteISB_EEvEEENS_10_Select1stESt8equal_toIS6_ESt4hashIS6_ENS_18_Mod_range_hashingENS_20_Default_ranged_hashENS_17_Hashtable_traitsILb1ELb0ELb1EEEE9_M_equalsERS8_mPNS_10_Hash_nodeISH_Lb1EEE, @function
_ZNKSt8__detail15_Hashtable_baseINSt7__cxx1112basic_stringIcSt11char_traitsIcESaIcEEESt4pairIKS6_St8functionIFSt10unique_ptrI19InspectionSubServerSt14default_deleteISB_EEvEEENS_10_Select1stESt8equal_toIS6_ESt4hashIS6_ENS_18_Mod_range_hashingENS_20_Default_ranged_hashENS_17_Hashtable_traitsILb1ELb0ELb1EEEE9_M_equalsERS8_mPNS_10_Hash_nodeISH_Lb1EEE:
.LFB6568:
	.cfi_startproc
	endbr64
	pushq	%rbp
	.cfi_def_cfa_offset 16
	.cfi_offset 6, -16
	movq	%rsp, %rbp
	.cfi_def_cfa_register 6
	pushq	%rbx
	subq	$40, %rsp
	.cfi_offset 3, -24
	movq	%rdi, -24(%rbp)
	movq	%rsi, -32(%rbp)
	movq	%rdx, -40(%rbp)
	movq	%rcx, -48(%rbp)
	movq	-24(%rbp), %rax
	movq	%rax, %rdi
	call	_ZNKSt8__detail15_Hash_code_baseINSt7__cxx1112basic_stringIcSt11char_traitsIcESaIcEEESt4pairIKS6_St8functionIFSt10unique_ptrI19InspectionSubServerSt14default_deleteISB_EEvEEENS_10_Select1stESt4hashIS6_ENS_18_Mod_range_hashingENS_20_Default_ranged_hashELb1EE10_M_extractEv@PLT
	movq	%rax, %rbx
	movq	-24(%rbp), %rax
	movq	%rax, %rdi
	call	_ZNKSt8__detail15_Hashtable_baseINSt7__cxx1112basic_stringIcSt11char_traitsIcESaIcEEESt4pairIKS6_St8functionIFSt10unique_ptrI19InspectionSubServerSt14default_deleteISB_EEvEEENS_10_Select1stESt8equal_toIS6_ESt4hashIS6_ENS_18_Mod_range_hashingENS_20_Default_ranged_hashENS_17_Hashtable_traitsILb1ELb0ELb1EEEE5_M_eqEv@PLT
	movq	%rax, %rdi
	movq	-48(%rbp), %rcx
	movq	-40(%rbp), %rdx
	movq	-32(%rbp), %rax
	movq	%rcx, %r8
	movq	%rdx, %rcx
	movq	%rax, %rdx
	movq	%rbx, %rsi
	call	_ZNSt8__detail13_Equal_helperINSt7__cxx1112basic_stringIcSt11char_traitsIcESaIcEEESt4pairIKS6_St8functionIFSt10unique_ptrI19InspectionSubServerSt14default_deleteISB_EEvEEENS_10_Select1stESt8equal_toIS6_EmLb1EE9_S_equalsERKSK_RKSI_RS8_mPNS_10_Hash_nodeISH_Lb1EEE@PLT
	addq	$40, %rsp
	popq	%rbx
	popq	%rbp
	.cfi_def_cfa 7, 8
	ret
	.cfi_endproc
.LFE6568:
	.size	_ZNKSt8__detail15_Hashtable_baseINSt7__cxx1112basic_stringIcSt11char_traitsIcESaIcEEESt4pairIKS6_St8functionIFSt10unique_ptrI19InspectionSubServerSt14default_deleteISB_EEvEEENS_10_Select1stESt8equal_toIS6_ESt4hashIS6_ENS_18_Mod_range_hashingENS_20_Default_ranged_hashENS_17_Hashtable_traitsILb1ELb0ELb1EEEE9_M_equalsERS8_mPNS_10_Hash_nodeISH_Lb1EEE, .-_ZNKSt8__detail15_Hashtable_baseINSt7__cxx1112basic_stringIcSt11char_traitsIcESaIcEEESt4pairIKS6_St8functionIFSt10unique_ptrI19InspectionSubServerSt14default_deleteISB_EEvEEENS_10_Select1stESt8equal_toIS6_ESt4hashIS6_ENS_18_Mod_range_hashingENS_20_Default_ranged_hashENS_17_Hashtable_traitsILb1ELb0ELb1EEEE9_M_equalsERS8_mPNS_10_Hash_nodeISH_Lb1EEE
	.section	.text._ZNKSt10_HashtableINSt7__cxx1112basic_stringIcSt11char_traitsIcESaIcEEESt4pairIKS5_St8functionIFSt10unique_ptrI19InspectionSubServerSt14default_deleteISA_EEvEEESaISG_ENSt8__detail10_Select1stESt8equal_toIS5_ESt4hashIS5_ENSI_18_Mod_range_hashingENSI_20_Default_ranged_hashENSI_20_Prime_rehash_policyENSI_17_Hashtable_traitsILb1ELb0ELb1EEEE15_M_bucket_indexEPNSI_10_Hash_nodeISG_Lb1EEE,"axG",@progbits,_ZNKSt10_HashtableINSt7__cxx1112basic_stringIcSt11char_traitsIcESaIcEEESt4pairIKS5_St8functionIFSt10unique_ptrI19InspectionSubServerSt14default_deleteISA_EEvEEESaISG_ENSt8__detail10_Select1stESt8equal_toIS5_ESt4hashIS5_ENSI_18_Mod_range_hashingENSI_20_Default_ranged_hashENSI_20_Prime_rehash_policyENSI_17_Hashtable_traitsILb1ELb0ELb1EEEE15_M_bucket_indexEPNSI_10_Hash_nodeISG_Lb1EEE,comdat
	.align 2
	.weak	_ZNKSt10_HashtableINSt7__cxx1112basic_stringIcSt11char_traitsIcESaIcEEESt4pairIKS5_St8functionIFSt10unique_ptrI19InspectionSubServerSt14default_deleteISA_EEvEEESaISG_ENSt8__detail10_Select1stESt8equal_toIS5_ESt4hashIS5_ENSI_18_Mod_range_hashingENSI_20_Default_ranged_hashENSI_20_Prime_rehash_policyENSI_17_Hashtable_traitsILb1ELb0ELb1EEEE15_M_bucket_indexEPNSI_10_Hash_nodeISG_Lb1EEE
	.type	_ZNKSt10_HashtableINSt7__cxx1112basic_stringIcSt11char_traitsIcESaIcEEESt4pairIKS5_St8functionIFSt10unique_ptrI19InspectionSubServerSt14default_deleteISA_EEvEEESaISG_ENSt8__detail10_Select1stESt8equal_toIS5_ESt4hashIS5_ENSI_18_Mod_range_hashingENSI_20_Default_ranged_hashENSI_20_Prime_rehash_policyENSI_17_Hashtable_traitsILb1ELb0ELb1EEEE15_M_bucket_indexEPNSI_10_Hash_nodeISG_Lb1EEE, @function
_ZNKSt10_HashtableINSt7__cxx1112basic_stringIcSt11char_traitsIcESaIcEEESt4pairIKS5_St8functionIFSt10unique_ptrI19InspectionSubServerSt14default_deleteISA_EEvEEESaISG_ENSt8__detail10_Select1stESt8equal_toIS5_ESt4hashIS5_ENSI_18_Mod_range_hashingENSI_20_Default_ranged_hashENSI_20_Prime_rehash_policyENSI_17_Hashtable_traitsILb1ELb0ELb1EEEE15_M_bucket_indexEPNSI_10_Hash_nodeISG_Lb1EEE:
.LFB6569:
	.cfi_startproc
	endbr64
	pushq	%rbp
	.cfi_def_cfa_offset 16
	.cfi_offset 6, -16
	movq	%rsp, %rbp
	.cfi_def_cfa_register 6
	subq	$16, %rsp
	movq	%rdi, -8(%rbp)
	movq	%rsi, -16(%rbp)
	movq	-8(%rbp), %rax
	movq	8(%rax), %rdx
	movq	-16(%rbp), %rcx
	movq	-8(%rbp), %rax
	movq	%rcx, %rsi
	movq	%rax, %rdi
	call	_ZNKSt8__detail15_Hash_code_baseINSt7__cxx1112basic_stringIcSt11char_traitsIcESaIcEEESt4pairIKS6_St8functionIFSt10unique_ptrI19InspectionSubServerSt14default_deleteISB_EEvEEENS_10_Select1stESt4hashIS6_ENS_18_Mod_range_hashingENS_20_Default_ranged_hashELb1EE15_M_bucket_indexEPKNS_10_Hash_nodeISH_Lb1EEEm@PLT
	leave
	.cfi_def_cfa 7, 8
	ret
	.cfi_endproc
.LFE6569:
	.size	_ZNKSt10_HashtableINSt7__cxx1112basic_stringIcSt11char_traitsIcESaIcEEESt4pairIKS5_St8functionIFSt10unique_ptrI19InspectionSubServerSt14default_deleteISA_EEvEEESaISG_ENSt8__detail10_Select1stESt8equal_toIS5_ESt4hashIS5_ENSI_18_Mod_range_hashingENSI_20_Default_ranged_hashENSI_20_Prime_rehash_policyENSI_17_Hashtable_traitsILb1ELb0ELb1EEEE15_M_bucket_indexEPNSI_10_Hash_nodeISG_Lb1EEE, .-_ZNKSt10_HashtableINSt7__cxx1112basic_stringIcSt11char_traitsIcESaIcEEESt4pairIKS5_St8functionIFSt10unique_ptrI19InspectionSubServerSt14default_deleteISA_EEvEEESaISG_ENSt8__detail10_Select1stESt8equal_toIS5_ESt4hashIS5_ENSI_18_Mod_range_hashingENSI_20_Default_ranged_hashENSI_20_Prime_rehash_policyENSI_17_Hashtable_traitsILb1ELb0ELb1EEEE15_M_bucket_indexEPNSI_10_Hash_nodeISG_Lb1EEE
	.section	.text._ZNKSt10_HashtableINSt7__cxx1112basic_stringIcSt11char_traitsIcESaIcEEESt4pairIKS5_St8functionIFSt10unique_ptrI19InspectionSubServerSt14default_deleteISA_EEvEEESaISG_ENSt8__detail10_Select1stESt8equal_toIS5_ESt4hashIS5_ENSI_18_Mod_range_hashingENSI_20_Default_ranged_hashENSI_20_Prime_rehash_policyENSI_17_Hashtable_traitsILb1ELb0ELb1EEEE12_M_find_nodeEmRS7_m,"axG",@progbits,_ZNKSt10_HashtableINSt7__cxx1112basic_stringIcSt11char_traitsIcESaIcEEESt4pairIKS5_St8functionIFSt10unique_ptrI19InspectionSubServerSt14default_deleteISA_EEvEEESaISG_ENSt8__detail10_Select1stESt8equal_toIS5_ESt4hashIS5_ENSI_18_Mod_range_hashingENSI_20_Default_ranged_hashENSI_20_Prime_rehash_policyENSI_17_Hashtable_traitsILb1ELb0ELb1EEEE12_M_find_nodeEmRS7_m,comdat
	.align 2
	.weak	_ZNKSt10_HashtableINSt7__cxx1112basic_stringIcSt11char_traitsIcESaIcEEESt4pairIKS5_St8functionIFSt10unique_ptrI19InspectionSubServerSt14default_deleteISA_EEvEEESaISG_ENSt8__detail10_Select1stESt8equal_toIS5_ESt4hashIS5_ENSI_18_Mod_range_hashingENSI_20_Default_ranged_hashENSI_20_Prime_rehash_policyENSI_17_Hashtable_traitsILb1ELb0ELb1EEEE12_M_find_nodeEmRS7_m
	.type	_ZNKSt10_HashtableINSt7__cxx1112basic_stringIcSt11char_traitsIcESaIcEEESt4pairIKS5_St8functionIFSt10unique_ptrI19InspectionSubServerSt14default_deleteISA_EEvEEESaISG_ENSt8__detail10_Select1stESt8equal_toIS5_ESt4hashIS5_ENSI_18_Mod_range_hashingENSI_20_Default_ranged_hashENSI_20_Prime_rehash_policyENSI_17_Hashtable_traitsILb1ELb0ELb1EEEE12_M_find_nodeEmRS7_m, @function
_ZNKSt10_HashtableINSt7__cxx1112basic_stringIcSt11char_traitsIcESaIcEEESt4pairIKS5_St8functionIFSt10unique_ptrI19InspectionSubServerSt14default_deleteISA_EEvEEESaISG_ENSt8__detail10_Select1stESt8equal_toIS5_ESt4hashIS5_ENSI_18_Mod_range_hashingENSI_20_Default_ranged_hashENSI_20_Prime_rehash_policyENSI_17_Hashtable_traitsILb1ELb0ELb1EEEE12_M_find_nodeEmRS7_m:
.LFB6570:
	.cfi_startproc
	endbr64
	pushq	%rbp
	.cfi_def_cfa_offset 16
	.cfi_offset 6, -16
	movq	%rsp, %rbp
	.cfi_def_cfa_register 6
	subq	$48, %rsp
	movq	%rdi, -24(%rbp)
	movq	%rsi, -32(%rbp)
	movq	%rdx, -40(%rbp)
	movq	%rcx, -48(%rbp)
	movq	-48(%rbp), %rcx
	movq	-40(%rbp), %rdx
	movq	-32(%rbp), %rsi
	movq	-24(%rbp), %rax
	movq	%rax, %rdi
	call	_ZNKSt10_HashtableINSt7__cxx1112basic_stringIcSt11char_traitsIcESaIcEEESt4pairIKS5_St8functionIFSt10unique_ptrI19InspectionSubServerSt14default_deleteISA_EEvEEESaISG_ENSt8__detail10_Select1stESt8equal_toIS5_ESt4hashIS5_ENSI_18_Mod_range_hashingENSI_20_Default_ranged_hashENSI_20_Prime_rehash_policyENSI_17_Hashtable_traitsILb1ELb0ELb1EEEE19_M_find_before_nodeEmRS7_m@PLT
	movq	%rax, -8(%rbp)
	cmpq	$0, -8(%rbp)
	je	.L288
	movq	-8(%rbp), %rax
	movq	(%rax), %rax
	jmp	.L289
.L288:
	movl	$0, %eax
.L289:
	leave
	.cfi_def_cfa 7, 8
	ret
	.cfi_endproc
.LFE6570:
	.size	_ZNKSt10_HashtableINSt7__cxx1112basic_stringIcSt11char_traitsIcESaIcEEESt4pairIKS5_St8functionIFSt10unique_ptrI19InspectionSubServerSt14default_deleteISA_EEvEEESaISG_ENSt8__detail10_Select1stESt8equal_toIS5_ESt4hashIS5_ENSI_18_Mod_range_hashingENSI_20_Default_ranged_hashENSI_20_Prime_rehash_policyENSI_17_Hashtable_traitsILb1ELb0ELb1EEEE12_M_find_nodeEmRS7_m, .-_ZNKSt10_HashtableINSt7__cxx1112basic_stringIcSt11char_traitsIcESaIcEEESt4pairIKS5_St8functionIFSt10unique_ptrI19InspectionSubServerSt14default_deleteISA_EEvEEESaISG_ENSt8__detail10_Select1stESt8equal_toIS5_ESt4hashIS5_ENSI_18_Mod_range_hashingENSI_20_Default_ranged_hashENSI_20_Prime_rehash_policyENSI_17_Hashtable_traitsILb1ELb0ELb1EEEE12_M_find_nodeEmRS7_m
	.section	.text._ZNSt5tupleIJRKNSt7__cxx1112basic_stringIcSt11char_traitsIcESaIcEEEEEC2IvLb1EEES7_,"axG",@progbits,_ZNSt5tupleIJRKNSt7__cxx1112basic_stringIcSt11char_traitsIcESaIcEEEEEC5IvLb1EEES7_,comdat
	.align 2
	.weak	_ZNSt5tupleIJRKNSt7__cxx1112basic_stringIcSt11char_traitsIcESaIcEEEEEC2IvLb1EEES7_
	.type	_ZNSt5tupleIJRKNSt7__cxx1112basic_stringIcSt11char_traitsIcESaIcEEEEEC2IvLb1EEES7_, @function
_ZNSt5tupleIJRKNSt7__cxx1112basic_stringIcSt11char_traitsIcESaIcEEEEEC2IvLb1EEES7_:
.LFB6572:
	.cfi_startproc
	endbr64
	pushq	%rbp
	.cfi_def_cfa_offset 16
	.cfi_offset 6, -16
	movq	%rsp, %rbp
	.cfi_def_cfa_register 6
	subq	$16, %rsp
	movq	%rdi, -8(%rbp)
	movq	%rsi, -16(%rbp)
	movq	-8(%rbp), %rax
	movq	-16(%rbp), %rdx
	movq	%rdx, %rsi
	movq	%rax, %rdi
	call	_ZNSt11_Tuple_implILm0EJRKNSt7__cxx1112basic_stringIcSt11char_traitsIcESaIcEEEEEC2ES7_@PLT
	nop
	leave
	.cfi_def_cfa 7, 8
	ret
	.cfi_endproc
.LFE6572:
	.size	_ZNSt5tupleIJRKNSt7__cxx1112basic_stringIcSt11char_traitsIcESaIcEEEEEC2IvLb1EEES7_, .-_ZNSt5tupleIJRKNSt7__cxx1112basic_stringIcSt11char_traitsIcESaIcEEEEEC2IvLb1EEES7_
	.weak	_ZNSt5tupleIJRKNSt7__cxx1112basic_stringIcSt11char_traitsIcESaIcEEEEEC1IvLb1EEES7_
	.set	_ZNSt5tupleIJRKNSt7__cxx1112basic_stringIcSt11char_traitsIcESaIcEEEEEC1IvLb1EEES7_,_ZNSt5tupleIJRKNSt7__cxx1112basic_stringIcSt11char_traitsIcESaIcEEEEEC2IvLb1EEES7_
	.section	.text._ZNSt8__detail21_Hash_node_value_baseISt4pairIKNSt7__cxx1112basic_stringIcSt11char_traitsIcESaIcEEESt8functionIFSt10unique_ptrI19InspectionSubServerSt14default_deleteISB_EEvEEEEC2Ev,"axG",@progbits,_ZNSt8__detail21_Hash_node_value_baseISt4pairIKNSt7__cxx1112basic_stringIcSt11char_traitsIcESaIcEEESt8functionIFSt10unique_ptrI19InspectionSubServerSt14default_deleteISB_EEvEEEEC5Ev,comdat
	.align 2
	.weak	_ZNSt8__detail21_Hash_node_value_baseISt4pairIKNSt7__cxx1112basic_stringIcSt11char_traitsIcESaIcEEESt8functionIFSt10unique_ptrI19InspectionSubServerSt14default_deleteISB_EEvEEEEC2Ev
	.type	_ZNSt8__detail21_Hash_node_value_baseISt4pairIKNSt7__cxx1112basic_stringIcSt11char_traitsIcESaIcEEESt8functionIFSt10unique_ptrI19InspectionSubServerSt14default_deleteISB_EEvEEEEC2Ev, @function
_ZNSt8__detail21_Hash_node_value_baseISt4pairIKNSt7__cxx1112basic_stringIcSt11char_traitsIcESaIcEEESt8functionIFSt10unique_ptrI19InspectionSubServerSt14default_deleteISB_EEvEEEEC2Ev:
.LFB6577:
	.cfi_startproc
	endbr64
	pushq	%rbp
	.cfi_def_cfa_offset 16
	.cfi_offset 6, -16
	movq	%rsp, %rbp
	.cfi_def_cfa_register 6
	subq	$16, %rsp
	movq	%rdi, -8(%rbp)
	movq	-8(%rbp), %rax
	movq	%rax, %rdi
	call	_ZNSt8__detail15_Hash_node_baseC2Ev@PLT
	nop
	leave
	.cfi_def_cfa 7, 8
	ret
	.cfi_endproc
.LFE6577:
	.size	_ZNSt8__detail21_Hash_node_value_baseISt4pairIKNSt7__cxx1112basic_stringIcSt11char_traitsIcESaIcEEESt8functionIFSt10unique_ptrI19InspectionSubServerSt14default_deleteISB_EEvEEEEC2Ev, .-_ZNSt8__detail21_Hash_node_value_baseISt4pairIKNSt7__cxx1112basic_stringIcSt11char_traitsIcESaIcEEESt8functionIFSt10unique_ptrI19InspectionSubServerSt14default_deleteISB_EEvEEEEC2Ev
	.weak	_ZNSt8__detail21_Hash_node_value_baseISt4pairIKNSt7__cxx1112basic_stringIcSt11char_traitsIcESaIcEEESt8functionIFSt10unique_ptrI19InspectionSubServerSt14default_deleteISB_EEvEEEEC1Ev
	.set	_ZNSt8__detail21_Hash_node_value_baseISt4pairIKNSt7__cxx1112basic_stringIcSt11char_traitsIcESaIcEEESt8functionIFSt10unique_ptrI19InspectionSubServerSt14default_deleteISB_EEvEEEEC1Ev,_ZNSt8__detail21_Hash_node_value_baseISt4pairIKNSt7__cxx1112basic_stringIcSt11char_traitsIcESaIcEEESt8functionIFSt10unique_ptrI19InspectionSubServerSt14default_deleteISB_EEvEEEEC2Ev
	.section	.text._ZNSt8__detail10_Hash_nodeISt4pairIKNSt7__cxx1112basic_stringIcSt11char_traitsIcESaIcEEESt8functionIFSt10unique_ptrI19InspectionSubServerSt14default_deleteISB_EEvEEELb1EEC2Ev,"axG",@progbits,_ZNSt8__detail10_Hash_nodeISt4pairIKNSt7__cxx1112basic_stringIcSt11char_traitsIcESaIcEEESt8functionIFSt10unique_ptrI19InspectionSubServerSt14default_deleteISB_EEvEEELb1EEC5Ev,comdat
	.align 2
	.weak	_ZNSt8__detail10_Hash_nodeISt4pairIKNSt7__cxx1112basic_stringIcSt11char_traitsIcESaIcEEESt8functionIFSt10unique_ptrI19InspectionSubServerSt14default_deleteISB_EEvEEELb1EEC2Ev
	.type	_ZNSt8__detail10_Hash_nodeISt4pairIKNSt7__cxx1112basic_stringIcSt11char_traitsIcESaIcEEESt8functionIFSt10unique_ptrI19InspectionSubServerSt14default_deleteISB_EEvEEELb1EEC2Ev, @function
_ZNSt8__detail10_Hash_nodeISt4pairIKNSt7__cxx1112basic_stringIcSt11char_traitsIcESaIcEEESt8functionIFSt10unique_ptrI19InspectionSubServerSt14default_deleteISB_EEvEEELb1EEC2Ev:
.LFB6579:
	.cfi_startproc
	endbr64
	pushq	%rbp
	.cfi_def_cfa_offset 16
	.cfi_offset 6, -16
	movq	%rsp, %rbp
	.cfi_def_cfa_register 6
	subq	$16, %rsp
	movq	%rdi, -8(%rbp)
	movq	-8(%rbp), %rax
	movq	%rax, %rdi
	call	_ZNSt8__detail21_Hash_node_value_baseISt4pairIKNSt7__cxx1112basic_stringIcSt11char_traitsIcESaIcEEESt8functionIFSt10unique_ptrI19InspectionSubServerSt14default_deleteISB_EEvEEEEC2Ev@PLT
	nop
	leave
	.cfi_def_cfa 7, 8
	ret
	.cfi_endproc
.LFE6579:
	.size	_ZNSt8__detail10_Hash_nodeISt4pairIKNSt7__cxx1112basic_stringIcSt11char_traitsIcESaIcEEESt8functionIFSt10unique_ptrI19InspectionSubServerSt14default_deleteISB_EEvEEELb1EEC2Ev, .-_ZNSt8__detail10_Hash_nodeISt4pairIKNSt7__cxx1112basic_stringIcSt11char_traitsIcESaIcEEESt8functionIFSt10unique_ptrI19InspectionSubServerSt14default_deleteISB_EEvEEELb1EEC2Ev
	.weak	_ZNSt8__detail10_Hash_nodeISt4pairIKNSt7__cxx1112basic_stringIcSt11char_traitsIcESaIcEEESt8functionIFSt10unique_ptrI19InspectionSubServerSt14default_deleteISB_EEvEEELb1EEC1Ev
	.set	_ZNSt8__detail10_Hash_nodeISt4pairIKNSt7__cxx1112basic_stringIcSt11char_traitsIcESaIcEEESt8functionIFSt10unique_ptrI19InspectionSubServerSt14default_deleteISB_EEvEEELb1EEC1Ev,_ZNSt8__detail10_Hash_nodeISt4pairIKNSt7__cxx1112basic_stringIcSt11char_traitsIcESaIcEEESt8functionIFSt10unique_ptrI19InspectionSubServerSt14default_deleteISB_EEvEEELb1EEC2Ev
	.section	.text._ZNSt8__detail16_Hashtable_allocISaINS_10_Hash_nodeISt4pairIKNSt7__cxx1112basic_stringIcSt11char_traitsIcESaIcEEESt8functionIFSt10unique_ptrI19InspectionSubServerSt14default_deleteISC_EEvEEELb1EEEEE16_M_allocate_nodeIJRKSt21piecewise_construct_tSt5tupleIJRS9_EESQ_IJEEEEEPSJ_DpOT_,"axG",@progbits,_ZNSt8__detail16_Hashtable_allocISaINS_10_Hash_nodeISt4pairIKNSt7__cxx1112basic_stringIcSt11char_traitsIcESaIcEEESt8functionIFSt10unique_ptrI19InspectionSubServerSt14default_deleteISC_EEvEEELb1EEEEE16_M_allocate_nodeIJRKSt21piecewise_construct_tSt5tupleIJRS9_EESQ_IJEEEEEPSJ_DpOT_,comdat
	.align 2
	.weak	_ZNSt8__detail16_Hashtable_allocISaINS_10_Hash_nodeISt4pairIKNSt7__cxx1112basic_stringIcSt11char_traitsIcESaIcEEESt8functionIFSt10unique_ptrI19InspectionSubServerSt14default_deleteISC_EEvEEELb1EEEEE16_M_allocate_nodeIJRKSt21piecewise_construct_tSt5tupleIJRS9_EESQ_IJEEEEEPSJ_DpOT_
	.type	_ZNSt8__detail16_Hashtable_allocISaINS_10_Hash_nodeISt4pairIKNSt7__cxx1112basic_stringIcSt11char_traitsIcESaIcEEESt8functionIFSt10unique_ptrI19InspectionSubServerSt14default_deleteISC_EEvEEELb1EEEEE16_M_allocate_nodeIJRKSt21piecewise_construct_tSt5tupleIJRS9_EESQ_IJEEEEEPSJ_DpOT_, @function
_ZNSt8__detail16_Hashtable_allocISaINS_10_Hash_nodeISt4pairIKNSt7__cxx1112basic_stringIcSt11char_traitsIcESaIcEEESt8functionIFSt10unique_ptrI19InspectionSubServerSt14default_deleteISC_EEvEEELb1EEEEE16_M_allocate_nodeIJRKSt21piecewise_construct_tSt5tupleIJRS9_EESQ_IJEEEEEPSJ_DpOT_:
.LFB6574:
	.cfi_startproc
	.cfi_personality 0x9b,DW.ref.__gxx_personality_v0
	.cfi_lsda 0x1b,.LLSDA6574
	endbr64
	pushq	%rbp
	.cfi_def_cfa_offset 16
	.cfi_offset 6, -16
	movq	%rsp, %rbp
	.cfi_def_cfa_register 6
	pushq	%r14
	pushq	%r13
	pushq	%r12
	pushq	%rbx
	subq	$48, %rsp
	.cfi_offset 14, -24
	.cfi_offset 13, -32
	.cfi_offset 12, -40
	.cfi_offset 3, -48
	movq	%rdi, -56(%rbp)
	movq	%rsi, -64(%rbp)
	movq	%rdx, -72(%rbp)
	movq	%rcx, -80(%rbp)
	movq	-56(%rbp), %rax
	movq	%rax, %rdi
.LEHB16:
	call	_ZNSt8__detail16_Hashtable_allocISaINS_10_Hash_nodeISt4pairIKNSt7__cxx1112basic_stringIcSt11char_traitsIcESaIcEEESt8functionIFSt10unique_ptrI19InspectionSubServerSt14default_deleteISC_EEvEEELb1EEEEE17_M_node_allocatorEv@PLT
	movl	$1, %esi
	movq	%rax, %rdi
	call	_ZNSt16allocator_traitsISaINSt8__detail10_Hash_nodeISt4pairIKNSt7__cxx1112basic_stringIcSt11char_traitsIcESaIcEEESt8functionIFSt10unique_ptrI19InspectionSubServerSt14default_deleteISC_EEvEEELb1EEEEE8allocateERSK_m@PLT
.LEHE16:
	movq	%rax, -48(%rbp)
	movq	-48(%rbp), %rax
	movq	%rax, %rdi
	call	_ZSt12__to_addressINSt8__detail10_Hash_nodeISt4pairIKNSt7__cxx1112basic_stringIcSt11char_traitsIcESaIcEEESt8functionIFSt10unique_ptrI19InspectionSubServerSt14default_deleteISC_EEvEEELb1EEEEPT_SL_@PLT
	movq	%rax, -40(%rbp)
	movq	-40(%rbp), %rax
	movq	%rax, %rsi
	movl	$80, %edi
	call	_ZnwmPv@PLT
	movq	%rax, %rdi
	call	_ZNSt8__detail10_Hash_nodeISt4pairIKNSt7__cxx1112basic_stringIcSt11char_traitsIcESaIcEEESt8functionIFSt10unique_ptrI19InspectionSubServerSt14default_deleteISB_EEvEEELb1EEC1Ev@PLT
	movq	-80(%rbp), %rax
	movq	%rax, %rdi
	call	_ZSt7forwardISt5tupleIJEEEOT_RNSt16remove_referenceIS2_E4typeE@PLT
	movq	%rax, %r14
	movq	-72(%rbp), %rax
	movq	%rax, %rdi
	call	_ZSt7forwardISt5tupleIJRKNSt7__cxx1112basic_stringIcSt11char_traitsIcESaIcEEEEEEOT_RNSt16remove_referenceISA_E4typeE@PLT
	movq	%rax, %r13
	movq	-64(%rbp), %rax
	movq	%rax, %rdi
	call	_ZSt7forwardIRKSt21piecewise_construct_tEOT_RNSt16remove_referenceIS3_E4typeE@PLT
	movq	%rax, %r12
	movq	-40(%rbp), %rax
	movq	%rax, %rdi
	call	_ZNSt8__detail21_Hash_node_value_baseISt4pairIKNSt7__cxx1112basic_stringIcSt11char_traitsIcESaIcEEESt8functionIFSt10unique_ptrI19InspectionSubServerSt14default_deleteISB_EEvEEEE9_M_valptrEv@PLT
	movq	%rax, %rbx
	movq	-56(%rbp), %rax
	movq	%rax, %rdi
.LEHB17:
	call	_ZNSt8__detail16_Hashtable_allocISaINS_10_Hash_nodeISt4pairIKNSt7__cxx1112basic_stringIcSt11char_traitsIcESaIcEEESt8functionIFSt10unique_ptrI19InspectionSubServerSt14default_deleteISC_EEvEEELb1EEEEE17_M_node_allocatorEv@PLT
	movq	%r14, %r8
	movq	%r13, %rcx
	movq	%r12, %rdx
	movq	%rbx, %rsi
	movq	%rax, %rdi
	call	_ZNSt16allocator_traitsISaINSt8__detail10_Hash_nodeISt4pairIKNSt7__cxx1112basic_stringIcSt11char_traitsIcESaIcEEESt8functionIFSt10unique_ptrI19InspectionSubServerSt14default_deleteISC_EEvEEELb1EEEEE9constructISI_JRKSt21piecewise_construct_tSt5tupleIJRS9_EESQ_IJEEEEEvRSK_PT_DpOT0_@PLT
.LEHE17:
	movq	-40(%rbp), %rax
	jmp	.L299
.L297:
	endbr64
	movq	%rax, %rdi
	call	__cxa_begin_catch@PLT
	movq	-56(%rbp), %rax
	movq	%rax, %rdi
.LEHB18:
	call	_ZNSt8__detail16_Hashtable_allocISaINS_10_Hash_nodeISt4pairIKNSt7__cxx1112basic_stringIcSt11char_traitsIcESaIcEEESt8functionIFSt10unique_ptrI19InspectionSubServerSt14default_deleteISC_EEvEEELb1EEEEE17_M_node_allocatorEv@PLT
	movq	%rax, %rcx
	movq	-48(%rbp), %rax
	movl	$1, %edx
	movq	%rax, %rsi
	movq	%rcx, %rdi
	call	_ZNSt16allocator_traitsISaINSt8__detail10_Hash_nodeISt4pairIKNSt7__cxx1112basic_stringIcSt11char_traitsIcESaIcEEESt8functionIFSt10unique_ptrI19InspectionSubServerSt14default_deleteISC_EEvEEELb1EEEEE10deallocateERSK_PSJ_m@PLT
	call	__cxa_rethrow@PLT
.LEHE18:
.L298:
	endbr64
	movq	%rax, %rbx
	call	__cxa_end_catch@PLT
	movq	%rbx, %rax
	movq	%rax, %rdi
.LEHB19:
	call	_Unwind_Resume@PLT
.LEHE19:
.L299:
	addq	$48, %rsp
	popq	%rbx
	popq	%r12
	popq	%r13
	popq	%r14
	popq	%rbp
	.cfi_def_cfa 7, 8
	ret
	.cfi_endproc
.LFE6574:
	.section	.gcc_except_table
	.align 4
.LLSDA6574:
	.byte	0xff
	.byte	0x9b
	.uleb128 .LLSDATT6574-.LLSDATTD6574
.LLSDATTD6574:
	.byte	0x1
	.uleb128 .LLSDACSE6574-.LLSDACSB6574
.LLSDACSB6574:
	.uleb128 .LEHB16-.LFB6574
	.uleb128 .LEHE16-.LEHB16
	.uleb128 0
	.uleb128 0
	.uleb128 .LEHB17-.LFB6574
	.uleb128 .LEHE17-.LEHB17
	.uleb128 .L297-.LFB6574
	.uleb128 0x1
	.uleb128 .LEHB18-.LFB6574
	.uleb128 .LEHE18-.LEHB18
	.uleb128 .L298-.LFB6574
	.uleb128 0
	.uleb128 .LEHB19-.LFB6574
	.uleb128 .LEHE19-.LEHB19
	.uleb128 0
	.uleb128 0
.LLSDACSE6574:
	.byte	0x1
	.byte	0
	.align 4
	.long	0

.LLSDATT6574:
	.section	.text._ZNSt8__detail16_Hashtable_allocISaINS_10_Hash_nodeISt4pairIKNSt7__cxx1112basic_stringIcSt11char_traitsIcESaIcEEESt8functionIFSt10unique_ptrI19InspectionSubServerSt14default_deleteISC_EEvEEELb1EEEEE16_M_allocate_nodeIJRKSt21piecewise_construct_tSt5tupleIJRS9_EESQ_IJEEEEEPSJ_DpOT_,"axG",@progbits,_ZNSt8__detail16_Hashtable_allocISaINS_10_Hash_nodeISt4pairIKNSt7__cxx1112basic_stringIcSt11char_traitsIcESaIcEEESt8functionIFSt10unique_ptrI19InspectionSubServerSt14default_deleteISC_EEvEEELb1EEEEE16_M_allocate_nodeIJRKSt21piecewise_construct_tSt5tupleIJRS9_EESQ_IJEEEEEPSJ_DpOT_,comdat
	.size	_ZNSt8__detail16_Hashtable_allocISaINS_10_Hash_nodeISt4pairIKNSt7__cxx1112basic_stringIcSt11char_traitsIcESaIcEEESt8functionIFSt10unique_ptrI19InspectionSubServerSt14default_deleteISC_EEvEEELb1EEEEE16_M_allocate_nodeIJRKSt21piecewise_construct_tSt5tupleIJRS9_EESQ_IJEEEEEPSJ_DpOT_, .-_ZNSt8__detail16_Hashtable_allocISaINS_10_Hash_nodeISt4pairIKNSt7__cxx1112basic_stringIcSt11char_traitsIcESaIcEEESt8functionIFSt10unique_ptrI19InspectionSubServerSt14default_deleteISC_EEvEEELb1EEEEE16_M_allocate_nodeIJRKSt21piecewise_construct_tSt5tupleIJRS9_EESQ_IJEEEEEPSJ_DpOT_
	.section	.text._ZNSt10_HashtableINSt7__cxx1112basic_stringIcSt11char_traitsIcESaIcEEESt4pairIKS5_St8functionIFSt10unique_ptrI19InspectionSubServerSt14default_deleteISA_EEvEEESaISG_ENSt8__detail10_Select1stESt8equal_toIS5_ESt4hashIS5_ENSI_18_Mod_range_hashingENSI_20_Default_ranged_hashENSI_20_Prime_rehash_policyENSI_17_Hashtable_traitsILb1ELb0ELb1EEEE21_M_insert_unique_nodeEmmPNSI_10_Hash_nodeISG_Lb1EEEm,"axG",@progbits,_ZNSt10_HashtableINSt7__cxx1112basic_stringIcSt11char_traitsIcESaIcEEESt4pairIKS5_St8functionIFSt10unique_ptrI19InspectionSubServerSt14default_deleteISA_EEvEEESaISG_ENSt8__detail10_Select1stESt8equal_toIS5_ESt4hashIS5_ENSI_18_Mod_range_hashingENSI_20_Default_ranged_hashENSI_20_Prime_rehash_policyENSI_17_Hashtable_traitsILb1ELb0ELb1EEEE21_M_insert_unique_nodeEmmPNSI_10_Hash_nodeISG_Lb1EEEm,comdat
	.align 2
	.weak	_ZNSt10_HashtableINSt7__cxx1112basic_stringIcSt11char_traitsIcESaIcEEESt4pairIKS5_St8functionIFSt10unique_ptrI19InspectionSubServerSt14default_deleteISA_EEvEEESaISG_ENSt8__detail10_Select1stESt8equal_toIS5_ESt4hashIS5_ENSI_18_Mod_range_hashingENSI_20_Default_ranged_hashENSI_20_Prime_rehash_policyENSI_17_Hashtable_traitsILb1ELb0ELb1EEEE21_M_insert_unique_nodeEmmPNSI_10_Hash_nodeISG_Lb1EEEm
	.type	_ZNSt10_HashtableINSt7__cxx1112basic_stringIcSt11char_traitsIcESaIcEEESt4pairIKS5_St8functionIFSt10unique_ptrI19InspectionSubServerSt14default_deleteISA_EEvEEESaISG_ENSt8__detail10_Select1stESt8equal_toIS5_ESt4hashIS5_ENSI_18_Mod_range_hashingENSI_20_Default_ranged_hashENSI_20_Prime_rehash_policyENSI_17_Hashtable_traitsILb1ELb0ELb1EEEE21_M_insert_unique_nodeEmmPNSI_10_Hash_nodeISG_Lb1EEEm, @function
_ZNSt10_HashtableINSt7__cxx1112basic_stringIcSt11char_traitsIcESaIcEEESt4pairIKS5_St8functionIFSt10unique_ptrI19InspectionSubServerSt14default_deleteISA_EEvEEESaISG_ENSt8__detail10_Select1stESt8equal_toIS5_ESt4hashIS5_ENSI_18_Mod_range_hashingENSI_20_Default_ranged_hashENSI_20_Prime_rehash_policyENSI_17_Hashtable_traitsILb1ELb0ELb1EEEE21_M_insert_unique_nodeEmmPNSI_10_Hash_nodeISG_Lb1EEEm:
.LFB6590:
	.cfi_startproc
	.cfi_personality 0x9b,DW.ref.__gxx_personality_v0
	.cfi_lsda 0x1b,.LLSDA6590
	endbr64
	pushq	%rbp
	.cfi_def_cfa_offset 16
	.cfi_offset 6, -16
	movq	%rsp, %rbp
	.cfi_def_cfa_register 6
	pushq	%rbx
	subq	$120, %rsp
	.cfi_offset 3, -24
	movq	%rdi, -88(%rbp)
	movq	%rsi, -96(%rbp)
	movq	%rdx, -104(%rbp)
	movq	%rcx, -112(%rbp)
	movq	%r8, -120(%rbp)
	movq	%fs:40, %rax
	movq	%rax, -24(%rbp)
	xorl	%eax, %eax
	movq	-88(%rbp), %rax
	addq	$32, %rax
	movq	%rax, %rdi
	call	_ZNKSt8__detail20_Prime_rehash_policy8_M_stateEv@PLT
	movq	%rax, -64(%rbp)
	leaq	-64(%rbp), %rax
	movq	%rax, -56(%rbp)
	movq	-88(%rbp), %rax
	leaq	32(%rax), %rdi
	movq	-88(%rbp), %rax
	movq	24(%rax), %rdx
	movq	-88(%rbp), %rax
	movq	8(%rax), %rax
	movq	-120(%rbp), %rcx
	movq	%rax, %rsi
.LEHB20:
	call	_ZNKSt8__detail20_Prime_rehash_policy14_M_need_rehashEmmm@PLT
.LEHE20:
	movl	%eax, %ecx
	movq	%rdx, %rax
	movl	%ecx, -48(%rbp)
	movq	%rax, -40(%rbp)
	movzbl	-48(%rbp), %eax
	testb	%al, %al
	je	.L301
	movq	-40(%rbp), %rcx
	movq	-56(%rbp), %rdx
	movq	-88(%rbp), %rax
	movq	%rcx, %rsi
	movq	%rax, %rdi
.LEHB21:
	call	_ZNSt10_HashtableINSt7__cxx1112basic_stringIcSt11char_traitsIcESaIcEEESt4pairIKS5_St8functionIFSt10unique_ptrI19InspectionSubServerSt14default_deleteISA_EEvEEESaISG_ENSt8__detail10_Select1stESt8equal_toIS5_ESt4hashIS5_ENSI_18_Mod_range_hashingENSI_20_Default_ranged_hashENSI_20_Prime_rehash_policyENSI_17_Hashtable_traitsILb1ELb0ELb1EEEE9_M_rehashEmRKm@PLT
	movq	-88(%rbp), %rax
	movq	%rax, %rdi
	call	_ZNSt8__detail15_Hash_code_baseINSt7__cxx1112basic_stringIcSt11char_traitsIcESaIcEEESt4pairIKS6_St8functionIFSt10unique_ptrI19InspectionSubServerSt14default_deleteISB_EEvEEENS_10_Select1stESt4hashIS6_ENS_18_Mod_range_hashingENS_20_Default_ranged_hashELb1EE10_M_extractEv@PLT
	movq	%rax, %rbx
	movq	-112(%rbp), %rax
	movq	%rax, %rdi
	call	_ZNSt8__detail21_Hash_node_value_baseISt4pairIKNSt7__cxx1112basic_stringIcSt11char_traitsIcESaIcEEESt8functionIFSt10unique_ptrI19InspectionSubServerSt14default_deleteISB_EEvEEEE4_M_vEv@PLT
	movq	%rax, %rsi
	movq	%rbx, %rdi
	call	_ZNKSt8__detail10_Select1stclIRSt4pairIKNSt7__cxx1112basic_stringIcSt11char_traitsIcESaIcEEESt8functionIFSt10unique_ptrI19InspectionSubServerSt14default_deleteISC_EEvEEEEEDTcl3getILi0EEcl7forwardIT_Efp_EEEOSK_@PLT
	movq	%rax, %rcx
	movq	-104(%rbp), %rdx
	movq	-88(%rbp), %rax
	movq	%rcx, %rsi
	movq	%rax, %rdi
	call	_ZNKSt10_HashtableINSt7__cxx1112basic_stringIcSt11char_traitsIcESaIcEEESt4pairIKS5_St8functionIFSt10unique_ptrI19InspectionSubServerSt14default_deleteISA_EEvEEESaISG_ENSt8__detail10_Select1stESt8equal_toIS5_ESt4hashIS5_ENSI_18_Mod_range_hashingENSI_20_Default_ranged_hashENSI_20_Prime_rehash_policyENSI_17_Hashtable_traitsILb1ELb0ELb1EEEE15_M_bucket_indexERS7_m@PLT
.LEHE21:
	movq	%rax, -96(%rbp)
.L301:
	movq	-104(%rbp), %rdx
	movq	-112(%rbp), %rcx
	movq	-88(%rbp), %rax
	movq	%rcx, %rsi
	movq	%rax, %rdi
	call	_ZNKSt8__detail15_Hash_code_baseINSt7__cxx1112basic_stringIcSt11char_traitsIcESaIcEEESt4pairIKS6_St8functionIFSt10unique_ptrI19InspectionSubServerSt14default_deleteISB_EEvEEENS_10_Select1stESt4hashIS6_ENS_18_Mod_range_hashingENS_20_Default_ranged_hashELb1EE13_M_store_codeEPNS_10_Hash_nodeISH_Lb1EEEm@PLT
	movq	-112(%rbp), %rdx
	movq	-96(%rbp), %rcx
	movq	-88(%rbp), %rax
	movq	%rcx, %rsi
	movq	%rax, %rdi
	call	_ZNSt10_HashtableINSt7__cxx1112basic_stringIcSt11char_traitsIcESaIcEEESt4pairIKS5_St8functionIFSt10unique_ptrI19InspectionSubServerSt14default_deleteISA_EEvEEESaISG_ENSt8__detail10_Select1stESt8equal_toIS5_ESt4hashIS5_ENSI_18_Mod_range_hashingENSI_20_Default_ranged_hashENSI_20_Prime_rehash_policyENSI_17_Hashtable_traitsILb1ELb0ELb1EEEE22_M_insert_bucket_beginEmPNSI_10_Hash_nodeISG_Lb1EEE@PLT
	movq	-88(%rbp), %rax
	movq	24(%rax), %rax
	leaq	1(%rax), %rdx
	movq	-88(%rbp), %rax
	movq	%rdx, 24(%rax)
	movq	-112(%rbp), %rdx
	leaq	-72(%rbp), %rax
	movq	%rdx, %rsi
	movq	%rax, %rdi
	call	_ZNSt8__detail14_Node_iteratorISt4pairIKNSt7__cxx1112basic_stringIcSt11char_traitsIcESaIcEEESt8functionIFSt10unique_ptrI19InspectionSubServerSt14default_deleteISB_EEvEEELb0ELb1EEC1EPNS_10_Hash_nodeISH_Lb1EEE@PLT
	movq	-72(%rbp), %rax
	movq	-24(%rbp), %rbx
	xorq	%fs:40, %rbx
	je	.L305
	jmp	.L308
.L306:
	endbr64
	movq	%rax, %rdi
	call	__cxa_begin_catch@PLT
	movq	-112(%rbp), %rdx
	movq	-88(%rbp), %rax
	movq	%rdx, %rsi
	movq	%rax, %rdi
.LEHB22:
	call	_ZNSt8__detail16_Hashtable_allocISaINS_10_Hash_nodeISt4pairIKNSt7__cxx1112basic_stringIcSt11char_traitsIcESaIcEEESt8functionIFSt10unique_ptrI19InspectionSubServerSt14default_deleteISC_EEvEEELb1EEEEE18_M_deallocate_nodeEPSJ_@PLT
	call	__cxa_rethrow@PLT
.LEHE22:
.L307:
	endbr64
	movq	%rax, %rbx
	call	__cxa_end_catch@PLT
	movq	%rbx, %rax
	movq	%rax, %rdi
.LEHB23:
	call	_Unwind_Resume@PLT
.LEHE23:
.L308:
	call	__stack_chk_fail@PLT
.L305:
	addq	$120, %rsp
	popq	%rbx
	popq	%rbp
	.cfi_def_cfa 7, 8
	ret
	.cfi_endproc
.LFE6590:
	.section	.gcc_except_table
	.align 4
.LLSDA6590:
	.byte	0xff
	.byte	0x9b
	.uleb128 .LLSDATT6590-.LLSDATTD6590
.LLSDATTD6590:
	.byte	0x1
	.uleb128 .LLSDACSE6590-.LLSDACSB6590
.LLSDACSB6590:
	.uleb128 .LEHB20-.LFB6590
	.uleb128 .LEHE20-.LEHB20
	.uleb128 0
	.uleb128 0
	.uleb128 .LEHB21-.LFB6590
	.uleb128 .LEHE21-.LEHB21
